
STM32H743-DSP.elf:     file format elf32-littlearm

Sections:
Idx Name          Size      VMA       LMA       File off  Algn
  0 .isr_vector   00000298  08000000  08000000  00001000  2**0
                  CONTENTS, ALLOC, LOAD, READONLY, DATA
  1 .text         00007e38  08000298  08000298  00001298  2**2
                  CONTENTS, ALLOC, LOAD, READONLY, CODE
  2 .rodata       00076ac0  080080e0  080080e0  000090e0  2**5
                  CONTENTS, ALLOC, LOAD, READONLY, DATA
  3 .init_array   00000004  0807eba0  0807eba0  0007fba0  2**2
                  CONTENTS, ALLOC, LOAD, READONLY, DATA
  4 .fini_array   00000004  0807eba4  0807eba4  0007fba4  2**2
                  CONTENTS, ALLOC, LOAD, READONLY, DATA
  5 .data         000000a8  24000000  0807eba8  00080000  2**2
                  CONTENTS, ALLOC, LOAD, DATA
  6 .dtcm_bss     00008060  20000000  20000000  00081000  2**5
                  ALLOC
  7 .dtcm_data    00000000  20008060  20008060  000800a8  2**0
                  CONTENTS
  8 .bss          0007e900  240000c0  240000c0  000800c0  2**5
                  ALLOC
  9 ._user_heap_stack 00000600  2407e9c0  2407e9c0  000800c0  2**0
                  ALLOC
 10 .ARM.attributes 0000002e  00000000  00000000  000800a8  2**0
                  CONTENTS, READONLY
 11 .debug_info   00024fa6  00000000  00000000  000800d6  2**0
                  CONTENTS, READONLY, DEBUGGING, OCTETS
 12 .debug_abbrev 00004f48  00000000  00000000  000a507c  2**0
                  CONTENTS, READONLY, DEBUGGING, OCTETS
 13 .debug_loclists 00010043  00000000  00000000  000a9fc4  2**0
                  CONTENTS, READONLY, DEBUGGING, OCTETS
 14 .debug_aranges 00001398  00000000  00000000  000ba008  2**3
                  CONTENTS, READONLY, DEBUGGING, OCTETS
 15 .debug_rnglists 00001d91  00000000  00000000  000bb3a0  2**0
                  CONTENTS, READONLY, DEBUGGING, OCTETS
 16 .debug_macro  0003a670  00000000  00000000  000bd131  2**0
                  CONTENTS, READONLY, DEBUGGING, OCTETS
 17 .debug_line   00028093  00000000  00000000  000f77a1  2**0
                  CONTENTS, READONLY, DEBUGGING, OCTETS
 18 .debug_str    001751b4  00000000  00000000  0011f834  2**0
                  CONTENTS, READONLY, DEBUGGING, OCTETS
 19 .comment      000000b3  00000000  00000000  002949e8  2**0
                  CONTENTS, READONLY
 20 .debug_frame  000037ac  00000000  00000000  00294a9c  2**2
                  CONTENTS, READONLY, DEBUGGING, OCTETS
 21 .debug_line_str 0000006e  00000000  00000000  00298248  2**0
                  CONTENTS, READONLY, DEBUGGING, OCTETS
 22 .debug_loc    0000427a  00000000  00000000  002982b6  2**0
                  CONTENTS, READONLY, DEBUGGING, OCTETS
 23 .debug_ranges 000000f0  00000000  00000000  0029c530  2**0
                  CONTENTS, READONLY, DEBUGGING, OCTETS

Disassembly of section .text:

08000298 <__do_global_dtors_aux>:
 8000298:	b510      	push	{r4, lr}
 800029a:	4c05      	ldr	r4, [pc, #20]	@ (80002b0 <__do_global_dtors_aux+0x18>)
 800029c:	7823      	ldrb	r3, [r4, #0]
 800029e:	b933      	cbnz	r3, 80002ae <__do_global_dtors_aux+0x16>
 80002a0:	4b04      	ldr	r3, [pc, #16]	@ (80002b4 <__do_global_dtors_aux+0x1c>)
 80002a2:	b113      	cbz	r3, 80002aa <__do_global_dtors_aux+0x12>
 80002a4:	4804      	ldr	r0, [pc, #16]	@ (80002b8 <__do_global_dtors_aux+0x20>)
 80002a6:	f3af 8000 	nop.w
 80002aa:	2301      	movs	r3, #1
 80002ac:	7023      	strb	r3, [r4, #0]
 80002ae:	bd10      	pop	{r4, pc}
 80002b0:	240000c0 	.word	0x240000c0
 80002b4:	00000000 	.word	0x00000000
 80002b8:	080080b8 	.word	0x080080b8

080002bc <frame_dummy>:
 80002bc:	b508      	push	{r3, lr}
 80002be:	4b03      	ldr	r3, [pc, #12]	@ (80002cc <frame_dummy+0x10>)
 80002c0:	b11b      	cbz	r3, 80002ca <frame_dummy+0xe>
 80002c2:	4903      	ldr	r1, [pc, #12]	@ (80002d0 <frame_dummy+0x14>)
 80002c4:	4803      	ldr	r0, [pc, #12]	@ (80002d4 <frame_dummy+0x18>)
 80002c6:	f3af 8000 	nop.w
 80002ca:	bd08      	pop	{r3, pc}
 80002cc:	00000000 	.word	0x00000000
 80002d0:	240000c4 	.word	0x240000c4
 80002d4:	080080b8 	.word	0x080080b8

080002d8 <arm_bitreversal_32>:
 80002d8:	1c4b      	adds	r3, r1, #1
 80002da:	2b01      	cmp	r3, #1
 80002dc:	bf98      	it	ls
 80002de:	4770      	bxls	lr
 80002e0:	e92d 03f0 	stmdb	sp!, {r4, r5, r6, r7, r8, r9}
 80002e4:	1c91      	adds	r1, r2, #2
 80002e6:	089b      	lsrs	r3, r3, #2

080002e8 <arm_bitreversal_32_0>:
 80002e8:	f8b1 8004 	ldrh.w	r8, [r1, #4]
 80002ec:	f8b1 9002 	ldrh.w	r9, [r1, #2]
 80002f0:	880a      	ldrh	r2, [r1, #0]
 80002f2:	f831 cc02 	ldrh.w	ip, [r1, #-2]
 80002f6:	4480      	add	r8, r0
 80002f8:	4481      	add	r9, r0
 80002fa:	4402      	add	r2, r0
 80002fc:	4484      	add	ip, r0
 80002fe:	f8d9 7000 	ldr.w	r7, [r9]
 8000302:	f8d8 6000 	ldr.w	r6, [r8]
 8000306:	6815      	ldr	r5, [r2, #0]
 8000308:	f8dc 4000 	ldr.w	r4, [ip]
 800030c:	f8c9 6000 	str.w	r6, [r9]
 8000310:	f8c8 7000 	str.w	r7, [r8]
 8000314:	f8cc 5000 	str.w	r5, [ip]
 8000318:	6014      	str	r4, [r2, #0]
 800031a:	f8d9 7004 	ldr.w	r7, [r9, #4]
 800031e:	f8d8 6004 	ldr.w	r6, [r8, #4]
 8000322:	6855      	ldr	r5, [r2, #4]
 8000324:	f8dc 4004 	ldr.w	r4, [ip, #4]
 8000328:	f8c9 6004 	str.w	r6, [r9, #4]
 800032c:	f8c8 7004 	str.w	r7, [r8, #4]
 8000330:	f8cc 5004 	str.w	r5, [ip, #4]
 8000334:	6054      	str	r4, [r2, #4]
 8000336:	3108      	adds	r1, #8
 8000338:	3b01      	subs	r3, #1
 800033a:	d1d5      	bne.n	80002e8 <arm_bitreversal_32_0>
 800033c:	e8bd 03f0 	ldmia.w	sp!, {r4, r5, r6, r7, r8, r9}
 8000340:	4770      	bx	lr

08000342 <arm_bitreversal_16>:
 8000342:	1c4b      	adds	r3, r1, #1
 8000344:	2b01      	cmp	r3, #1
 8000346:	bf98      	it	ls
 8000348:	4770      	bxls	lr
 800034a:	e92d 03f0 	stmdb	sp!, {r4, r5, r6, r7, r8, r9}
 800034e:	1c91      	adds	r1, r2, #2
 8000350:	089b      	lsrs	r3, r3, #2

08000352 <arm_bitreversal_16_0>:
 8000352:	f8b1 8004 	ldrh.w	r8, [r1, #4]
 8000356:	f8b1 9002 	ldrh.w	r9, [r1, #2]
 800035a:	880a      	ldrh	r2, [r1, #0]
 800035c:	f831 cc02 	ldrh.w	ip, [r1, #-2]
 8000360:	eb00 0858 	add.w	r8, r0, r8, lsr #1
 8000364:	eb00 0959 	add.w	r9, r0, r9, lsr #1
 8000368:	eb00 0252 	add.w	r2, r0, r2, lsr #1
 800036c:	eb00 0c5c 	add.w	ip, r0, ip, lsr #1
 8000370:	f8d9 7000 	ldr.w	r7, [r9]
 8000374:	f8d8 6000 	ldr.w	r6, [r8]
 8000378:	6815      	ldr	r5, [r2, #0]
 800037a:	f8dc 4000 	ldr.w	r4, [ip]
 800037e:	f8c9 6000 	str.w	r6, [r9]
 8000382:	f8c8 7000 	str.w	r7, [r8]
 8000386:	f8cc 5000 	str.w	r5, [ip]
 800038a:	6014      	str	r4, [r2, #0]
 800038c:	3108      	adds	r1, #8
 800038e:	3b01      	subs	r3, #1
 8000390:	d1df      	bne.n	8000352 <arm_bitreversal_16_0>
 8000392:	e8bd 03f0 	ldmia.w	sp!, {r4, r5, r6, r7, r8, r9}
 8000396:	4770      	bx	lr

08000398 <fir_OD_M212_VINT_DYN_201_P05_00_f32_init>:
#define SCRATCH      (state)
#define IR_TABLE     ((const float **)(state + OD_M212_SCRATCH_FLOATS))
#define PREV_TABLE   ((float       **)(state + OD_M212_SCRATCH_FLOATS + OD_M212_SEGMENTS))

    self->ir_ffts      = IR_TABLE;
    self->prev_ffts    = PREV_TABLE;
 8000398:	f242 0204 	movw	r2, #8196	@ 0x2004
    self->ir_ffts      = IR_TABLE;
 800039c:	f501 5300 	add.w	r3, r1, #8192	@ 0x2000
    self->prev_ffts    = PREV_TABLE;
 80003a0:	440a      	add	r2, r1
void fir_OD_M212_VINT_DYN_201_P05_00_f32_init(fir_t *self, float *state){
 80003a2:	b430      	push	{r4, r5}
    self->numSegments  = OD_M212_SEGMENTS;
    self->curr_fftidx  = 0;
 80003a4:	2400      	movs	r4, #0
    self->numSegments  = OD_M212_SEGMENTS;
 80003a6:	2501      	movs	r5, #1
    self->ir_ffts      = IR_TABLE;
 80003a8:	e9c0 3200 	strd	r3, r2, [r0]
    self->prev_fftidx  = 0;

    for (uint32_t i = 0; i < OD_M212_SEGMENTS; ++i) {
        IR_TABLE [i] = &_CAB_IR_FFT_ALL[i * FFT_SIZE];  /* spectrums  */
 80003ac:	4a03      	ldr	r2, [pc, #12]	@ (80003bc <fir_OD_M212_VINT_DYN_201_P05_00_f32_init+0x24>)
    self->numSegments  = OD_M212_SEGMENTS;
 80003ae:	6105      	str	r5, [r0, #16]
    self->curr_fftidx  = 0;
 80003b0:	e9c0 4402 	strd	r4, r4, [r0, #8]
        PREV_TABLE[i] = &SCRATCH      [i * FFT_SIZE];   /* overlap buf*/
    }

}
 80003b4:	bc30      	pop	{r4, r5}
        IR_TABLE [i] = &_CAB_IR_FFT_ALL[i * FFT_SIZE];  /* spectrums  */
 80003b6:	e9c3 2100 	strd	r2, r1, [r3]
}
 80003ba:	4770      	bx	lr
 80003bc:	080080e0 	.word	0x080080e0

080003c0 <cabinet_simulation_f32_process>:
*/

__attribute__((section(".dtcm"), aligned(32))) float state4[BUFFER_SIZE];


void cabinet_simulation_f32_process(cabinet_simulation_f32 *self, pipe *p){
 80003c0:	4603      	mov	r3, r0

	partitioned_fir_convolution_fft(p, self->fir1, self->state);
 80003c2:	4608      	mov	r0, r1
 80003c4:	e9d3 1200 	ldrd	r1, r2, [r3]
 80003c8:	f000 bb74 	b.w	8000ab4 <partitioned_fir_convolution_fft>

080003cc <cabinet_simulation_f32_init>:
}
void cabinet_simulation_f32_init(cabinet_simulation_f32 *self, float32_t *state, fir_t *fir){


	self->fir1 = fir;
	self->state = state;
 80003cc:	e9c0 2100 	strd	r2, r1, [r0]

}
 80003d0:	4770      	bx	lr
 80003d2:	bf00      	nop

080003d4 <convolution_reverb_f32_process>:
	self->state = state;
	self->fir1 = fir;
}


void convolution_reverb_f32_process(FX_HANDLER_t *self, pipe *p){
 80003d4:	4603      	mov	r3, r0

	partitioned_fir_convolution_fft(p, self->states[2], self->states[1]);
 80003d6:	4608      	mov	r0, r1
 80003d8:	e9d3 2103 	ldrd	r2, r1, [r3, #12]
 80003dc:	f000 bb6a 	b.w	8000ab4 <partitioned_fir_convolution_fft>

080003e0 <fx_reverb_init>:


#define NUMSEGMENTS_EMT 46U
#define NUMSEGMENTS_CAB 1U

void fx_reverb_init(FX_HANDLER_t *fx ) {   /*initialization and mem allocation for a reverb*/
 80003e0:	b510      	push	{r4, lr}

	  fx->states[0] = (float*)_static_mem_alloc(
 80003e2:	2104      	movs	r1, #4
void fx_reverb_init(FX_HANDLER_t *fx ) {   /*initialization and mem allocation for a reverb*/
 80003e4:	4604      	mov	r4, r0
	  fx->states[0] = (float*)_static_mem_alloc(
 80003e6:	4812      	ldr	r0, [pc, #72]	@ (8000430 <fx_reverb_init+0x50>)
 80003e8:	f000 fb4e 	bl	8000a88 <_static_mem_alloc>
 80003ec:	4603      	mov	r3, r0

		_Alignof(float)

		);

	  fx->states[1] = (float *)_dctm_static_mem_alloc(
 80003ee:	2104      	movs	r1, #4
 80003f0:	f44f 5080 	mov.w	r0, #4096	@ 0x1000
	  fx->states[0] = (float*)_static_mem_alloc(
 80003f4:	60a3      	str	r3, [r4, #8]
	  fx->states[1] = (float *)_dctm_static_mem_alloc(
 80003f6:	f000 fb31 	bl	8000a5c <_dctm_static_mem_alloc>
 80003fa:	4603      	mov	r3, r0

		_Alignof(float)

		);

	  fx->states[2] = (fir_t*)_static_mem_alloc(
 80003fc:	2104      	movs	r1, #4
 80003fe:	2014      	movs	r0, #20
	  fx->states[1] = (float *)_dctm_static_mem_alloc(
 8000400:	60e3      	str	r3, [r4, #12]
	  fx->states[2] = (fir_t*)_static_mem_alloc(
 8000402:	f000 fb41 	bl	8000a88 <_static_mem_alloc>
 8000406:	4603      	mov	r3, r0

		_Alignof(fir_t)

		);

	  fx->states[3] = (convolution_reverb_f32*)_static_mem_alloc(
 8000408:	2104      	movs	r1, #4
 800040a:	2024      	movs	r0, #36	@ 0x24
	  fx->states[2] = (fir_t*)_static_mem_alloc(
 800040c:	6123      	str	r3, [r4, #16]
	  fx->states[3] = (convolution_reverb_f32*)_static_mem_alloc(
 800040e:	f000 fb3b 	bl	8000a88 <_static_mem_alloc>
 8000412:	4603      	mov	r3, r0

		_Alignof(convolution_reverb_f32)

		);

	  fir_emt_140_dark_3_f32_init(fx->states[2], fx->states[0]);
 8000414:	68a1      	ldr	r1, [r4, #8]
 8000416:	6920      	ldr	r0, [r4, #16]
	  fx->states[3] = (convolution_reverb_f32*)_static_mem_alloc(
 8000418:	6163      	str	r3, [r4, #20]
	  fir_emt_140_dark_3_f32_init(fx->states[2], fx->states[0]);
 800041a:	f000 f80d 	bl	8000438 <fir_emt_140_dark_3_f32_init>

	  convolution_reverb_f32_init(fx->states[3], fx->states[1], fx->states[2]);
 800041e:	f104 000c 	add.w	r0, r4, #12

	  fx->process = convolution_reverb_f32_process;
 8000422:	4a04      	ldr	r2, [pc, #16]	@ (8000434 <fx_reverb_init+0x54>)
	  convolution_reverb_f32_init(fx->states[3], fx->states[1], fx->states[2]);
 8000424:	c80b      	ldmia	r0, {r0, r1, r3}
	self->fir1 = fir;
 8000426:	e9c3 1007 	strd	r1, r0, [r3, #28]
	  fx->process = convolution_reverb_f32_process;
 800042a:	6062      	str	r2, [r4, #4]

  }
 800042c:	bd10      	pop	{r4, pc}
 800042e:	bf00      	nop
 8000430:	0005c170 	.word	0x0005c170
 8000434:	080003d5 	.word	0x080003d5

08000438 <fir_emt_140_dark_3_f32_init>:
#include "impulse_responses.h"


void fir_emt_140_dark_3_f32_init(fir_t *self, float *state){
 8000438:	b470      	push	{r4, r5, r6}
#define SCRATCH      (state)
#define IR_TABLE     ((const float **)(state + EMT_SCRATCH_FLOATS))
#define PREV_TABLE   ((float       **)(state + EMT_SCRATCH_FLOATS + EMT_SEGMENTS))

    self->ir_ffts      = IR_TABLE;
    self->prev_ffts    = PREV_TABLE;
 800043a:	4c0e      	ldr	r4, [pc, #56]	@ (8000474 <fir_emt_140_dark_3_f32_init+0x3c>)
    self->numSegments  = EMT_SEGMENTS;
    self->curr_fftidx  = 0;
 800043c:	2500      	movs	r5, #0
 800043e:	4b0e      	ldr	r3, [pc, #56]	@ (8000478 <fir_emt_140_dark_3_f32_init+0x40>)
    self->ir_ffts      = IR_TABLE;
 8000440:	f501 26b8 	add.w	r6, r1, #376832	@ 0x5c000
    self->prev_ffts    = PREV_TABLE;
 8000444:	440c      	add	r4, r1
 8000446:	4a0d      	ldr	r2, [pc, #52]	@ (800047c <fir_emt_140_dark_3_f32_init+0x44>)
 8000448:	f503 2cb8 	add.w	ip, r3, #376832	@ 0x5c000
    self->ir_ffts      = IR_TABLE;
 800044c:	6006      	str	r6, [r0, #0]
    self->prev_ffts    = PREV_TABLE;
 800044e:	6044      	str	r4, [r0, #4]
    self->numSegments  = EMT_SEGMENTS;
 8000450:	440a      	add	r2, r1
 8000452:	242e      	movs	r4, #46	@ 0x2e
    self->curr_fftidx  = 0;
 8000454:	e9c0 5502 	strd	r5, r5, [r0, #8]
    self->numSegments  = EMT_SEGMENTS;
 8000458:	6104      	str	r4, [r0, #16]
    self->prev_fftidx  = 0;

    for (uint32_t i = 0; i < EMT_SEGMENTS; ++i) {
        IR_TABLE [i] = &_EMT_IR_FFT_ALL[i * FFT_SIZE];  /* spectrums  */
 800045a:	f842 3f04 	str.w	r3, [r2, #4]!
    for (uint32_t i = 0; i < EMT_SEGMENTS; ++i) {
 800045e:	f503 5300 	add.w	r3, r3, #8192	@ 0x2000
        PREV_TABLE[i] = &SCRATCH      [i * FFT_SIZE];   /* overlap buf*/
 8000462:	f8c2 10b8 	str.w	r1, [r2, #184]	@ 0xb8
    for (uint32_t i = 0; i < EMT_SEGMENTS; ++i) {
 8000466:	f501 5100 	add.w	r1, r1, #8192	@ 0x2000
 800046a:	4563      	cmp	r3, ip
 800046c:	d1f5      	bne.n	800045a <fir_emt_140_dark_3_f32_init+0x22>
    }

}
 800046e:	bc70      	pop	{r4, r5, r6}
 8000470:	4770      	bx	lr
 8000472:	bf00      	nop
 8000474:	0005c0b8 	.word	0x0005c0b8
 8000478:	0800a0e0 	.word	0x0800a0e0
 800047c:	0005bffc 	.word	0x0005bffc

08000480 <HAL_ADC_ConvHalfCpltCallback>:
*/
__STATIC_FORCEINLINE void SCB_InvalidateDCache_by_Addr (void *addr, int32_t dsize)
{
  #if defined (__DCACHE_PRESENT) && (__DCACHE_PRESENT == 1U)
    if ( dsize > 0 ) { 
       int32_t op_size = dsize + (((uint32_t)addr) & (__SCB_DCACHE_LINE_SIZE - 1U));
 8000480:	4b0c      	ldr	r3, [pc, #48]	@ (80004b4 <HAL_ADC_ConvHalfCpltCallback+0x34>)
 8000482:	f003 021f 	and.w	r2, r3, #31
  \details Acts as a special kind of Data Memory Barrier.
           It completes when all explicit memory accesses before this instruction complete.
 */
__STATIC_FORCEINLINE void __DSB(void)
{
  __ASM volatile ("dsb 0xF":::"memory");
 8000486:	f3bf 8f4f 	dsb	sy
 800048a:	f503 6100 	add.w	r1, r3, #2048	@ 0x800
      uint32_t op_addr = (uint32_t)addr /* & ~(__SCB_DCACHE_LINE_SIZE - 1U) */;
    
      __DSB();

      do {
        SCB->DCIMVAC = op_addr;             /* register accepts only 32byte aligned values, only bits 31..5 are valid */
 800048e:	480a      	ldr	r0, [pc, #40]	@ (80004b8 <HAL_ADC_ConvHalfCpltCallback+0x38>)
        op_addr += __SCB_DCACHE_LINE_SIZE;
        op_size -= __SCB_DCACHE_LINE_SIZE;
      } while ( op_size > 0 );
 8000490:	4411      	add	r1, r2
        SCB->DCIMVAC = op_addr;             /* register accepts only 32byte aligned values, only bits 31..5 are valid */
 8000492:	f8c0 325c 	str.w	r3, [r0, #604]	@ 0x25c
        op_addr += __SCB_DCACHE_LINE_SIZE;
 8000496:	3320      	adds	r3, #32
      } while ( op_size > 0 );
 8000498:	1aca      	subs	r2, r1, r3
 800049a:	2a00      	cmp	r2, #0
 800049c:	dcf9      	bgt.n	8000492 <HAL_ADC_ConvHalfCpltCallback+0x12>
 800049e:	f3bf 8f4f 	dsb	sy
  __ASM volatile ("isb 0xF":::"memory");
 80004a2:	f3bf 8f6f 	isb	sy
void HAL_ADC_ConvHalfCpltCallback(ADC_HandleTypeDef *hadc)
{
    // DMA has written into adcInput[0…BUFFER_SIZE-1]
    SCB_InvalidateDCache_by_Addr((uint32_t*)adcInput,
                                 BUFFER_SIZE * sizeof(adcInput[0]));
    apipe.adcHalfComplete(&apipe, adcInput);
 80004a6:	4805      	ldr	r0, [pc, #20]	@ (80004bc <HAL_ADC_ConvHalfCpltCallback+0x3c>)
 80004a8:	4902      	ldr	r1, [pc, #8]	@ (80004b4 <HAL_ADC_ConvHalfCpltCallback+0x34>)
 80004aa:	6943      	ldr	r3, [r0, #20]
 80004ac:	f5a0 4070 	sub.w	r0, r0, #61440	@ 0xf000
 80004b0:	4718      	bx	r3
 80004b2:	bf00      	nop
 80004b4:	24005120 	.word	0x24005120
 80004b8:	e000ed00 	.word	0xe000ed00
 80004bc:	24015138 	.word	0x24015138

080004c0 <HAL_ADC_ConvCpltCallback>:
       int32_t op_size = dsize + (((uint32_t)addr) & (__SCB_DCACHE_LINE_SIZE - 1U));
 80004c0:	490d      	ldr	r1, [pc, #52]	@ (80004f8 <HAL_ADC_ConvCpltCallback+0x38>)
 80004c2:	f001 021f 	and.w	r2, r1, #31
 80004c6:	f502 6300 	add.w	r3, r2, #2048	@ 0x800
  __ASM volatile ("dsb 0xF":::"memory");
 80004ca:	f3bf 8f4f 	dsb	sy
 80004ce:	f501 6100 	add.w	r1, r1, #2048	@ 0x800
        SCB->DCIMVAC = op_addr;             /* register accepts only 32byte aligned values, only bits 31..5 are valid */
 80004d2:	480a      	ldr	r0, [pc, #40]	@ (80004fc <HAL_ADC_ConvCpltCallback+0x3c>)
 80004d4:	4411      	add	r1, r2
 80004d6:	1aca      	subs	r2, r1, r3
        op_size -= __SCB_DCACHE_LINE_SIZE;
 80004d8:	3b20      	subs	r3, #32
      } while ( op_size > 0 );
 80004da:	2b00      	cmp	r3, #0
        SCB->DCIMVAC = op_addr;             /* register accepts only 32byte aligned values, only bits 31..5 are valid */
 80004dc:	f8c0 225c 	str.w	r2, [r0, #604]	@ 0x25c
      } while ( op_size > 0 );
 80004e0:	dcf9      	bgt.n	80004d6 <HAL_ADC_ConvCpltCallback+0x16>
 80004e2:	f3bf 8f4f 	dsb	sy
  __ASM volatile ("isb 0xF":::"memory");
 80004e6:	f3bf 8f6f 	isb	sy
void HAL_ADC_ConvCpltCallback(ADC_HandleTypeDef *hadc)
{
    // DMA has written into adcInput[BUFFER_SIZE…2*BUFFER_SIZE-1]
    SCB_InvalidateDCache_by_Addr((uint32_t*)&adcInput[BUFFER_SIZE],
                                 BUFFER_SIZE * sizeof(adcInput[0]));
    apipe.adcComplete(&apipe, adcInput);
 80004ea:	4805      	ldr	r0, [pc, #20]	@ (8000500 <HAL_ADC_ConvCpltCallback+0x40>)
 80004ec:	4905      	ldr	r1, [pc, #20]	@ (8000504 <HAL_ADC_ConvCpltCallback+0x44>)
 80004ee:	6983      	ldr	r3, [r0, #24]
 80004f0:	f5a0 4070 	sub.w	r0, r0, #61440	@ 0xf000
 80004f4:	4718      	bx	r3
 80004f6:	bf00      	nop
 80004f8:	24005920 	.word	0x24005920
 80004fc:	e000ed00 	.word	0xe000ed00
 8000500:	24015138 	.word	0x24015138
 8000504:	24005120 	.word	0x24005120

08000508 <SystemClock_Config>:
/**
  * @brief System Clock Configuration
  * @retval None
  */
void SystemClock_Config(void)
{
 8000508:	b530      	push	{r4, r5, lr}
 800050a:	b09f      	sub	sp, #124	@ 0x7c
  RCC_OscInitTypeDef RCC_OscInitStruct = {0};
 800050c:	224c      	movs	r2, #76	@ 0x4c
 800050e:	2100      	movs	r1, #0
 8000510:	a80a      	add	r0, sp, #40	@ 0x28
 8000512:	f007 fbe5 	bl	8007ce0 <memset>
  RCC_ClkInitTypeDef RCC_ClkInitStruct = {0};
 8000516:	2220      	movs	r2, #32
 8000518:	2100      	movs	r1, #0
 800051a:	a802      	add	r0, sp, #8
 800051c:	f007 fbe0 	bl	8007ce0 <memset>

  /** Supply configuration update enable
  */
  HAL_PWREx_ConfigSupply(PWR_LDO_SUPPLY);
 8000520:	2002      	movs	r0, #2
 8000522:	f003 fe47 	bl	80041b4 <HAL_PWREx_ConfigSupply>

  /** Configure the main internal regulator output voltage
  */
  __HAL_PWR_VOLTAGESCALING_CONFIG(PWR_REGULATOR_VOLTAGE_SCALE0);
 8000526:	4a24      	ldr	r2, [pc, #144]	@ (80005b8 <SystemClock_Config+0xb0>)
 8000528:	2100      	movs	r1, #0
 800052a:	4b24      	ldr	r3, [pc, #144]	@ (80005bc <SystemClock_Config+0xb4>)
 800052c:	9101      	str	r1, [sp, #4]
 800052e:	6991      	ldr	r1, [r2, #24]
 8000530:	f441 4140 	orr.w	r1, r1, #49152	@ 0xc000
 8000534:	6191      	str	r1, [r2, #24]
 8000536:	6991      	ldr	r1, [r2, #24]
 8000538:	f401 4140 	and.w	r1, r1, #49152	@ 0xc000
 800053c:	9101      	str	r1, [sp, #4]
 800053e:	6ad9      	ldr	r1, [r3, #44]	@ 0x2c
 8000540:	f041 0101 	orr.w	r1, r1, #1
 8000544:	62d9      	str	r1, [r3, #44]	@ 0x2c
 8000546:	6adb      	ldr	r3, [r3, #44]	@ 0x2c
 8000548:	f003 0301 	and.w	r3, r3, #1
 800054c:	9301      	str	r3, [sp, #4]
 800054e:	9b01      	ldr	r3, [sp, #4]

  while(!__HAL_PWR_GET_FLAG(PWR_FLAG_VOSRDY)) {}
 8000550:	6993      	ldr	r3, [r2, #24]
 8000552:	049b      	lsls	r3, r3, #18
 8000554:	d5fc      	bpl.n	8000550 <SystemClock_Config+0x48>

  /** Initializes the RCC Oscillators according to the specified parameters
  * in the RCC_OscInitTypeDef structure.
  */
  RCC_OscInitStruct.OscillatorType = RCC_OSCILLATORTYPE_HSI;
 8000556:	2302      	movs	r3, #2
  RCC_OscInitStruct.HSIState = RCC_HSI_DIV1;
  RCC_OscInitStruct.HSICalibrationValue = RCC_HSICALIBRATION_DEFAULT;
  RCC_OscInitStruct.PLL.PLLState = RCC_PLL_ON;
  RCC_OscInitStruct.PLL.PLLSource = RCC_PLLSOURCE_HSI;
 8000558:	2200      	movs	r2, #0
  RCC_OscInitStruct.HSIState = RCC_HSI_DIV1;
 800055a:	2101      	movs	r1, #1
 800055c:	2440      	movs	r4, #64	@ 0x40
  RCC_OscInitStruct.OscillatorType = RCC_OSCILLATORTYPE_HSI;
 800055e:	930a      	str	r3, [sp, #40]	@ 0x28
  RCC_OscInitStruct.PLL.PLLM = 4;
  RCC_OscInitStruct.PLL.PLLN = 60;
 8000560:	2504      	movs	r5, #4
  RCC_OscInitStruct.PLL.PLLState = RCC_PLL_ON;
 8000562:	9313      	str	r3, [sp, #76]	@ 0x4c
  RCC_OscInitStruct.PLL.PLLQ = 2;
  RCC_OscInitStruct.PLL.PLLR = 2;
  RCC_OscInitStruct.PLL.PLLRGE = RCC_PLL1VCIRANGE_3;
  RCC_OscInitStruct.PLL.PLLVCOSEL = RCC_PLL1VCOWIDE;
  RCC_OscInitStruct.PLL.PLLFRACN = 0;
  if (HAL_RCC_OscConfig(&RCC_OscInitStruct) != HAL_OK)
 8000564:	a80a      	add	r0, sp, #40	@ 0x28
  RCC_OscInitStruct.PLL.PLLP = 2;
 8000566:	9317      	str	r3, [sp, #92]	@ 0x5c
  RCC_OscInitStruct.HSIState = RCC_HSI_DIV1;
 8000568:	910d      	str	r1, [sp, #52]	@ 0x34
  RCC_OscInitStruct.PLL.PLLSource = RCC_PLLSOURCE_HSI;
 800056a:	9214      	str	r2, [sp, #80]	@ 0x50
  RCC_OscInitStruct.HSIState = RCC_HSI_DIV1;
 800056c:	940e      	str	r4, [sp, #56]	@ 0x38
  RCC_OscInitStruct.PLL.PLLR = 2;
 800056e:	e9cd 3318 	strd	r3, r3, [sp, #96]	@ 0x60
  RCC_OscInitStruct.PLL.PLLRGE = RCC_PLL1VCIRANGE_3;
 8000572:	230c      	movs	r3, #12
 8000574:	931a      	str	r3, [sp, #104]	@ 0x68
  RCC_OscInitStruct.PLL.PLLN = 60;
 8000576:	233c      	movs	r3, #60	@ 0x3c
  RCC_OscInitStruct.PLL.PLLVCOSEL = RCC_PLL1VCOWIDE;
 8000578:	e9cd 221b 	strd	r2, r2, [sp, #108]	@ 0x6c
  RCC_OscInitStruct.PLL.PLLN = 60;
 800057c:	e9cd 5315 	strd	r5, r3, [sp, #84]	@ 0x54
  if (HAL_RCC_OscConfig(&RCC_OscInitStruct) != HAL_OK)
 8000580:	f003 feae 	bl	80042e0 <HAL_RCC_OscConfig>
 8000584:	4603      	mov	r3, r0
 8000586:	b108      	cbz	r0, 800058c <SystemClock_Config+0x84>
  __ASM volatile ("cpsid i" : : : "memory");
 8000588:	b672      	cpsid	i
void Error_Handler(void)
{
  /* USER CODE BEGIN Error_Handler_Debug */
  /* User can add his own implementation to report the HAL error return state */
  __disable_irq();
  while (1)
 800058a:	e7fe      	b.n	800058a <SystemClock_Config+0x82>
  RCC_ClkInitStruct.ClockType = RCC_CLOCKTYPE_HCLK|RCC_CLOCKTYPE_SYSCLK
 800058c:	223f      	movs	r2, #63	@ 0x3f
  RCC_ClkInitStruct.SYSCLKDivider = RCC_SYSCLK_DIV1;
 800058e:	9304      	str	r3, [sp, #16]
  RCC_ClkInitStruct.AHBCLKDivider = RCC_HCLK_DIV2;
 8000590:	2308      	movs	r3, #8
  if (HAL_RCC_ClockConfig(&RCC_ClkInitStruct, FLASH_LATENCY_4) != HAL_OK)
 8000592:	4629      	mov	r1, r5
  RCC_ClkInitStruct.ClockType = RCC_CLOCKTYPE_HCLK|RCC_CLOCKTYPE_SYSCLK
 8000594:	9202      	str	r2, [sp, #8]
  RCC_ClkInitStruct.SYSCLKSource = RCC_SYSCLKSOURCE_PLLCLK;
 8000596:	2203      	movs	r2, #3
  if (HAL_RCC_ClockConfig(&RCC_ClkInitStruct, FLASH_LATENCY_4) != HAL_OK)
 8000598:	a802      	add	r0, sp, #8
  RCC_ClkInitStruct.APB4CLKDivider = RCC_APB4_DIV2;
 800059a:	9409      	str	r4, [sp, #36]	@ 0x24
  RCC_ClkInitStruct.SYSCLKSource = RCC_SYSCLKSOURCE_PLLCLK;
 800059c:	9203      	str	r2, [sp, #12]
  RCC_ClkInitStruct.AHBCLKDivider = RCC_HCLK_DIV2;
 800059e:	e9cd 3405 	strd	r3, r4, [sp, #20]
  RCC_ClkInitStruct.APB2CLKDivider = RCC_APB2_DIV2;
 80005a2:	f44f 6380 	mov.w	r3, #1024	@ 0x400
 80005a6:	e9cd 4307 	strd	r4, r3, [sp, #28]
  if (HAL_RCC_ClockConfig(&RCC_ClkInitStruct, FLASH_LATENCY_4) != HAL_OK)
 80005aa:	f004 fa15 	bl	80049d8 <HAL_RCC_ClockConfig>
 80005ae:	b108      	cbz	r0, 80005b4 <SystemClock_Config+0xac>
 80005b0:	b672      	cpsid	i
  while (1)
 80005b2:	e7fe      	b.n	80005b2 <SystemClock_Config+0xaa>
}
 80005b4:	b01f      	add	sp, #124	@ 0x7c
 80005b6:	bd30      	pop	{r4, r5, pc}
 80005b8:	58024800 	.word	0x58024800
 80005bc:	58000400 	.word	0x58000400

080005c0 <PeriphCommonClock_Config>:
{
 80005c0:	b500      	push	{lr}
 80005c2:	b0b1      	sub	sp, #196	@ 0xc4
  RCC_PeriphCLKInitTypeDef PeriphClkInitStruct = {0};
 80005c4:	22b8      	movs	r2, #184	@ 0xb8
 80005c6:	2100      	movs	r1, #0
 80005c8:	a802      	add	r0, sp, #8
 80005ca:	f007 fb89 	bl	8007ce0 <memset>
  PeriphClkInitStruct.PeriphClockSelection = RCC_PERIPHCLK_CKPER;
 80005ce:	f04f 4200 	mov.w	r2, #2147483648	@ 0x80000000
 80005d2:	2300      	movs	r3, #0
  if (HAL_RCCEx_PeriphCLKConfig(&PeriphClkInitStruct) != HAL_OK)
 80005d4:	4668      	mov	r0, sp
  PeriphClkInitStruct.PeriphClockSelection = RCC_PERIPHCLK_CKPER;
 80005d6:	e9cd 2300 	strd	r2, r3, [sp]
  if (HAL_RCCEx_PeriphCLKConfig(&PeriphClkInitStruct) != HAL_OK)
 80005da:	f004 fc8f 	bl	8004efc <HAL_RCCEx_PeriphCLKConfig>
 80005de:	b108      	cbz	r0, 80005e4 <PeriphCommonClock_Config+0x24>
 80005e0:	b672      	cpsid	i
  while (1)
 80005e2:	e7fe      	b.n	80005e2 <PeriphCommonClock_Config+0x22>
}
 80005e4:	b031      	add	sp, #196	@ 0xc4
 80005e6:	f85d fb04 	ldr.w	pc, [sp], #4
 80005ea:	bf00      	nop

080005ec <main>:
  MPU_Region_InitTypeDef MPU_InitStruct = {0};
 80005ec:	2400      	movs	r4, #0
  MPU_InitStruct.Enable = MPU_REGION_ENABLE;
 80005ee:	2601      	movs	r6, #1
  __HAL_RCC_GPIOA_CLK_ENABLE();
 80005f0:	4d7f      	ldr	r5, [pc, #508]	@ (80007f0 <main+0x204>)
  GPIO_InitStruct.Pin   = GPIO_PIN_13;
 80005f2:	f44f 5800 	mov.w	r8, #8192	@ 0x2000
{
 80005f6:	e92d 4880 	stmdb	sp!, {r7, fp, lr}
 80005fa:	b093      	sub	sp, #76	@ 0x4c
  GPIO_InitStruct.Pin   = GPIO_PIN_3;
 80005fc:	2708      	movs	r7, #8
  MPU_Region_InitTypeDef MPU_InitStruct = {0};
 80005fe:	e9cd 4409 	strd	r4, r4, [sp, #36]	@ 0x24
 8000602:	e9cd 440b 	strd	r4, r4, [sp, #44]	@ 0x2c
  HAL_MPU_Disable();
 8000606:	f002 f90d 	bl	8002824 <HAL_MPU_Disable>
  MPU_InitStruct.Size = MPU_REGION_SIZE_4GB;
 800060a:	f248 721f 	movw	r2, #34591	@ 0x871f
 800060e:	f240 1301 	movw	r3, #257	@ 0x101
  HAL_MPU_ConfigRegion(&MPU_InitStruct);
 8000612:	a809      	add	r0, sp, #36	@ 0x24
  MPU_InitStruct.Enable = MPU_REGION_ENABLE;
 8000614:	f8ad 6024 	strh.w	r6, [sp, #36]	@ 0x24
  MPU_InitStruct.Size = MPU_REGION_SIZE_4GB;
 8000618:	930c      	str	r3, [sp, #48]	@ 0x30
 800061a:	e9cd 420a 	strd	r4, r2, [sp, #40]	@ 0x28
  HAL_MPU_ConfigRegion(&MPU_InitStruct);
 800061e:	f002 f91f 	bl	8002860 <HAL_MPU_ConfigRegion>
  HAL_MPU_Enable(MPU_PRIVILEGED_DEFAULT);
 8000622:	2004      	movs	r0, #4
 8000624:	f002 f90c 	bl	8002840 <HAL_MPU_Enable>
  HAL_Init();
 8000628:	f001 f912 	bl	8001850 <HAL_Init>
  SystemClock_Config();
 800062c:	f7ff ff6c 	bl	8000508 <SystemClock_Config>
  PeriphCommonClock_Config();
 8000630:	f7ff ffc6 	bl	80005c0 <PeriphCommonClock_Config>
  __HAL_RCC_GPIOA_CLK_ENABLE();
 8000634:	f8d5 30e0 	ldr.w	r3, [r5, #224]	@ 0xe0
  HAL_GPIO_Init(GPIOC, &GPIO_InitStruct);
 8000638:	a909      	add	r1, sp, #36	@ 0x24
 800063a:	486e      	ldr	r0, [pc, #440]	@ (80007f4 <main+0x208>)
  __HAL_RCC_GPIOA_CLK_ENABLE();
 800063c:	4333      	orrs	r3, r6
 800063e:	f8c5 30e0 	str.w	r3, [r5, #224]	@ 0xe0
 8000642:	f8d5 30e0 	ldr.w	r3, [r5, #224]	@ 0xe0
 8000646:	4033      	ands	r3, r6
 8000648:	9304      	str	r3, [sp, #16]
 800064a:	9b04      	ldr	r3, [sp, #16]
  __HAL_RCC_GPIOC_CLK_ENABLE();
 800064c:	f8d5 30e0 	ldr.w	r3, [r5, #224]	@ 0xe0
 8000650:	f043 0304 	orr.w	r3, r3, #4
 8000654:	f8c5 30e0 	str.w	r3, [r5, #224]	@ 0xe0
 8000658:	f8d5 30e0 	ldr.w	r3, [r5, #224]	@ 0xe0
  GPIO_InitStruct.Pin   = GPIO_PIN_3;
 800065c:	9709      	str	r7, [sp, #36]	@ 0x24
  __HAL_RCC_GPIOC_CLK_ENABLE();
 800065e:	f003 0304 	and.w	r3, r3, #4
 8000662:	9305      	str	r3, [sp, #20]
 8000664:	9b05      	ldr	r3, [sp, #20]
  GPIO_InitStruct.Mode  = GPIO_MODE_OUTPUT_PP;
 8000666:	e9cd 640a 	strd	r6, r4, [sp, #40]	@ 0x28
  GPIO_InitTypeDef GPIO_InitStruct = {0};
 800066a:	e9cd 440c 	strd	r4, r4, [sp, #48]	@ 0x30
  HAL_GPIO_Init(GPIOC, &GPIO_InitStruct);
 800066e:	f003 fb97 	bl	8003da0 <HAL_GPIO_Init>
  HAL_GPIO_WritePin(GPIOC, GPIO_PIN_3, GPIO_PIN_SET);   // set high
 8000672:	4632      	mov	r2, r6
 8000674:	4639      	mov	r1, r7
 8000676:	485f      	ldr	r0, [pc, #380]	@ (80007f4 <main+0x208>)
 8000678:	f003 fd98 	bl	80041ac <HAL_GPIO_WritePin>
  HAL_GPIO_Init(GPIOC, &GPIO_InitStruct);
 800067c:	a909      	add	r1, sp, #36	@ 0x24
 800067e:	485d      	ldr	r0, [pc, #372]	@ (80007f4 <main+0x208>)
  GPIO_InitStruct.Speed = GPIO_SPEED_FREQ_LOW;
 8000680:	940c      	str	r4, [sp, #48]	@ 0x30
  GPIO_InitStruct.Pin   = GPIO_PIN_13;
 8000682:	f8cd 8024 	str.w	r8, [sp, #36]	@ 0x24
  GPIO_InitStruct.Pull  = GPIO_NOPULL;
 8000686:	e9cd 640a 	strd	r6, r4, [sp, #40]	@ 0x28
  HAL_GPIO_Init(GPIOC, &GPIO_InitStruct);
 800068a:	f003 fb89 	bl	8003da0 <HAL_GPIO_Init>
  HAL_GPIO_WritePin(GPIOC, GPIO_PIN_13, GPIO_PIN_SET);   // set high
 800068e:	4632      	mov	r2, r6
 8000690:	4641      	mov	r1, r8
 8000692:	4858      	ldr	r0, [pc, #352]	@ (80007f4 <main+0x208>)
 8000694:	f003 fd8a 	bl	80041ac <HAL_GPIO_WritePin>
  __HAL_RCC_DMA1_CLK_ENABLE();
 8000698:	f8d5 30d8 	ldr.w	r3, [r5, #216]	@ 0xd8
  HAL_NVIC_SetPriority(DMA1_Stream0_IRQn, 0, 0);
 800069c:	4622      	mov	r2, r4
 800069e:	4621      	mov	r1, r4
  __HAL_RCC_DMA1_CLK_ENABLE();
 80006a0:	4333      	orrs	r3, r6
  HAL_NVIC_SetPriority(DMA1_Stream0_IRQn, 0, 0);
 80006a2:	200b      	movs	r0, #11
  __HAL_RCC_DMA1_CLK_ENABLE();
 80006a4:	f8c5 30d8 	str.w	r3, [r5, #216]	@ 0xd8
 80006a8:	f8d5 30d8 	ldr.w	r3, [r5, #216]	@ 0xd8
  hadc1.Instance = ADC1;
 80006ac:	4d52      	ldr	r5, [pc, #328]	@ (80007f8 <main+0x20c>)
  __HAL_RCC_DMA1_CLK_ENABLE();
 80006ae:	4033      	ands	r3, r6
 80006b0:	9303      	str	r3, [sp, #12]
 80006b2:	9b03      	ldr	r3, [sp, #12]
  HAL_NVIC_SetPriority(DMA1_Stream0_IRQn, 0, 0);
 80006b4:	f002 f856 	bl	8002764 <HAL_NVIC_SetPriority>
  HAL_NVIC_EnableIRQ(DMA1_Stream0_IRQn);
 80006b8:	200b      	movs	r0, #11
 80006ba:	f002 f88f 	bl	80027dc <HAL_NVIC_EnableIRQ>
  HAL_NVIC_SetPriority(DMA1_Stream1_IRQn, 0, 0);
 80006be:	4622      	mov	r2, r4
 80006c0:	4621      	mov	r1, r4
 80006c2:	200c      	movs	r0, #12
 80006c4:	f002 f84e 	bl	8002764 <HAL_NVIC_SetPriority>
  HAL_NVIC_EnableIRQ(DMA1_Stream1_IRQn);
 80006c8:	200c      	movs	r0, #12
 80006ca:	f002 f887 	bl	80027dc <HAL_NVIC_EnableIRQ>
  hadc1.Init.ClockPrescaler = ADC_CLOCK_ASYNC_DIV2;
 80006ce:	f44f 2380 	mov.w	r3, #262144	@ 0x40000
  hadc1.Init.EOCSelection = ADC_EOC_SEQ_CONV;
 80006d2:	612f      	str	r7, [r5, #16]
  hadc1.Init.ExternalTrigConvEdge = ADC_EXTERNALTRIGCONVEDGE_RISING;
 80006d4:	f44f 6c9c 	mov.w	ip, #1248	@ 0x4e0
  hadc1.Init.ClockPrescaler = ADC_CLOCK_ASYNC_DIV2;
 80006d8:	4f48      	ldr	r7, [pc, #288]	@ (80007fc <main+0x210>)
  if (HAL_ADC_Init(&hadc1) != HAL_OK)
 80006da:	4628      	mov	r0, r5
  ADC_MultiModeTypeDef multimode = {0};
 80006dc:	9406      	str	r4, [sp, #24]
  ADC_ChannelConfTypeDef sConfig = {0};
 80006de:	940f      	str	r4, [sp, #60]	@ 0x3c
  hadc1.Init.LowPowerAutoWait = DISABLE;
 80006e0:	82ac      	strh	r4, [r5, #20]
  hadc1.Init.NbrOfConversion = 1;
 80006e2:	61ae      	str	r6, [r5, #24]
  hadc1.Init.DiscontinuousConvMode = DISABLE;
 80006e4:	772c      	strb	r4, [r5, #28]
  hadc1.Init.OversamplingMode = DISABLE;
 80006e6:	f885 4038 	strb.w	r4, [r5, #56]	@ 0x38
  hadc1.Init.Oversampling.Ratio = 1;
 80006ea:	63ee      	str	r6, [r5, #60]	@ 0x3c
  hadc1.Init.ClockPrescaler = ADC_CLOCK_ASYNC_DIV2;
 80006ec:	e9c5 7300 	strd	r7, r3, [r5]
  hadc1.Init.ExternalTrigConvEdge = ADC_EXTERNALTRIGCONVEDGE_RISING;
 80006f0:	f44f 6380 	mov.w	r3, #1024	@ 0x400
 80006f4:	e9c5 c309 	strd	ip, r3, [r5, #36]	@ 0x24
  hadc1.Init.ConversionDataManagement = ADC_CONVERSIONDATA_DMA_CIRCULAR;
 80006f8:	2303      	movs	r3, #3
  ADC_ChannelConfTypeDef sConfig = {0};
 80006fa:	e9cd 4409 	strd	r4, r4, [sp, #36]	@ 0x24
 80006fe:	e9cd 440b 	strd	r4, r4, [sp, #44]	@ 0x2c
 8000702:	e9cd 440d 	strd	r4, r4, [sp, #52]	@ 0x34
  ADC_MultiModeTypeDef multimode = {0};
 8000706:	e9cd 4407 	strd	r4, r4, [sp, #28]
  hadc1.Init.ScanConvMode = ADC_SCAN_DISABLE;
 800070a:	e9c5 4402 	strd	r4, r4, [r5, #8]
  hadc1.Init.LeftBitShift = ADC_LEFTBITSHIFT_NONE;
 800070e:	e9c5 440c 	strd	r4, r4, [r5, #48]	@ 0x30
  hadc1.Init.ConversionDataManagement = ADC_CONVERSIONDATA_DMA_CIRCULAR;
 8000712:	62eb      	str	r3, [r5, #44]	@ 0x2c
  if (HAL_ADC_Init(&hadc1) != HAL_OK)
 8000714:	f001 fe4a 	bl	80023ac <HAL_ADC_Init>
 8000718:	b108      	cbz	r0, 800071e <main+0x132>
 800071a:	b672      	cpsid	i
  while (1)
 800071c:	e7fe      	b.n	800071c <main+0x130>
  multimode.Mode = ADC_MODE_INDEPENDENT;
 800071e:	9006      	str	r0, [sp, #24]
  if (HAL_ADCEx_MultiModeConfigChannel(&hadc1, &multimode) != HAL_OK)
 8000720:	a906      	add	r1, sp, #24
 8000722:	4628      	mov	r0, r5
 8000724:	f001 ffaa 	bl	800267c <HAL_ADCEx_MultiModeConfigChannel>
 8000728:	4603      	mov	r3, r0
 800072a:	b108      	cbz	r0, 8000730 <main+0x144>
 800072c:	b672      	cpsid	i
  while (1)
 800072e:	e7fe      	b.n	800072e <main+0x142>
  sConfig.Rank = ADC_REGULAR_RANK_1;
 8000730:	4c33      	ldr	r4, [pc, #204]	@ (8000800 <main+0x214>)
  if (HAL_ADC_ConfigChannel(&hadc1, &sConfig) != HAL_OK)
 8000732:	4628      	mov	r0, r5
  sConfig.Offset = 0;
 8000734:	930e      	str	r3, [sp, #56]	@ 0x38
  sConfig.SingleDiff = ADC_SINGLE_ENDED;
 8000736:	2505      	movs	r5, #5
  sConfig.OffsetSignedSaturation = DISABLE;
 8000738:	f88d 303d 	strb.w	r3, [sp, #61]	@ 0x3d
  sConfig.Rank = ADC_REGULAR_RANK_1;
 800073c:	2306      	movs	r3, #6
  if (HAL_ADC_ConfigChannel(&hadc1, &sConfig) != HAL_OK)
 800073e:	a909      	add	r1, sp, #36	@ 0x24
  sConfig.Rank = ADC_REGULAR_RANK_1;
 8000740:	e9cd 4309 	strd	r4, r3, [sp, #36]	@ 0x24
  sConfig.SingleDiff = ADC_SINGLE_ENDED;
 8000744:	f240 73ff 	movw	r3, #2047	@ 0x7ff
 8000748:	e9cd 530b 	strd	r5, r3, [sp, #44]	@ 0x2c
  sConfig.OffsetNumber = ADC_OFFSET_NONE;
 800074c:	2304      	movs	r3, #4
 800074e:	930d      	str	r3, [sp, #52]	@ 0x34
  if (HAL_ADC_ConfigChannel(&hadc1, &sConfig) != HAL_OK)
 8000750:	f001 fa50 	bl	8001bf4 <HAL_ADC_ConfigChannel>
 8000754:	b108      	cbz	r0, 800075a <main+0x16e>
 8000756:	b672      	cpsid	i
  while (1)
 8000758:	e7fe      	b.n	8000758 <main+0x16c>
  htim8.Instance = TIM8;
 800075a:	4c2a      	ldr	r4, [pc, #168]	@ (8000804 <main+0x218>)
  htim8.Init.Prescaler = 50-1;
 800075c:	2331      	movs	r3, #49	@ 0x31
 800075e:	4a2a      	ldr	r2, [pc, #168]	@ (8000808 <main+0x21c>)
  TIM_MasterConfigTypeDef sMasterConfig = {0};
 8000760:	9008      	str	r0, [sp, #32]
  htim8.Init.CounterMode = TIM_COUNTERMODE_UP;
 8000762:	60a0      	str	r0, [r4, #8]
  htim8.Init.AutoReloadPreload = TIM_AUTORELOAD_PRELOAD_DISABLE;
 8000764:	61a0      	str	r0, [r4, #24]
  htim8.Init.Prescaler = 50-1;
 8000766:	e9c4 2300 	strd	r2, r3, [r4]
  htim8.Init.Period = 100-1;
 800076a:	2363      	movs	r3, #99	@ 0x63
  TIM_ClockConfigTypeDef sClockSourceConfig = {0};
 800076c:	e9cd 0009 	strd	r0, r0, [sp, #36]	@ 0x24
 8000770:	e9cd 000b 	strd	r0, r0, [sp, #44]	@ 0x2c
  TIM_MasterConfigTypeDef sMasterConfig = {0};
 8000774:	e9cd 0006 	strd	r0, r0, [sp, #24]
  htim8.Init.RepetitionCounter = 0;
 8000778:	e9c4 0004 	strd	r0, r0, [r4, #16]
  if (HAL_TIM_Base_Init(&htim8) != HAL_OK)
 800077c:	4620      	mov	r0, r4
  htim8.Init.Period = 100-1;
 800077e:	60e3      	str	r3, [r4, #12]
  if (HAL_TIM_Base_Init(&htim8) != HAL_OK)
 8000780:	f005 fe6e 	bl	8006460 <HAL_TIM_Base_Init>
 8000784:	b108      	cbz	r0, 800078a <main+0x19e>
 8000786:	b672      	cpsid	i
  while (1)
 8000788:	e7fe      	b.n	8000788 <main+0x19c>
  sClockSourceConfig.ClockSource = TIM_CLOCKSOURCE_INTERNAL;
 800078a:	f44f 5380 	mov.w	r3, #4096	@ 0x1000
  if (HAL_TIM_ConfigClockSource(&htim8, &sClockSourceConfig) != HAL_OK)
 800078e:	a909      	add	r1, sp, #36	@ 0x24
 8000790:	4620      	mov	r0, r4
  sClockSourceConfig.ClockSource = TIM_CLOCKSOURCE_INTERNAL;
 8000792:	9309      	str	r3, [sp, #36]	@ 0x24
  if (HAL_TIM_ConfigClockSource(&htim8, &sClockSourceConfig) != HAL_OK)
 8000794:	f005 ff58 	bl	8006648 <HAL_TIM_ConfigClockSource>
 8000798:	4603      	mov	r3, r0
 800079a:	b108      	cbz	r0, 80007a0 <main+0x1b4>
 800079c:	b672      	cpsid	i
  while (1)
 800079e:	e7fe      	b.n	800079e <main+0x1b2>
  sMasterConfig.MasterSlaveMode = TIM_MASTERSLAVEMODE_DISABLE;
 80007a0:	e9cd 3307 	strd	r3, r3, [sp, #28]
  sMasterConfig.MasterOutputTrigger = TIM_TRGO_UPDATE;
 80007a4:	2320      	movs	r3, #32
  if (HAL_TIMEx_MasterConfigSynchronization(&htim8, &sMasterConfig) != HAL_OK)
 80007a6:	a906      	add	r1, sp, #24
 80007a8:	4620      	mov	r0, r4
  sMasterConfig.MasterOutputTrigger = TIM_TRGO_UPDATE;
 80007aa:	9306      	str	r3, [sp, #24]
  if (HAL_TIMEx_MasterConfigSynchronization(&htim8, &sMasterConfig) != HAL_OK)
 80007ac:	f006 f814 	bl	80067d8 <HAL_TIMEx_MasterConfigSynchronization>
 80007b0:	4601      	mov	r1, r0
 80007b2:	b108      	cbz	r0, 80007b8 <main+0x1cc>
 80007b4:	b672      	cpsid	i
  while (1)
 80007b6:	e7fe      	b.n	80007b6 <main+0x1ca>
  DAC_ChannelConfTypeDef sConfig = {0};
 80007b8:	2224      	movs	r2, #36	@ 0x24
  hdac1.Instance = DAC1;
 80007ba:	4c14      	ldr	r4, [pc, #80]	@ (800080c <main+0x220>)
  DAC_ChannelConfTypeDef sConfig = {0};
 80007bc:	eb0d 0002 	add.w	r0, sp, r2
 80007c0:	f007 fa8e 	bl	8007ce0 <memset>
  hdac1.Instance = DAC1;
 80007c4:	4b12      	ldr	r3, [pc, #72]	@ (8000810 <main+0x224>)
  if (HAL_DAC_Init(&hdac1) != HAL_OK)
 80007c6:	4620      	mov	r0, r4
  hdac1.Instance = DAC1;
 80007c8:	6023      	str	r3, [r4, #0]
  if (HAL_DAC_Init(&hdac1) != HAL_OK)
 80007ca:	f002 f879 	bl	80028c0 <HAL_DAC_Init>
 80007ce:	4602      	mov	r2, r0
 80007d0:	b108      	cbz	r0, 80007d6 <main+0x1ea>
 80007d2:	b672      	cpsid	i
  while (1)
 80007d4:	e7fe      	b.n	80007d4 <main+0x1e8>
  sConfig.DAC_Trigger = DAC_TRIGGER_T8_TRGO;
 80007d6:	231e      	movs	r3, #30
  if (HAL_DAC_ConfigChannel(&hdac1, &sConfig, DAC_CHANNEL_1) != HAL_OK)
 80007d8:	a909      	add	r1, sp, #36	@ 0x24
 80007da:	4620      	mov	r0, r4
  sConfig.DAC_UserTrimming = DAC_TRIMMING_FACTORY;
 80007dc:	920d      	str	r2, [sp, #52]	@ 0x34
  sConfig.DAC_Trigger = DAC_TRIGGER_T8_TRGO;
 80007de:	e9cd 2309 	strd	r2, r3, [sp, #36]	@ 0x24
  sConfig.DAC_ConnectOnChipPeripheral = DAC_CHIPCONNECT_DISABLE;
 80007e2:	e9cd 260b 	strd	r2, r6, [sp, #44]	@ 0x2c
  if (HAL_DAC_ConfigChannel(&hdac1, &sConfig, DAC_CHANNEL_1) != HAL_OK)
 80007e6:	f002 f94f 	bl	8002a88 <HAL_DAC_ConfigChannel>
 80007ea:	b198      	cbz	r0, 8000814 <main+0x228>
 80007ec:	b672      	cpsid	i
  while (1)
 80007ee:	e7fe      	b.n	80007ee <main+0x202>
 80007f0:	58024400 	.word	0x58024400
 80007f4:	58020800 	.word	0x58020800
 80007f8:	240152b4 	.word	0x240152b4
 80007fc:	40022000 	.word	0x40022000
 8000800:	43210000 	.word	0x43210000
 8000804:	24015164 	.word	0x24015164
 8000808:	40010400 	.word	0x40010400
 800080c:	24015228 	.word	0x24015228
 8000810:	40007400 	.word	0x40007400
    if (SCB->CCR & SCB_CCR_DC_Msk) return;  /* return if DCache is already enabled */
 8000814:	4b72      	ldr	r3, [pc, #456]	@ (80009e0 <main+0x3f4>)
 8000816:	695a      	ldr	r2, [r3, #20]
 8000818:	f412 3280 	ands.w	r2, r2, #65536	@ 0x10000
 800081c:	d123      	bne.n	8000866 <main+0x27a>
    SCB->CSSELR = 0U;                       /* select Level 1 data cache */
 800081e:	f8c3 2084 	str.w	r2, [r3, #132]	@ 0x84
  __ASM volatile ("dsb 0xF":::"memory");
 8000822:	f3bf 8f4f 	dsb	sy
    ccsidr = SCB->CCSIDR;
 8000826:	f8d3 1080 	ldr.w	r1, [r3, #128]	@ 0x80
        SCB->DCISW = (((sets << SCB_DCISW_SET_Pos) & SCB_DCISW_SET_Msk) |
 800082a:	f643 74e0 	movw	r4, #16352	@ 0x3fe0
    sets = (uint32_t)(CCSIDR_SETS(ccsidr));
 800082e:	f3c1 324e 	ubfx	r2, r1, #13, #15
      ways = (uint32_t)(CCSIDR_WAYS(ccsidr));
 8000832:	f3c1 01c9 	ubfx	r1, r1, #3, #10
 8000836:	0152      	lsls	r2, r2, #5
        SCB->DCISW = (((sets << SCB_DCISW_SET_Pos) & SCB_DCISW_SET_Msk) |
 8000838:	ea02 0504 	and.w	r5, r2, r4
      ways = (uint32_t)(CCSIDR_WAYS(ccsidr));
 800083c:	4608      	mov	r0, r1
        SCB->DCISW = (((sets << SCB_DCISW_SET_Pos) & SCB_DCISW_SET_Msk) |
 800083e:	ea45 7680 	orr.w	r6, r5, r0, lsl #30
      } while (ways-- != 0U);
 8000842:	3801      	subs	r0, #1
        SCB->DCISW = (((sets << SCB_DCISW_SET_Pos) & SCB_DCISW_SET_Msk) |
 8000844:	f8c3 6260 	str.w	r6, [r3, #608]	@ 0x260
      } while (ways-- != 0U);
 8000848:	d2f9      	bcs.n	800083e <main+0x252>
    } while(sets-- != 0U);
 800084a:	3a20      	subs	r2, #32
 800084c:	f112 0f20 	cmn.w	r2, #32
 8000850:	d1f2      	bne.n	8000838 <main+0x24c>
 8000852:	f3bf 8f4f 	dsb	sy
    SCB->CCR |=  (uint32_t)SCB_CCR_DC_Msk;  /* enable D-Cache */
 8000856:	695a      	ldr	r2, [r3, #20]
 8000858:	f442 3280 	orr.w	r2, r2, #65536	@ 0x10000
 800085c:	615a      	str	r2, [r3, #20]
 800085e:	f3bf 8f4f 	dsb	sy
  __ASM volatile ("isb 0xF":::"memory");
 8000862:	f3bf 8f6f 	isb	sy
    if (SCB->CCR & SCB_CCR_IC_Msk) return;  /* return if ICache is already enabled */
 8000866:	4b5e      	ldr	r3, [pc, #376]	@ (80009e0 <main+0x3f4>)
 8000868:	695a      	ldr	r2, [r3, #20]
 800086a:	f412 3200 	ands.w	r2, r2, #131072	@ 0x20000
 800086e:	d111      	bne.n	8000894 <main+0x2a8>
  __ASM volatile ("dsb 0xF":::"memory");
 8000870:	f3bf 8f4f 	dsb	sy
  __ASM volatile ("isb 0xF":::"memory");
 8000874:	f3bf 8f6f 	isb	sy
    SCB->ICIALLU = 0UL;                     /* invalidate I-Cache */
 8000878:	f8c3 2250 	str.w	r2, [r3, #592]	@ 0x250
  __ASM volatile ("dsb 0xF":::"memory");
 800087c:	f3bf 8f4f 	dsb	sy
  __ASM volatile ("isb 0xF":::"memory");
 8000880:	f3bf 8f6f 	isb	sy
    SCB->CCR |=  (uint32_t)SCB_CCR_IC_Msk;  /* enable I-Cache */
 8000884:	695a      	ldr	r2, [r3, #20]
 8000886:	f442 3200 	orr.w	r2, r2, #131072	@ 0x20000
 800088a:	615a      	str	r2, [r3, #20]
  __ASM volatile ("dsb 0xF":::"memory");
 800088c:	f3bf 8f4f 	dsb	sy
  __ASM volatile ("isb 0xF":::"memory");
 8000890:	f3bf 8f6f 	isb	sy
  dctm_pool_init();
 8000894:	f000 f8ca 	bl	8000a2c <dctm_pool_init>
  DWT->CYCCNT  = 0;                                // clear counter
 8000898:	2400      	movs	r4, #0
  static_pool_init();
 800089a:	f000 f8d3 	bl	8000a44 <static_pool_init>
  CoreDebug->DEMCR |= CoreDebug_DEMCR_TRCENA_Msk;  // turn on trace
 800089e:	4850      	ldr	r0, [pc, #320]	@ (80009e0 <main+0x3f4>)
  DWT->CYCCNT  = 0;                                // clear counter
 80008a0:	4b50      	ldr	r3, [pc, #320]	@ (80009e4 <main+0x3f8>)
  arm_rfft_fast_init_f32(&fft, FFT_SIZE);
 80008a2:	f44f 6100 	mov.w	r1, #2048	@ 0x800
  CoreDebug->DEMCR |= CoreDebug_DEMCR_TRCENA_Msk;  // turn on trace
 80008a6:	f8d0 20fc 	ldr.w	r2, [r0, #252]	@ 0xfc
	  cab_fft_ptr_alloc = (float*)_static_mem_alloc((NUMSEGMENTS_CAB*FFT_SIZE + 2*NUMSEGMENTS_CAB)*sizeof(float), _Alignof(float));
 80008aa:	4d4f      	ldr	r5, [pc, #316]	@ (80009e8 <main+0x3fc>)
  CoreDebug->DEMCR |= CoreDebug_DEMCR_TRCENA_Msk;  // turn on trace
 80008ac:	f042 7280 	orr.w	r2, r2, #16777216	@ 0x1000000
 80008b0:	4e4e      	ldr	r6, [pc, #312]	@ (80009ec <main+0x400>)
 80008b2:	f8df b16c 	ldr.w	fp, [pc, #364]	@ 8000a20 <main+0x434>
 80008b6:	f8c0 20fc 	str.w	r2, [r0, #252]	@ 0xfc
  DWT->CYCCNT  = 0;                                // clear counter
 80008ba:	f5a6 4930 	sub.w	r9, r6, #45056	@ 0xb000
 80008be:	605c      	str	r4, [r3, #4]
		 apipe.updateDelayBuffer(&apipe);
 80008c0:	f5a6 4770 	sub.w	r7, r6, #61440	@ 0xf000
  DWT->CTRL   |= DWT_CTRL_CYCCNTENA_Msk;           // start counter
 80008c4:	681a      	ldr	r2, [r3, #0]
  arm_rfft_fast_init_f32(&fft, FFT_SIZE);
 80008c6:	484a      	ldr	r0, [pc, #296]	@ (80009f0 <main+0x404>)
  DWT->CTRL   |= DWT_CTRL_CYCCNTENA_Msk;           // start counter
 80008c8:	f042 0201 	orr.w	r2, r2, #1
 80008cc:	f8df a140 	ldr.w	sl, [pc, #320]	@ 8000a10 <main+0x424>
		 HAL_GPIO_WritePin(GPIOC, GPIO_PIN_3, 1);
 80008d0:	f8df 8150 	ldr.w	r8, [pc, #336]	@ 8000a24 <main+0x438>
  DWT->CTRL   |= DWT_CTRL_CYCCNTENA_Msk;           // start counter
 80008d4:	601a      	str	r2, [r3, #0]
  arm_rfft_fast_init_f32(&fft, FFT_SIZE);
 80008d6:	f006 f827 	bl	8006928 <arm_rfft_fast_init_f32>
  HAL_ADCEx_Calibration_Start(&hadc1, ADC_CALIB_OFFSET, ADC_SINGLE_ENDED);
 80008da:	4621      	mov	r1, r4
 80008dc:	f240 72ff 	movw	r2, #2047	@ 0x7ff
 80008e0:	4844      	ldr	r0, [pc, #272]	@ (80009f4 <main+0x408>)
 80008e2:	f001 fe6f 	bl	80025c4 <HAL_ADCEx_Calibration_Start>
  HAL_ADC_Start_DMA(&hadc1, (uint32_t*)adcInput, BUFFER_SIZE*2);
 80008e6:	f44f 6200 	mov.w	r2, #2048	@ 0x800
 80008ea:	4943      	ldr	r1, [pc, #268]	@ (80009f8 <main+0x40c>)
 80008ec:	4841      	ldr	r0, [pc, #260]	@ (80009f4 <main+0x408>)
 80008ee:	f001 fbe9 	bl	80020c4 <HAL_ADC_Start_DMA>
  HAL_DAC_Start_DMA(&hdac1, DAC_CHANNEL_1, (uint32_t*)dacOutput, BUFFER_SIZE*2, DAC_ALIGN_12B_R);
 80008f2:	4a42      	ldr	r2, [pc, #264]	@ (80009fc <main+0x410>)
 80008f4:	f44f 6300 	mov.w	r3, #2048	@ 0x800
 80008f8:	4621      	mov	r1, r4
 80008fa:	9400      	str	r4, [sp, #0]
 80008fc:	4840      	ldr	r0, [pc, #256]	@ (8000a00 <main+0x414>)
 80008fe:	f001 fff5 	bl	80028ec <HAL_DAC_Start_DMA>
  HAL_TIM_Base_Start(&htim8);
 8000902:	4840      	ldr	r0, [pc, #256]	@ (8000a04 <main+0x418>)
 8000904:	f005 fe52 	bl	80065ac <HAL_TIM_Base_Start>
  pipeInit(&apipe);
 8000908:	483f      	ldr	r0, [pc, #252]	@ (8000a08 <main+0x41c>)
 800090a:	f000 fbdb 	bl	80010c4 <pipeInit>
	  cab_ptr_alloc = (float *)_dctm_static_mem_alloc(BUFFER_SIZE*sizeof(float), _Alignof(float));
 800090e:	4c3f      	ldr	r4, [pc, #252]	@ (8000a0c <main+0x420>)
  supro_init_f32();
 8000910:	f000 fea2 	bl	8001658 <supro_init_f32>
  fx_reverb_init(&fx_handle_0);
 8000914:	483e      	ldr	r0, [pc, #248]	@ (8000a10 <main+0x424>)
 8000916:	f7ff fd63 	bl	80003e0 <fx_reverb_init>
	  cab_fft_ptr_alloc = (float*)_static_mem_alloc((NUMSEGMENTS_CAB*FFT_SIZE + 2*NUMSEGMENTS_CAB)*sizeof(float), _Alignof(float));
 800091a:	2104      	movs	r1, #4
 800091c:	f242 0008 	movw	r0, #8200	@ 0x2008
 8000920:	f000 f8b2 	bl	8000a88 <_static_mem_alloc>
 8000924:	4603      	mov	r3, r0
	  cab_ptr_alloc = (float *)_dctm_static_mem_alloc(BUFFER_SIZE*sizeof(float), _Alignof(float));
 8000926:	2104      	movs	r1, #4
 8000928:	f44f 5080 	mov.w	r0, #4096	@ 0x1000
	  cab_fft_ptr_alloc = (float*)_static_mem_alloc((NUMSEGMENTS_CAB*FFT_SIZE + 2*NUMSEGMENTS_CAB)*sizeof(float), _Alignof(float));
 800092c:	602b      	str	r3, [r5, #0]
	  cab_ptr_alloc = (float *)_dctm_static_mem_alloc(BUFFER_SIZE*sizeof(float), _Alignof(float));
 800092e:	f000 f895 	bl	8000a5c <_dctm_static_mem_alloc>
 8000932:	4603      	mov	r3, r0
	  fir_OD_M212_VINT_DYN_201_P05_00_f32_init(&fir_OD_M212_VINT_DYN_201_P05_00, cab_fft_ptr_alloc);
 8000934:	6829      	ldr	r1, [r5, #0]
 8000936:	4837      	ldr	r0, [pc, #220]	@ (8000a14 <main+0x428>)
	  cab_ptr_alloc = (float *)_dctm_static_mem_alloc(BUFFER_SIZE*sizeof(float), _Alignof(float));
 8000938:	6023      	str	r3, [r4, #0]
	  fir_OD_M212_VINT_DYN_201_P05_00_f32_init(&fir_OD_M212_VINT_DYN_201_P05_00, cab_fft_ptr_alloc);
 800093a:	f7ff fd2d 	bl	8000398 <fir_OD_M212_VINT_DYN_201_P05_00_f32_init>
	  cabinet_simulation_f32_init(&cabinet_sim, cab_ptr_alloc, &fir_OD_M212_VINT_DYN_201_P05_00);
 800093e:	4a35      	ldr	r2, [pc, #212]	@ (8000a14 <main+0x428>)
 8000940:	6821      	ldr	r1, [r4, #0]
 8000942:	4835      	ldr	r0, [pc, #212]	@ (8000a18 <main+0x42c>)
 8000944:	f7ff fd42 	bl	80003cc <cabinet_simulation_f32_init>
 8000948:	4b2c      	ldr	r3, [pc, #176]	@ (80009fc <main+0x410>)
	  if (apipe.bufferReady)
 800094a:	7c32      	ldrb	r2, [r6, #16]
 800094c:	2a00      	cmp	r2, #0
 800094e:	d045      	beq.n	80009dc <main+0x3f0>
		 apipe.updateDelayBuffer(&apipe);
 8000950:	69f2      	ldr	r2, [r6, #28]
 8000952:	4638      	mov	r0, r7
*/
__STATIC_FORCEINLINE void SCB_CleanDCache_by_Addr (uint32_t *addr, int32_t dsize)
{
  #if defined (__DCACHE_PRESENT) && (__DCACHE_PRESENT == 1U)
    if ( dsize > 0 ) { 
       int32_t op_size = dsize + (((uint32_t)addr) & (__SCB_DCACHE_LINE_SIZE - 1U));
 8000954:	f003 041f 	and.w	r4, r3, #31
 8000958:	4790      	blx	r2
		 apipe.loadProcess(&apipe);
 800095a:	6ab2      	ldr	r2, [r6, #40]	@ 0x28
 800095c:	4638      	mov	r0, r7
 800095e:	4790      	blx	r2
		 HAL_GPIO_WritePin(GPIOC, GPIO_PIN_3, 1);
 8000960:	2108      	movs	r1, #8
 8000962:	4640      	mov	r0, r8
 8000964:	2201      	movs	r2, #1
 8000966:	f003 fc21 	bl	80041ac <HAL_GPIO_WritePin>
		 supro_sim.process(&apipe);
 800096a:	f8db 200c 	ldr.w	r2, [fp, #12]
 800096e:	4638      	mov	r0, r7
 8000970:	4d22      	ldr	r5, [pc, #136]	@ (80009fc <main+0x410>)
 8000972:	4790      	blx	r2
		 cabinet_simulation_f32_process(&cabinet_sim, &apipe);
 8000974:	4639      	mov	r1, r7
 8000976:	4828      	ldr	r0, [pc, #160]	@ (8000a18 <main+0x42c>)
 8000978:	f504 5480 	add.w	r4, r4, #4096	@ 0x1000
 800097c:	f7ff fd20 	bl	80003c0 <cabinet_simulation_f32_process>
		 fx_handle_0.process(&fx_handle_0, &apipe);
 8000980:	f8da 2004 	ldr.w	r2, [sl, #4]
 8000984:	4639      	mov	r1, r7
 8000986:	4822      	ldr	r0, [pc, #136]	@ (8000a10 <main+0x424>)
 8000988:	4790      	blx	r2
	     arm_scale_f32(apipe.processBuffer, 1, apipe.processBuffer, BUFFER_SIZE);
 800098a:	4924      	ldr	r1, [pc, #144]	@ (8000a1c <main+0x430>)
 800098c:	eeb7 0a00 	vmov.f32	s0, #112	@ 0x3f800000  1.0
 8000990:	f44f 6280 	mov.w	r2, #1024	@ 0x400
 8000994:	4608      	mov	r0, r1
 8000996:	f006 fdcb 	bl	8007530 <arm_scale_f32>
		 HAL_GPIO_WritePin(GPIOC, GPIO_PIN_3, 0);
 800099a:	4640      	mov	r0, r8
 800099c:	2200      	movs	r2, #0
 800099e:	2108      	movs	r1, #8
 80009a0:	f003 fc04 	bl	80041ac <HAL_GPIO_WritePin>
		 arm_copy_f32(apipe.processBuffer, apipe.outBuffer, BUFFER_SIZE);
 80009a4:	f8d9 1004 	ldr.w	r1, [r9, #4]
 80009a8:	f44f 6280 	mov.w	r2, #1024	@ 0x400
 80009ac:	481b      	ldr	r0, [pc, #108]	@ (8000a1c <main+0x430>)
 80009ae:	f005 ff8b 	bl	80068c8 <arm_copy_f32>
		 apipe.updateDACOutput(&apipe, dacOutput);
 80009b2:	6a32      	ldr	r2, [r6, #32]
 80009b4:	4629      	mov	r1, r5
 80009b6:	4638      	mov	r0, r7
 80009b8:	4790      	blx	r2
  __ASM volatile ("dsb 0xF":::"memory");
 80009ba:	f3bf 8f4f 	dsb	sy
      uint32_t op_addr = (uint32_t)addr /* & ~(__SCB_DCACHE_LINE_SIZE - 1U) */;
    
      __DSB();

      do {
        SCB->DCCMVAC = op_addr;             /* register accepts only 32byte aligned values, only bits 31..5 are valid */
 80009be:	4a08      	ldr	r2, [pc, #32]	@ (80009e0 <main+0x3f4>)
 80009c0:	462b      	mov	r3, r5
 80009c2:	3c20      	subs	r4, #32
 80009c4:	f8c2 5268 	str.w	r5, [r2, #616]	@ 0x268
        op_addr += __SCB_DCACHE_LINE_SIZE;
 80009c8:	3520      	adds	r5, #32
        op_size -= __SCB_DCACHE_LINE_SIZE;
      } while ( op_size > 0 );
 80009ca:	2c00      	cmp	r4, #0
 80009cc:	dcf9      	bgt.n	80009c2 <main+0x3d6>
 80009ce:	f3bf 8f4f 	dsb	sy
  __ASM volatile ("isb 0xF":::"memory");
 80009d2:	f3bf 8f6f 	isb	sy
		 apipe.bufferReady = false;
 80009d6:	2200      	movs	r2, #0
 80009d8:	7432      	strb	r2, [r6, #16]
 80009da:	e7b6      	b.n	800094a <main+0x35e>
	      __WFI();
 80009dc:	bf30      	wfi
 80009de:	e7b4      	b.n	800094a <main+0x35e>
 80009e0:	e000ed00 	.word	0xe000ed00
 80009e4:	e0001000 	.word	0xe0001000
 80009e8:	240040e0 	.word	0x240040e0
 80009ec:	24015138 	.word	0x24015138
 80009f0:	24006120 	.word	0x24006120
 80009f4:	240152b4 	.word	0x240152b4
 80009f8:	24005120 	.word	0x24005120
 80009fc:	24004120 	.word	0x24004120
 8000a00:	24015228 	.word	0x24015228
 8000a04:	24015164 	.word	0x24015164
 8000a08:	24006138 	.word	0x24006138
 8000a0c:	240040e4 	.word	0x240040e4
 8000a10:	240040f0 	.word	0x240040f0
 8000a14:	2400410c 	.word	0x2400410c
 8000a18:	240040e8 	.word	0x240040e8
 8000a1c:	2400a140 	.word	0x2400a140
 8000a20:	24000038 	.word	0x24000038
 8000a24:	58020800 	.word	0x58020800

08000a28 <Error_Handler>:
  __ASM volatile ("cpsid i" : : : "memory");
 8000a28:	b672      	cpsid	i
  while (1)
 8000a2a:	e7fe      	b.n	8000a2a <Error_Handler+0x2>

08000a2c <dctm_pool_init>:
    return (x + (align - 1u)) & ~(align - 1u);
}

void dctm_pool_init()
{
   dtcm_pool_head = 0;  // dtcm is a no-load section of ram thus must be manually initialized to zero
 8000a2c:	2100      	movs	r1, #0
 8000a2e:	4b03      	ldr	r3, [pc, #12]	@ (8000a3c <dctm_pool_init+0x10>)
   memset(dtcm_static_pool, (uint8_t)0, DTCM_STATIC_POOL_SIZE);
 8000a30:	f44f 5240 	mov.w	r2, #12288	@ 0x3000
 8000a34:	4802      	ldr	r0, [pc, #8]	@ (8000a40 <dctm_pool_init+0x14>)
   dtcm_pool_head = 0;  // dtcm is a no-load section of ram thus must be manually initialized to zero
 8000a36:	6019      	str	r1, [r3, #0]
   memset(dtcm_static_pool, (uint8_t)0, DTCM_STATIC_POOL_SIZE);
 8000a38:	f007 b952 	b.w	8007ce0 <memset>
 8000a3c:	20000000 	.word	0x20000000
 8000a40:	20000020 	.word	0x20000020

08000a44 <static_pool_init>:
}


void static_pool_init()
{
   pool_head = 0;
 8000a44:	2100      	movs	r1, #0
 8000a46:	4b03      	ldr	r3, [pc, #12]	@ (8000a54 <static_pool_init+0x10>)
   memset(static_pool, (uint8_t)0, STATIC_POOL_SIZE);
 8000a48:	f44f 22c0 	mov.w	r2, #393216	@ 0x60000
 8000a4c:	4802      	ldr	r0, [pc, #8]	@ (8000a58 <static_pool_init+0x14>)
   pool_head = 0;
 8000a4e:	6019      	str	r1, [r3, #0]
   memset(static_pool, (uint8_t)0, STATIC_POOL_SIZE);
 8000a50:	f007 b946 	b.w	8007ce0 <memset>
 8000a54:	24015318 	.word	0x24015318
 8000a58:	2401531c 	.word	0x2401531c

08000a5c <_dctm_static_mem_alloc>:
}


void *_dctm_static_mem_alloc(size_t size, size_t align)
{
 8000a5c:	b410      	push	{r4}
    size_t off = align_up(dtcm_pool_head, align);
 8000a5e:	4c08      	ldr	r4, [pc, #32]	@ (8000a80 <_dctm_static_mem_alloc+0x24>)
    return (x + (align - 1u)) & ~(align - 1u);
 8000a60:	424a      	negs	r2, r1
 8000a62:	6823      	ldr	r3, [r4, #0]
 8000a64:	3b01      	subs	r3, #1
 8000a66:	440b      	add	r3, r1
 8000a68:	4013      	ands	r3, r2
    if (off + size > DTCM_STATIC_POOL_SIZE)
 8000a6a:	18c2      	adds	r2, r0, r3
 8000a6c:	f5b2 5f40 	cmp.w	r2, #12288	@ 0x3000
 8000a70:	d805      	bhi.n	8000a7e <_dctm_static_mem_alloc+0x22>
    	_memory_alloc_error_handler();// return NULL;                             // out of memory
    dtcm_pool_head = off + size;
    return &dtcm_static_pool[off];
 8000a72:	4804      	ldr	r0, [pc, #16]	@ (8000a84 <_dctm_static_mem_alloc+0x28>)
    dtcm_pool_head = off + size;
 8000a74:	6022      	str	r2, [r4, #0]
}
 8000a76:	4418      	add	r0, r3
 8000a78:	f85d 4b04 	ldr.w	r4, [sp], #4
 8000a7c:	4770      	bx	lr
 8000a7e:	e7fe      	b.n	8000a7e <_dctm_static_mem_alloc+0x22>
 8000a80:	20000000 	.word	0x20000000
 8000a84:	20000020 	.word	0x20000020

08000a88 <_static_mem_alloc>:


void *_static_mem_alloc(size_t size, size_t align)
{
 8000a88:	b410      	push	{r4}
    size_t off = align_up(pool_head, align);
 8000a8a:	4c08      	ldr	r4, [pc, #32]	@ (8000aac <_static_mem_alloc+0x24>)
    return (x + (align - 1u)) & ~(align - 1u);
 8000a8c:	424a      	negs	r2, r1
 8000a8e:	6823      	ldr	r3, [r4, #0]
 8000a90:	3b01      	subs	r3, #1
 8000a92:	440b      	add	r3, r1
 8000a94:	4013      	ands	r3, r2
    if (off + size > STATIC_POOL_SIZE)
 8000a96:	18c2      	adds	r2, r0, r3
 8000a98:	f5b2 2fc0 	cmp.w	r2, #393216	@ 0x60000
 8000a9c:	d805      	bhi.n	8000aaa <_static_mem_alloc+0x22>
    	_memory_alloc_error_handler(); //return NULL;                             // out of memory
    pool_head = off + size;
    return &static_pool[off];
 8000a9e:	4804      	ldr	r0, [pc, #16]	@ (8000ab0 <_static_mem_alloc+0x28>)
    pool_head = off + size;
 8000aa0:	6022      	str	r2, [r4, #0]
}
 8000aa2:	4418      	add	r0, r3
 8000aa4:	f85d 4b04 	ldr.w	r4, [sp], #4
 8000aa8:	4770      	bx	lr
 8000aaa:	e7fe      	b.n	8000aaa <_static_mem_alloc+0x22>
 8000aac:	24015318 	.word	0x24015318
 8000ab0:	2401531c 	.word	0x2401531c

08000ab4 <partitioned_fir_convolution_fft>:
__attribute__((section(".dtcm"), aligned(32))) float zeropad[FFT_SIZE];
float fftOut[FFT_SIZE];


void partitioned_fir_convolution_fft(pipe *pipe, fir_t *fir, float* overlap_state_buf )
{
 8000ab4:	e92d 4ff0 	stmdb	sp!, {r4, r5, r6, r7, r8, r9, sl, fp, lr}

	float *zeropaddedinput = zeropad;
	float *overlap         = overlap_state_buf;

    // prepare input
    arm_copy_f32(pipe->processBuffer, zeropaddedinput, BUFFER_SIZE);
 8000ab8:	f244 0408 	movw	r4, #16392	@ 0x4008
{
 8000abc:	b08b      	sub	sp, #44	@ 0x2c
 8000abe:	4613      	mov	r3, r2
 8000ac0:	460d      	mov	r5, r1
    arm_copy_f32(pipe->processBuffer, zeropaddedinput, BUFFER_SIZE);
 8000ac2:	4404      	add	r4, r0
 8000ac4:	f44f 6280 	mov.w	r2, #1024	@ 0x400
 8000ac8:	4933      	ldr	r1, [pc, #204]	@ (8000b98 <partitioned_fir_convolution_fft+0xe4>)
 8000aca:	4620      	mov	r0, r4
{
 8000acc:	9307      	str	r3, [sp, #28]
    arm_copy_f32(pipe->processBuffer, zeropaddedinput, BUFFER_SIZE);
 8000ace:	f005 fefb 	bl	80068c8 <arm_copy_f32>
    arm_fill_f32(0.0f, &zeropaddedinput[BUFFER_SIZE], BUFFER_SIZE);
 8000ad2:	ed9f 0a32 	vldr	s0, [pc, #200]	@ 8000b9c <partitioned_fir_convolution_fft+0xe8>
 8000ad6:	f44f 6180 	mov.w	r1, #1024	@ 0x400
 8000ada:	4831      	ldr	r0, [pc, #196]	@ (8000ba0 <partitioned_fir_convolution_fft+0xec>)
 8000adc:	f005 fed6 	bl	800688c <arm_fill_f32>

    // forward FFT
    arm_rfft_fast_f32(&fft, zeropaddedinput, fftOut, 0);
 8000ae0:	2300      	movs	r3, #0
 8000ae2:	4a30      	ldr	r2, [pc, #192]	@ (8000ba4 <partitioned_fir_convolution_fft+0xf0>)
 8000ae4:	492c      	ldr	r1, [pc, #176]	@ (8000b98 <partitioned_fir_convolution_fft+0xe4>)
 8000ae6:	4830      	ldr	r0, [pc, #192]	@ (8000ba8 <partitioned_fir_convolution_fft+0xf4>)
 8000ae8:	f005 ffd0 	bl	8006a8c <arm_rfft_fast_f32>

    // save index and spectrum
    fir->prev_fftidx = fir->curr_fftidx;
    arm_copy_f32(fftOut, fir->prev_ffts[fir->curr_fftidx], FFT_SIZE);
 8000aec:	482d      	ldr	r0, [pc, #180]	@ (8000ba4 <partitioned_fir_convolution_fft+0xf0>)
 8000aee:	e9d5 2301 	ldrd	r2, r3, [r5, #4]
 8000af2:	f852 1023 	ldr.w	r1, [r2, r3, lsl #2]
 8000af6:	f44f 6200 	mov.w	r2, #2048	@ 0x800
    fir->prev_fftidx = fir->curr_fftidx;
 8000afa:	60eb      	str	r3, [r5, #12]
    arm_copy_f32(fftOut, fir->prev_ffts[fir->curr_fftidx], FFT_SIZE);
 8000afc:	f005 fee4 	bl	80068c8 <arm_copy_f32>

    arm_fill_f32(0.0f, fftOut, FFT_SIZE);              /* clear accumulator */
 8000b00:	4828      	ldr	r0, [pc, #160]	@ (8000ba4 <partitioned_fir_convolution_fft+0xf0>)
 8000b02:	f44f 6100 	mov.w	r1, #2048	@ 0x800
 8000b06:	ed9f 0a25 	vldr	s0, [pc, #148]	@ 8000b9c <partitioned_fir_convolution_fft+0xe8>
 8000b0a:	f005 febf 	bl	800688c <arm_fill_f32>

    const uint32_t segs = fir->numSegments;
 8000b0e:	692b      	ldr	r3, [r5, #16]
 8000b10:	f8df e090 	ldr.w	lr, [pc, #144]	@ 8000ba4 <partitioned_fir_convolution_fft+0xf0>
    uint32_t i = 0;
 8000b14:	f04f 0c00 	mov.w	ip, #0
    const uint32_t segs = fir->numSegments;
 8000b18:	9303      	str	r3, [sp, #12]
    uint32_t idx = fir->prev_fftidx;

    // partitioned convolution with pointer arithmetic
    do {
        const float32_t *restrict xPtr = fir->prev_ffts[idx];
 8000b1a:	686b      	ldr	r3, [r5, #4]
 8000b1c:	f50e 50ff 	add.w	r0, lr, #8160	@ 0x1fe0
		}
		if (idx-- == 0) {
			idx = segs - 1;
		}

    } while (idx != fir->curr_fftidx);
 8000b20:	68aa      	ldr	r2, [r5, #8]
 8000b22:	f50e 5700 	add.w	r7, lr, #8192	@ 0x2000
        const float32_t *restrict xPtr = fir->prev_ffts[idx];
 8000b26:	9305      	str	r3, [sp, #20]
        const float32_t *restrict hPtr = fir->ir_ffts[i];
 8000b28:	682b      	ldr	r3, [r5, #0]
    } while (idx != fir->curr_fftidx);
 8000b2a:	9204      	str	r2, [sp, #16]
        const float32_t *restrict hPtr = fir->ir_ffts[i];
 8000b2c:	9306      	str	r3, [sp, #24]
 8000b2e:	f50e 5380 	add.w	r3, lr, #4096	@ 0x1000
    uint32_t idx = fir->prev_fftidx;
 8000b32:	68ee      	ldr	r6, [r5, #12]
                     float accR = __builtin_fmaf(xr, hr,
 8000b34:	f603 72f8 	addw	r2, r3, #4088	@ 0xff8
 8000b38:	f603 7be8 	addw	fp, r3, #4072	@ 0xfe8
                     float accI = __builtin_fmaf(xr, hi,
 8000b3c:	f603 7aec 	addw	sl, r3, #4076	@ 0xfec
                     float accR = __builtin_fmaf(xr, hr,
 8000b40:	f503 697f 	add.w	r9, r3, #4080	@ 0xff0
                     float accI = __builtin_fmaf(xr, hi,
 8000b44:	f603 78f4 	addw	r8, r3, #4084	@ 0xff4
 8000b48:	f603 73fc 	addw	r3, r3, #4092	@ 0xffc
                     float accR = __builtin_fmaf(xr, hr,
 8000b4c:	9201      	str	r2, [sp, #4]
                     float accI = __builtin_fmaf(xr, hi,
 8000b4e:	9302      	str	r3, [sp, #8]
 8000b50:	e9cd 4508 	strd	r4, r5, [sp, #32]
        const float32_t *restrict xPtr = fir->prev_ffts[idx];
 8000b54:	9b05      	ldr	r3, [sp, #20]
                 yPtr[0] += xPtr[0] * hPtr[0];
 8000b56:	ed9e 7a00 	vldr	s14, [lr]
        const float32_t *restrict xPtr = fir->prev_ffts[idx];
 8000b5a:	f853 5026 	ldr.w	r5, [r3, r6, lsl #2]
        const float32_t *restrict hPtr = fir->ir_ffts[i];
 8000b5e:	9b06      	ldr	r3, [sp, #24]
                 yPtr[1] += xPtr[1] * hPtr[1];
 8000b60:	edde 7a01 	vldr	s15, [lr, #4]
 8000b64:	f105 0158 	add.w	r1, r5, #88	@ 0x58
        const float32_t *restrict hPtr = fir->ir_ffts[i];
 8000b68:	f853 402c 	ldr.w	r4, [r3, ip, lsl #2]
                 yPtr[0] += xPtr[0] * hPtr[0];
 8000b6c:	ed95 5a00 	vldr	s10, [r5]
 8000b70:	edd4 5a00 	vldr	s11, [r4]
 8000b74:	f104 0258 	add.w	r2, r4, #88	@ 0x58
                 yPtr[1] += xPtr[1] * hPtr[1];
 8000b78:	ed95 6a01 	vldr	s12, [r5, #4]
 8000b7c:	edd4 6a01 	vldr	s13, [r4, #4]
                 yPtr[0] += xPtr[0] * hPtr[0];
 8000b80:	eea5 7a25 	vfma.f32	s14, s10, s11
                 yPtr[1] += xPtr[1] * hPtr[1];
 8000b84:	eee6 7a26 	vfma.f32	s15, s12, s13
                 yPtr[0] += xPtr[0] * hPtr[0];
 8000b88:	ed8e 7a00 	vstr	s14, [lr]
                 yPtr[1] += xPtr[1] * hPtr[1];
 8000b8c:	edce 7a01 	vstr	s15, [lr, #4]
                 for (uint32_t u = FFT_SIZE / 20;  u--;  ) {
 8000b90:	f8df e010 	ldr.w	lr, [pc, #16]	@ 8000ba4 <partitioned_fir_convolution_fft+0xf0>
 8000b94:	4673      	mov	r3, lr
 8000b96:	e009      	b.n	8000bac <partitioned_fir_convolution_fft+0xf8>
 8000b98:	20003020 	.word	0x20003020
 8000b9c:	00000000 	.word	0x00000000
 8000ba0:	20004020 	.word	0x20004020
 8000ba4:	2407531c 	.word	0x2407531c
 8000ba8:	24006120 	.word	0x24006120
                         float xr = *xPtr++; float xi = *xPtr++;
 8000bac:	ed51 7a13 	vldr	s15, [r1, #-76]	@ 0xffffffb4
                 for (uint32_t u = FFT_SIZE / 20;  u--;  ) {
 8000bb0:	3350      	adds	r3, #80	@ 0x50
                         float hr = *hPtr++; float hi = *hPtr++;
 8000bb2:	ed52 2a14 	vldr	s5, [r2, #-80]	@ 0xffffffb0
                 for (uint32_t u = FFT_SIZE / 20;  u--;  ) {
 8000bb6:	3150      	adds	r1, #80	@ 0x50
                         float hr = *hPtr++; float hi = *hPtr++;
 8000bb8:	ed52 3a13 	vldr	s7, [r2, #-76]	@ 0xffffffb4
                 for (uint32_t u = FFT_SIZE / 20;  u--;  ) {
 8000bbc:	3250      	adds	r2, #80	@ 0x50
                         float accR = __builtin_fmaf(xr, hr, __builtin_fmaf(-xi, hi, *yPtr));
 8000bbe:	ed13 4a12 	vldr	s8, [r3, #-72]	@ 0xffffffb8
                         float accI = __builtin_fmaf(xr, hi, __builtin_fmaf(xi, hr, *(yPtr+1)));
 8000bc2:	ed53 4a11 	vldr	s9, [r3, #-68]	@ 0xffffffbc
                         float accR = __builtin_fmaf(xr, hr, __builtin_fmaf(-xi, hi, *yPtr));
 8000bc6:	eea7 4ae3 	vfms.f32	s8, s15, s7
                         float xr = *xPtr++; float xi = *xPtr++;
 8000bca:	ed11 3a28 	vldr	s6, [r1, #-160]	@ 0xffffff60
                         float accI = __builtin_fmaf(xr, hi, __builtin_fmaf(xi, hr, *(yPtr+1)));
 8000bce:	eee7 4aa2 	vfma.f32	s9, s15, s5
                         float accR = __builtin_fmaf(xr, hr, __builtin_fmaf(-xi, hi, *yPtr));
 8000bd2:	ed13 5a10 	vldr	s10, [r3, #-64]	@ 0xffffffc0
                         float accI = __builtin_fmaf(xr, hi, __builtin_fmaf(xi, hr, *(yPtr+1)));
 8000bd6:	ed53 5a0f 	vldr	s11, [r3, #-60]	@ 0xffffffc4
                         float accR = __builtin_fmaf(xr, hr, __builtin_fmaf(-xi, hi, *yPtr));
 8000bda:	ed53 6a0e 	vldr	s13, [r3, #-56]	@ 0xffffffc8
                         float accI = __builtin_fmaf(xr, hi, __builtin_fmaf(xi, hr, *(yPtr+1)));
 8000bde:	ed13 6a0d 	vldr	s12, [r3, #-52]	@ 0xffffffcc
                         float accR = __builtin_fmaf(xr, hr, __builtin_fmaf(-xi, hi, *yPtr));
 8000be2:	ed13 7a0c 	vldr	s14, [r3, #-48]	@ 0xffffffd0
                         float accR = __builtin_fmaf(xr, hr, __builtin_fmaf(-xi, hi, *yPtr));
 8000be6:	eea3 4a22 	vfma.f32	s8, s6, s5
                         float accI = __builtin_fmaf(xr, hi, __builtin_fmaf(xi, hr, *(yPtr+1)));
 8000bea:	ed53 7a0b 	vldr	s15, [r3, #-44]	@ 0xffffffd4
                         float accI = __builtin_fmaf(xr, hi, __builtin_fmaf(xi, hr, *(yPtr+1)));
 8000bee:	eee3 4a23 	vfma.f32	s9, s6, s7
                         *yPtr     = accR;
 8000bf2:	ed03 4a12 	vstr	s8, [r3, #-72]	@ 0xffffffb8
                         *(yPtr+1) = accI;
 8000bf6:	ed43 4a11 	vstr	s9, [r3, #-68]	@ 0xffffffbc
                         float hr = *hPtr++; float hi = *hPtr++;
 8000bfa:	ed52 3a26 	vldr	s7, [r2, #-152]	@ 0xffffff68
 8000bfe:	ed52 4a25 	vldr	s9, [r2, #-148]	@ 0xffffff6c
                         float xr = *xPtr++; float xi = *xPtr++;
 8000c02:	ed11 3a25 	vldr	s6, [r1, #-148]	@ 0xffffff6c
 8000c06:	ed11 4a26 	vldr	s8, [r1, #-152]	@ 0xffffff68
                         float accR = __builtin_fmaf(xr, hr, __builtin_fmaf(-xi, hi, *yPtr));
 8000c0a:	eea3 5a64 	vfms.f32	s10, s6, s9
                         float accI = __builtin_fmaf(xr, hi, __builtin_fmaf(xi, hr, *(yPtr+1)));
 8000c0e:	eee3 5a23 	vfma.f32	s11, s6, s7
                         float accR = __builtin_fmaf(xr, hr, __builtin_fmaf(-xi, hi, *yPtr));
 8000c12:	eea4 5a23 	vfma.f32	s10, s8, s7
                         float accI = __builtin_fmaf(xr, hi, __builtin_fmaf(xi, hr, *(yPtr+1)));
 8000c16:	eee4 5a24 	vfma.f32	s11, s8, s9
                         *yPtr     = accR;
 8000c1a:	ed03 5a10 	vstr	s10, [r3, #-64]	@ 0xffffffc0
                         *(yPtr+1) = accI;
 8000c1e:	ed43 5a0f 	vstr	s11, [r3, #-60]	@ 0xffffffc4
                         float xr = *xPtr++; float xi = *xPtr++;
 8000c22:	ed11 4a23 	vldr	s8, [r1, #-140]	@ 0xffffff74
                         float hr = *hPtr++; float hi = *hPtr++;
 8000c26:	ed52 5a24 	vldr	s11, [r2, #-144]	@ 0xffffff70
 8000c2a:	ed52 4a23 	vldr	s9, [r2, #-140]	@ 0xffffff74
                         float accI = __builtin_fmaf(xr, hi, __builtin_fmaf(xi, hr, *(yPtr+1)));
 8000c2e:	eea4 6a25 	vfma.f32	s12, s8, s11
                         float xr = *xPtr++; float xi = *xPtr++;
 8000c32:	ed11 5a24 	vldr	s10, [r1, #-144]	@ 0xffffff70
                         float accR = __builtin_fmaf(xr, hr, __builtin_fmaf(-xi, hi, *yPtr));
 8000c36:	eee4 6a64 	vfms.f32	s13, s8, s9
                         float accI = __builtin_fmaf(xr, hi, __builtin_fmaf(xi, hr, *(yPtr+1)));
 8000c3a:	eea5 6a24 	vfma.f32	s12, s10, s9
                         float accR = __builtin_fmaf(xr, hr, __builtin_fmaf(-xi, hi, *yPtr));
 8000c3e:	eee5 6a25 	vfma.f32	s13, s10, s11
                         *(yPtr+1) = accI;
 8000c42:	ed03 6a0d 	vstr	s12, [r3, #-52]	@ 0xffffffcc
                         *yPtr     = accR;
 8000c46:	ed43 6a0e 	vstr	s13, [r3, #-56]	@ 0xffffffc8
                         float xr = *xPtr++; float xi = *xPtr++;
 8000c4a:	ed11 5a21 	vldr	s10, [r1, #-132]	@ 0xffffff7c
                         float hr = *hPtr++; float hi = *hPtr++;
 8000c4e:	ed52 5a22 	vldr	s11, [r2, #-136]	@ 0xffffff78
 8000c52:	ed52 6a21 	vldr	s13, [r2, #-132]	@ 0xffffff7c
                         float accI = __builtin_fmaf(xr, hi, __builtin_fmaf(xi, hr, *(yPtr+1)));
 8000c56:	eee5 7a25 	vfma.f32	s15, s10, s11
                         float xr = *xPtr++; float xi = *xPtr++;
 8000c5a:	ed11 6a22 	vldr	s12, [r1, #-136]	@ 0xffffff78
                         float accR = __builtin_fmaf(xr, hr, __builtin_fmaf(-xi, hi, *yPtr));
 8000c5e:	eea5 7a66 	vfms.f32	s14, s10, s13
                         float accI = __builtin_fmaf(xr, hi, __builtin_fmaf(xi, hr, *(yPtr+1)));
 8000c62:	eee6 7a26 	vfma.f32	s15, s12, s13
                         float accR = __builtin_fmaf(xr, hr, __builtin_fmaf(-xi, hi, *yPtr));
 8000c66:	eea6 7a25 	vfma.f32	s14, s12, s11
                         *(yPtr+1) = accI;
 8000c6a:	ed43 7a0b 	vstr	s15, [r3, #-44]	@ 0xffffffd4
                         *yPtr     = accR;
 8000c6e:	ed03 7a0c 	vstr	s14, [r3, #-48]	@ 0xffffffd0
                         float xr = *xPtr++; float xi = *xPtr++;
 8000c72:	ed11 3a20 	vldr	s6, [r1, #-128]	@ 0xffffff80
 8000c76:	ed51 7a1f 	vldr	s15, [r1, #-124]	@ 0xffffff84
                         float hr = *hPtr++; float hi = *hPtr++;
 8000c7a:	ed52 3a1f 	vldr	s7, [r2, #-124]	@ 0xffffff84
 8000c7e:	ed52 2a20 	vldr	s5, [r2, #-128]	@ 0xffffff80
                         float accR = __builtin_fmaf(xr, hr, __builtin_fmaf(-xi, hi, *yPtr));
 8000c82:	ed13 4a0a 	vldr	s8, [r3, #-40]	@ 0xffffffd8
                         float accI = __builtin_fmaf(xr, hi, __builtin_fmaf(xi, hr, *(yPtr+1)));
 8000c86:	ed53 4a09 	vldr	s9, [r3, #-36]	@ 0xffffffdc
                         float accR = __builtin_fmaf(xr, hr, __builtin_fmaf(-xi, hi, *yPtr));
 8000c8a:	eea7 4ae3 	vfms.f32	s8, s15, s7
                         float accR = __builtin_fmaf(xr, hr, __builtin_fmaf(-xi, hi, *yPtr));
 8000c8e:	ed53 5a08 	vldr	s11, [r3, #-32]	@ 0xffffffe0
                         float accI = __builtin_fmaf(xr, hi, __builtin_fmaf(xi, hr, *(yPtr+1)));
 8000c92:	eee7 4aa2 	vfma.f32	s9, s15, s5
                         float accI = __builtin_fmaf(xr, hi, __builtin_fmaf(xi, hr, *(yPtr+1)));
 8000c96:	ed13 5a07 	vldr	s10, [r3, #-28]	@ 0xffffffe4
                         float accR = __builtin_fmaf(xr, hr, __builtin_fmaf(-xi, hi, *yPtr));
 8000c9a:	ed13 6a06 	vldr	s12, [r3, #-24]	@ 0xffffffe8
                         float accI = __builtin_fmaf(xr, hi, __builtin_fmaf(xi, hr, *(yPtr+1)));
 8000c9e:	ed53 6a05 	vldr	s13, [r3, #-20]	@ 0xffffffec
                         float accR = __builtin_fmaf(xr, hr, __builtin_fmaf(-xi, hi, *yPtr));
 8000ca2:	ed53 7a04 	vldr	s15, [r3, #-16]
                         float accI = __builtin_fmaf(xr, hi, __builtin_fmaf(xi, hr, *(yPtr+1)));
 8000ca6:	ed13 7a03 	vldr	s14, [r3, #-12]
                         float accR = __builtin_fmaf(xr, hr, __builtin_fmaf(-xi, hi, *yPtr));
 8000caa:	eea3 4a22 	vfma.f32	s8, s6, s5
                         float accI = __builtin_fmaf(xr, hi, __builtin_fmaf(xi, hr, *(yPtr+1)));
 8000cae:	eee3 4a23 	vfma.f32	s9, s6, s7
                         *yPtr     = accR;
 8000cb2:	ed03 4a0a 	vstr	s8, [r3, #-40]	@ 0xffffffd8
                         *(yPtr+1) = accI;
 8000cb6:	ed43 4a09 	vstr	s9, [r3, #-36]	@ 0xffffffdc
                         float hr = *hPtr++; float hi = *hPtr++;
 8000cba:	ed52 4a1e 	vldr	s9, [r2, #-120]	@ 0xffffff88
                         float xr = *xPtr++; float xi = *xPtr++;
 8000cbe:	ed11 3a1d 	vldr	s6, [r1, #-116]	@ 0xffffff8c
                         float hr = *hPtr++; float hi = *hPtr++;
 8000cc2:	ed52 3a1d 	vldr	s7, [r2, #-116]	@ 0xffffff8c
                         float accI = __builtin_fmaf(xr, hi, __builtin_fmaf(xi, hr, *(yPtr+1)));
 8000cc6:	eea3 5a24 	vfma.f32	s10, s6, s9
                         float xr = *xPtr++; float xi = *xPtr++;
 8000cca:	ed11 4a1e 	vldr	s8, [r1, #-120]	@ 0xffffff88
                         float accR = __builtin_fmaf(xr, hr, __builtin_fmaf(-xi, hi, *yPtr));
 8000cce:	eee3 5a63 	vfms.f32	s11, s6, s7
                         float accI = __builtin_fmaf(xr, hi, __builtin_fmaf(xi, hr, *(yPtr+1)));
 8000cd2:	eea4 5a23 	vfma.f32	s10, s8, s7
                         float accR = __builtin_fmaf(xr, hr, __builtin_fmaf(-xi, hi, *yPtr));
 8000cd6:	eee4 5a24 	vfma.f32	s11, s8, s9
                         *(yPtr+1) = accI;
 8000cda:	ed03 5a07 	vstr	s10, [r3, #-28]	@ 0xffffffe4
                         *yPtr     = accR;
 8000cde:	ed43 5a08 	vstr	s11, [r3, #-32]	@ 0xffffffe0
                         float xr = *xPtr++; float xi = *xPtr++;
 8000ce2:	ed11 4a1b 	vldr	s8, [r1, #-108]	@ 0xffffff94
                         float hr = *hPtr++; float hi = *hPtr++;
 8000ce6:	ed52 4a1c 	vldr	s9, [r2, #-112]	@ 0xffffff90
 8000cea:	ed52 5a1b 	vldr	s11, [r2, #-108]	@ 0xffffff94
                         float accI = __builtin_fmaf(xr, hi, __builtin_fmaf(xi, hr, *(yPtr+1)));
 8000cee:	eee4 6a24 	vfma.f32	s13, s8, s9
                         float xr = *xPtr++; float xi = *xPtr++;
 8000cf2:	ed11 5a1c 	vldr	s10, [r1, #-112]	@ 0xffffff90
                         float accR = __builtin_fmaf(xr, hr, __builtin_fmaf(-xi, hi, *yPtr));
 8000cf6:	eea4 6a65 	vfms.f32	s12, s8, s11
                         float accI = __builtin_fmaf(xr, hi, __builtin_fmaf(xi, hr, *(yPtr+1)));
 8000cfa:	eee5 6a25 	vfma.f32	s13, s10, s11
                         float accR = __builtin_fmaf(xr, hr, __builtin_fmaf(-xi, hi, *yPtr));
 8000cfe:	eea5 6a24 	vfma.f32	s12, s10, s9
                         *(yPtr+1) = accI;
 8000d02:	ed43 6a05 	vstr	s13, [r3, #-20]	@ 0xffffffec
                         *yPtr     = accR;
 8000d06:	ed03 6a06 	vstr	s12, [r3, #-24]	@ 0xffffffe8
                         float hr = *hPtr++; float hi = *hPtr++;
 8000d0a:	ed52 6a1a 	vldr	s13, [r2, #-104]	@ 0xffffff98
 8000d0e:	ed52 5a19 	vldr	s11, [r2, #-100]	@ 0xffffff9c
                         float xr = *xPtr++; float xi = *xPtr++;
 8000d12:	ed11 5a19 	vldr	s10, [r1, #-100]	@ 0xffffff9c
 8000d16:	ed11 6a1a 	vldr	s12, [r1, #-104]	@ 0xffffff98
                         float accI = __builtin_fmaf(xr, hi, __builtin_fmaf(xi, hr, *(yPtr+1)));
 8000d1a:	eea5 7a26 	vfma.f32	s14, s10, s13
                         float accR = __builtin_fmaf(xr, hr, __builtin_fmaf(-xi, hi, *yPtr));
 8000d1e:	eee5 7a65 	vfms.f32	s15, s10, s11
                         float accI = __builtin_fmaf(xr, hi, __builtin_fmaf(xi, hr, *(yPtr+1)));
 8000d22:	eea6 7a25 	vfma.f32	s14, s12, s11
                         float accR = __builtin_fmaf(xr, hr, __builtin_fmaf(-xi, hi, *yPtr));
 8000d26:	eee6 7a26 	vfma.f32	s15, s12, s13
                         *(yPtr+1) = accI;
 8000d2a:	ed03 7a03 	vstr	s14, [r3, #-12]
                         *yPtr     = accR;
 8000d2e:	ed43 7a04 	vstr	s15, [r3, #-16]
                         float xr = *xPtr++; float xi = *xPtr++;
 8000d32:	ed11 5a18 	vldr	s10, [r1, #-96]	@ 0xffffffa0
                         float hr = *hPtr++; float hi = *hPtr++;
 8000d36:	ed52 5a17 	vldr	s11, [r2, #-92]	@ 0xffffffa4
                         float xr = *xPtr++; float xi = *xPtr++;
 8000d3a:	ed11 4a17 	vldr	s8, [r1, #-92]	@ 0xffffffa4
                         float hr = *hPtr++; float hi = *hPtr++;
 8000d3e:	ed52 4a18 	vldr	s9, [r2, #-96]	@ 0xffffffa0
                         float accR = __builtin_fmaf(xr, hr, __builtin_fmaf(-xi, hi, *yPtr));
 8000d42:	ed13 6a02 	vldr	s12, [r3, #-8]
                         float accI = __builtin_fmaf(xr, hi, __builtin_fmaf(xi, hr, *(yPtr+1)));
 8000d46:	ed53 6a01 	vldr	s13, [r3, #-4]
                         float accR = __builtin_fmaf(xr, hr, __builtin_fmaf(-xi, hi, *yPtr));
 8000d4a:	eea4 6a65 	vfms.f32	s12, s8, s11
                         float accR = __builtin_fmaf(xr, hr, __builtin_fmaf(-xi, hi, *yPtr));
 8000d4e:	ed93 7a00 	vldr	s14, [r3]
                         float accI = __builtin_fmaf(xr, hi, __builtin_fmaf(xi, hr, *(yPtr+1)));
 8000d52:	eee4 6a24 	vfma.f32	s13, s8, s9
                         float accI = __builtin_fmaf(xr, hi, __builtin_fmaf(xi, hr, *(yPtr+1)));
 8000d56:	edd3 7a01 	vldr	s15, [r3, #4]
                         float accR = __builtin_fmaf(xr, hr, __builtin_fmaf(-xi, hi, *yPtr));
 8000d5a:	eea5 6a24 	vfma.f32	s12, s10, s9
                         float accI = __builtin_fmaf(xr, hi, __builtin_fmaf(xi, hr, *(yPtr+1)));
 8000d5e:	eee5 6a25 	vfma.f32	s13, s10, s11
                         *yPtr     = accR;
 8000d62:	ed03 6a02 	vstr	s12, [r3, #-8]
                         *(yPtr+1) = accI;
 8000d66:	ed43 6a01 	vstr	s13, [r3, #-4]
                         float xr = *xPtr++; float xi = *xPtr++;
 8000d6a:	ed11 5a15 	vldr	s10, [r1, #-84]	@ 0xffffffac
                         float hr = *hPtr++; float hi = *hPtr++;
 8000d6e:	ed52 5a16 	vldr	s11, [r2, #-88]	@ 0xffffffa8
 8000d72:	ed52 6a15 	vldr	s13, [r2, #-84]	@ 0xffffffac
                         float accI = __builtin_fmaf(xr, hi, __builtin_fmaf(xi, hr, *(yPtr+1)));
 8000d76:	eee5 7a25 	vfma.f32	s15, s10, s11
                         float xr = *xPtr++; float xi = *xPtr++;
 8000d7a:	ed11 6a16 	vldr	s12, [r1, #-88]	@ 0xffffffa8
                         float accR = __builtin_fmaf(xr, hr, __builtin_fmaf(-xi, hi, *yPtr));
 8000d7e:	eea5 7a66 	vfms.f32	s14, s10, s13
                         float accI = __builtin_fmaf(xr, hi, __builtin_fmaf(xi, hr, *(yPtr+1)));
 8000d82:	eee6 7a26 	vfma.f32	s15, s12, s13
                         float accR = __builtin_fmaf(xr, hr, __builtin_fmaf(-xi, hi, *yPtr));
 8000d86:	eea6 7a25 	vfma.f32	s14, s12, s11
                         *(yPtr+1) = accI;
 8000d8a:	edc3 7a01 	vstr	s15, [r3, #4]
                         *yPtr     = accR;
 8000d8e:	ed83 7a00 	vstr	s14, [r3]
                 for (uint32_t u = FFT_SIZE / 20;  u--;  ) {
 8000d92:	4283      	cmp	r3, r0
 8000d94:	f47f af0a 	bne.w	8000bac <partitioned_fir_convolution_fft+0xf8>
                     float accR = __builtin_fmaf(xr, hr,
 8000d98:	9b01      	ldr	r3, [sp, #4]
		if (++i >= segs) {
 8000d9a:	f10c 0c01 	add.w	ip, ip, #1
                     float accI = __builtin_fmaf(xr, hi,
 8000d9e:	9a02      	ldr	r2, [sp, #8]
                     float accR = __builtin_fmaf(xr, hr,
 8000da0:	ed93 7a00 	vldr	s14, [r3]
                     float xr = *xPtr++;  float xi = *xPtr++;
 8000da4:	f505 5380 	add.w	r3, r5, #4096	@ 0x1000
                     float accI = __builtin_fmaf(xr, hi,
 8000da8:	edd2 7a00 	vldr	s15, [r2]
                     float xr = *xPtr++;  float xi = *xPtr++;
 8000dac:	f505 5500 	add.w	r5, r5, #8192	@ 0x2000
                     float hr = *hPtr++;  float hi = *hPtr++;
 8000db0:	f504 5280 	add.w	r2, r4, #4096	@ 0x1000
 8000db4:	f504 5400 	add.w	r4, r4, #8192	@ 0x2000
                     float accR = __builtin_fmaf(xr, hr,
 8000db8:	ed97 5a00 	vldr	s10, [r7]
                     float xr = *xPtr++;  float xi = *xPtr++;
 8000dbc:	ed95 2a01 	vldr	s4, [r5, #4]
                     float hr = *hPtr++;  float hi = *hPtr++;
 8000dc0:	edd4 2a01 	vldr	s5, [r4, #4]
			i = 0;
 8000dc4:	9903      	ldr	r1, [sp, #12]
                     float accR = __builtin_fmaf(xr, hr,
 8000dc6:	eea2 5a62 	vfms.f32	s10, s4, s5
                     float accI = __builtin_fmaf(xr, hi,
 8000dca:	edd7 5a01 	vldr	s11, [r7, #4]
                     float xr = *xPtr++;  float xi = *xPtr++;
 8000dce:	ed95 3a00 	vldr	s6, [r5]
			i = 0;
 8000dd2:	4561      	cmp	r1, ip
 8000dd4:	bf98      	it	ls
 8000dd6:	f04f 0c00 	movls.w	ip, #0
                     float hr = *hPtr++;  float hi = *hPtr++;
 8000dda:	edd4 3a00 	vldr	s7, [r4]
                     float xr = *xPtr++;  float xi = *xPtr++;
 8000dde:	f603 71ec 	addw	r1, r3, #4076	@ 0xfec
                     float accR = __builtin_fmaf(xr, hr,
 8000de2:	ed9b 4a00 	vldr	s8, [fp]
                     float accI = __builtin_fmaf(xr, hi,
 8000de6:	eee2 5a23 	vfma.f32	s11, s4, s7
 8000dea:	edda 4a00 	vldr	s9, [sl]
                     float accR = __builtin_fmaf(xr, hr,
 8000dee:	ed99 6a00 	vldr	s12, [r9]
 8000df2:	eea3 5a23 	vfma.f32	s10, s6, s7
                     float xr = *xPtr++;  float xi = *xPtr++;
 8000df6:	edd1 3a00 	vldr	s7, [r1]
                     float hr = *hPtr++;  float hi = *hPtr++;
 8000dfa:	f602 71e8 	addw	r1, r2, #4072	@ 0xfe8
                     float accI = __builtin_fmaf(xr, hi,
 8000dfe:	edd8 6a00 	vldr	s13, [r8]
                     float hr = *hPtr++;  float hi = *hPtr++;
 8000e02:	edd1 0a00 	vldr	s1, [r1]
 8000e06:	f602 71ec 	addw	r1, r2, #4076	@ 0xfec
                     float accI = __builtin_fmaf(xr, hi,
 8000e0a:	eee3 5a22 	vfma.f32	s11, s6, s5
                     float hr = *hPtr++;  float hi = *hPtr++;
 8000e0e:	edd1 1a00 	vldr	s3, [r1]
                     float xr = *xPtr++;  float xi = *xPtr++;
 8000e12:	f603 71f4 	addw	r1, r3, #4084	@ 0xff4
                     float accI = __builtin_fmaf(xr, hi,
 8000e16:	eee3 4aa0 	vfma.f32	s9, s7, s1
                     float accR = __builtin_fmaf(xr, hr,
 8000e1a:	eea3 4ae1 	vfms.f32	s8, s7, s3
                     float xr = *xPtr++;  float xi = *xPtr++;
 8000e1e:	edd1 3a00 	vldr	s7, [r1]
                     float hr = *hPtr++;  float hi = *hPtr++;
 8000e22:	f502 617f 	add.w	r1, r2, #4080	@ 0xff0
 8000e26:	ed91 2a00 	vldr	s4, [r1]
 8000e2a:	f602 71f4 	addw	r1, r2, #4084	@ 0xff4
 8000e2e:	edd1 2a00 	vldr	s5, [r1]
                     float xr = *xPtr++;  float xi = *xPtr++;
 8000e32:	f603 71fc 	addw	r1, r3, #4092	@ 0xffc
                     float accI = __builtin_fmaf(xr, hi,
 8000e36:	eee3 6a82 	vfma.f32	s13, s7, s4
                     float xr = *xPtr++;  float xi = *xPtr++;
 8000e3a:	ed91 1a00 	vldr	s2, [r1]
                     float hr = *hPtr++;  float hi = *hPtr++;
 8000e3e:	f602 71f8 	addw	r1, r2, #4088	@ 0xff8
 8000e42:	f602 72fc 	addw	r2, r2, #4092	@ 0xffc
                     float accR = __builtin_fmaf(xr, hr,
 8000e46:	eea3 6ae2 	vfms.f32	s12, s7, s5
                     float hr = *hPtr++;  float hi = *hPtr++;
 8000e4a:	ed91 3a00 	vldr	s6, [r1]
 8000e4e:	edd2 3a00 	vldr	s7, [r2]
                     float xr = *xPtr++;  float xi = *xPtr++;
 8000e52:	f603 72e8 	addw	r2, r3, #4072	@ 0xfe8
                     float accI = __builtin_fmaf(xr, hi,
 8000e56:	eee1 7a03 	vfma.f32	s15, s2, s6
                     float accR = __builtin_fmaf(xr, hr,
 8000e5a:	eea1 7a63 	vfms.f32	s14, s2, s7
                     float xr = *xPtr++;  float xi = *xPtr++;
 8000e5e:	ed92 1a00 	vldr	s2, [r2]
 8000e62:	f503 627f 	add.w	r2, r3, #4080	@ 0xff0
 8000e66:	f603 73f8 	addw	r3, r3, #4088	@ 0xff8
                     float accR = __builtin_fmaf(xr, hr,
 8000e6a:	eea1 4a20 	vfma.f32	s8, s2, s1
                     float accI = __builtin_fmaf(xr, hi,
 8000e6e:	eee1 4a21 	vfma.f32	s9, s2, s3
                     *yPtr     = accR;
 8000e72:	ed8b 4a00 	vstr	s8, [fp]
                     float xr = *xPtr++;  float xi = *xPtr++;
 8000e76:	ed92 4a00 	vldr	s8, [r2]
                     *(yPtr+1) = accI;
 8000e7a:	edca 4a00 	vstr	s9, [sl]
                     float accR = __builtin_fmaf(xr, hr,
 8000e7e:	eea4 6a02 	vfma.f32	s12, s8, s4
                     float xr = *xPtr++;  float xi = *xPtr++;
 8000e82:	edd3 4a00 	vldr	s9, [r3]
                     float accI = __builtin_fmaf(xr, hi,
 8000e86:	eee4 6a22 	vfma.f32	s13, s8, s5
                     *yPtr     = accR;
 8000e8a:	ed87 5a00 	vstr	s10, [r7]
                     float accR = __builtin_fmaf(xr, hr,
 8000e8e:	eea4 7a83 	vfma.f32	s14, s9, s6
                     *(yPtr+1) = accI;
 8000e92:	edc7 5a01 	vstr	s11, [r7, #4]
                     float accI = __builtin_fmaf(xr, hi,
 8000e96:	eee4 7aa3 	vfma.f32	s15, s9, s7
                     *yPtr     = accR;
 8000e9a:	ed89 6a00 	vstr	s12, [r9]
                     *(yPtr+1) = accI;
 8000e9e:	edc8 6a00 	vstr	s13, [r8]
                     *yPtr     = accR;
 8000ea2:	9b01      	ldr	r3, [sp, #4]
                     *(yPtr+1) = accI;
 8000ea4:	9a02      	ldr	r2, [sp, #8]
                     *yPtr     = accR;
 8000ea6:	ed83 7a00 	vstr	s14, [r3]
                     *(yPtr+1) = accI;
 8000eaa:	edc2 7a00 	vstr	s15, [r2]
		if (idx-- == 0) {
 8000eae:	b396      	cbz	r6, 8000f16 <partitioned_fir_convolution_fft+0x462>
 8000eb0:	3e01      	subs	r6, #1
    } while (idx != fir->curr_fftidx);
 8000eb2:	9b04      	ldr	r3, [sp, #16]
 8000eb4:	42b3      	cmp	r3, r6
 8000eb6:	f47f ae4d 	bne.w	8000b54 <partitioned_fir_convolution_fft+0xa0>

    // advance write index
    if (++fir->curr_fftidx >= segs) {
        fir->curr_fftidx = 0;
 8000eba:	9e03      	ldr	r6, [sp, #12]
    if (++fir->curr_fftidx >= segs) {
 8000ebc:	3301      	adds	r3, #1
    }

    // inverse FFT
    arm_rfft_fast_f32(&fft, fftOut, zeropaddedinput, 1);
 8000ebe:	4a17      	ldr	r2, [pc, #92]	@ (8000f1c <partitioned_fir_convolution_fft+0x468>)
        fir->curr_fftidx = 0;
 8000ec0:	42b3      	cmp	r3, r6
 8000ec2:	bf28      	it	cs
 8000ec4:	2300      	movcs	r3, #0
    arm_rfft_fast_f32(&fft, fftOut, zeropaddedinput, 1);
 8000ec6:	4916      	ldr	r1, [pc, #88]	@ (8000f20 <partitioned_fir_convolution_fft+0x46c>)
 8000ec8:	4816      	ldr	r0, [pc, #88]	@ (8000f24 <partitioned_fir_convolution_fft+0x470>)
    if (++fir->curr_fftidx >= segs) {
 8000eca:	e9dd 4508 	ldrd	r4, r5, [sp, #32]
 8000ece:	60ab      	str	r3, [r5, #8]
    arm_rfft_fast_f32(&fft, fftOut, zeropaddedinput, 1);
 8000ed0:	2301      	movs	r3, #1
 8000ed2:	f005 fddb 	bl	8006a8c <arm_rfft_fast_f32>

    // overlap-add and scaling
    const float32_t invN = 1.0f / (float32_t)segs;
 8000ed6:	ee07 6a90 	vmov	s15, r6
 8000eda:	eeb7 7a00 	vmov.f32	s14, #112	@ 0x3f800000  1.0
 8000ede:	4a0f      	ldr	r2, [pc, #60]	@ (8000f1c <partitioned_fir_convolution_fft+0x468>)
 8000ee0:	eef8 7a67 	vcvt.f32.u32	s15, s15
 8000ee4:	9b07      	ldr	r3, [sp, #28]
 8000ee6:	f502 5180 	add.w	r1, r2, #4096	@ 0x1000
 8000eea:	eec7 6a27 	vdiv.f32	s13, s14, s15
    for (uint32_t k = 0;  k < BUFFER_SIZE;  ++k) {
 8000eee:	460d      	mov	r5, r1
        float32_t s = zeropaddedinput[k]            * invN;
 8000ef0:	ecf2 7a01 	vldmia	r2!, {s15}
        float32_t o = overlap[k]                    * invN;
 8000ef4:	ed93 7a00 	vldr	s14, [r3]
    for (uint32_t k = 0;  k < BUFFER_SIZE;  ++k) {
 8000ef8:	4295      	cmp	r5, r2
        pipe->processBuffer[k] = s + o;
 8000efa:	ee77 7a87 	vadd.f32	s15, s15, s14
 8000efe:	ee67 7aa6 	vmul.f32	s15, s15, s13
 8000f02:	ece4 7a01 	vstmia	r4!, {s15}
        overlap[k]             = zeropaddedinput[BUFFER_SIZE + k];
 8000f06:	f851 0b04 	ldr.w	r0, [r1], #4
 8000f0a:	f843 0b04 	str.w	r0, [r3], #4
    for (uint32_t k = 0;  k < BUFFER_SIZE;  ++k) {
 8000f0e:	d1ef      	bne.n	8000ef0 <partitioned_fir_convolution_fft+0x43c>
    }

}
 8000f10:	b00b      	add	sp, #44	@ 0x2c
 8000f12:	e8bd 8ff0 	ldmia.w	sp!, {r4, r5, r6, r7, r8, r9, sl, fp, pc}
			idx = segs - 1;
 8000f16:	9b03      	ldr	r3, [sp, #12]
 8000f18:	1e5e      	subs	r6, r3, #1
 8000f1a:	e7ca      	b.n	8000eb2 <partitioned_fir_convolution_fft+0x3fe>
 8000f1c:	20003020 	.word	0x20003020
 8000f20:	2407531c 	.word	0x2407531c
 8000f24:	24006120 	.word	0x24006120

08000f28 <pipe_getDelayBuffer>:

float32_t *pipe_getDelayBuffer(pipe *self, uint16_t n)
{
    uint32_t offset = n * BUFFER_SIZE;

    uint32_t index = (self->delayIndex + DELAY_BUFFER_SIZE - offset) % DELAY_BUFFER_SIZE;
 8000f28:	f500 4370 	add.w	r3, r0, #61440	@ 0xf000
 8000f2c:	4a09      	ldr	r2, [pc, #36]	@ (8000f54 <pipe_getDelayBuffer+0x2c>)

    return &self->delayBuffer[index];
 8000f2e:	f241 4c02 	movw	ip, #5122	@ 0x1402
    uint32_t index = (self->delayIndex + DELAY_BUFFER_SIZE - offset) % DELAY_BUFFER_SIZE;
 8000f32:	68db      	ldr	r3, [r3, #12]
 8000f34:	f503 5320 	add.w	r3, r3, #10240	@ 0x2800
 8000f38:	eba3 2181 	sub.w	r1, r3, r1, lsl #10
 8000f3c:	fba2 2301 	umull	r2, r3, r2, r1
 8000f40:	0b5b      	lsrs	r3, r3, #13
 8000f42:	eb03 0383 	add.w	r3, r3, r3, lsl #2
 8000f46:	eba1 21c3 	sub.w	r1, r1, r3, lsl #11
    return &self->delayBuffer[index];
 8000f4a:	448c      	add	ip, r1
}
 8000f4c:	eb00 008c 	add.w	r0, r0, ip, lsl #2
 8000f50:	4770      	bx	lr
 8000f52:	bf00      	nop
 8000f54:	cccccccd 	.word	0xcccccccd

08000f58 <pipe_loadProcess>:
    }
}

static void pipe_loadProcess(pipe *self)
{
	arm_copy_f32(self->inBuffer, self->processBuffer, BUFFER_SIZE);
 8000f58:	f244 0108 	movw	r1, #16392	@ 0x4008
 8000f5c:	f500 4380 	add.w	r3, r0, #16384	@ 0x4000
 8000f60:	f44f 6280 	mov.w	r2, #1024	@ 0x400
 8000f64:	4401      	add	r1, r0
 8000f66:	6818      	ldr	r0, [r3, #0]
 8000f68:	f005 bcae 	b.w	80068c8 <arm_copy_f32>

08000f6c <pipe_updateDelayBuffer>:
{
 8000f6c:	b510      	push	{r4, lr}
    arm_copy_f32(self->inBuffer, &self->delayBuffer[self->delayIndex], BUFFER_SIZE);
 8000f6e:	f500 4470 	add.w	r4, r0, #61440	@ 0xf000
 8000f72:	f241 4102 	movw	r1, #5122	@ 0x1402
 8000f76:	f44f 6280 	mov.w	r2, #1024	@ 0x400
 8000f7a:	68e3      	ldr	r3, [r4, #12]
 8000f7c:	4419      	add	r1, r3
 8000f7e:	f500 4380 	add.w	r3, r0, #16384	@ 0x4000
 8000f82:	eb00 0181 	add.w	r1, r0, r1, lsl #2
 8000f86:	6818      	ldr	r0, [r3, #0]
 8000f88:	f005 fc9e 	bl	80068c8 <arm_copy_f32>
    self->delayIndex += BUFFER_SIZE;
 8000f8c:	68e3      	ldr	r3, [r4, #12]
 8000f8e:	f503 6380 	add.w	r3, r3, #1024	@ 0x400
        self->delayIndex = 0;
 8000f92:	f5b3 5f20 	cmp.w	r3, #10240	@ 0x2800
 8000f96:	bf28      	it	cs
 8000f98:	2300      	movcs	r3, #0
 8000f9a:	60e3      	str	r3, [r4, #12]
}
 8000f9c:	bd10      	pop	{r4, pc}
 8000f9e:	bf00      	nop

08000fa0 <pipe_updateDACOutput>:
{
 8000fa0:	b570      	push	{r4, r5, r6, lr}
    arm_offset_f32(self->outBuffer, 1.0f, self->outBuffer, BUFFER_SIZE);
 8000fa2:	f500 4580 	add.w	r5, r0, #16384	@ 0x4000
    uint8_t half = (self->ppState == 0) ? 1 : 0;
 8000fa6:	f500 4370 	add.w	r3, r0, #61440	@ 0xf000
{
 8000faa:	460c      	mov	r4, r1
    arm_offset_f32(self->outBuffer, 1.0f, self->outBuffer, BUFFER_SIZE);
 8000fac:	eeb7 0a00 	vmov.f32	s0, #112	@ 0x3f800000  1.0
 8000fb0:	6869      	ldr	r1, [r5, #4]
 8000fb2:	f44f 6280 	mov.w	r2, #1024	@ 0x400
    uint8_t half = (self->ppState == 0) ? 1 : 0;
 8000fb6:	7a1e      	ldrb	r6, [r3, #8]
    arm_offset_f32(self->outBuffer, 1.0f, self->outBuffer, BUFFER_SIZE);
 8000fb8:	4608      	mov	r0, r1
 8000fba:	f006 faef 	bl	800759c <arm_offset_f32>
    arm_scale_f32(self->outBuffer, DAC_VOLTS2BITS, self->outBuffer, BUFFER_SIZE);
 8000fbe:	6869      	ldr	r1, [r5, #4]
    uint8_t half = (self->ppState == 0) ? 1 : 0;
 8000fc0:	fab6 f686 	clz	r6, r6
    arm_scale_f32(self->outBuffer, DAC_VOLTS2BITS, self->outBuffer, BUFFER_SIZE);
 8000fc4:	f44f 6280 	mov.w	r2, #1024	@ 0x400
 8000fc8:	4608      	mov	r0, r1
 8000fca:	ed9f 0a0b 	vldr	s0, [pc, #44]	@ 8000ff8 <pipe_updateDACOutput+0x58>
 8000fce:	f006 faaf 	bl	8007530 <arm_scale_f32>
 8000fd2:	686a      	ldr	r2, [r5, #4]
    uint8_t half = (self->ppState == 0) ? 1 : 0;
 8000fd4:	0976      	lsrs	r6, r6, #5
    for (i = 0; i < BUFFER_SIZE; i++)
 8000fd6:	f502 5080 	add.w	r0, r2, #4096	@ 0x1000
 8000fda:	eb04 21c6 	add.w	r1, r4, r6, lsl #11
        dacBuffer[BUFFER_SIZE * half + i] = (uint16_t)self->outBuffer[i];
 8000fde:	ecf2 7a01 	vldmia	r2!, {s15}
 8000fe2:	eefc 7ae7 	vcvt.u32.f32	s15, s15
    for (i = 0; i < BUFFER_SIZE; i++)
 8000fe6:	4290      	cmp	r0, r2
        dacBuffer[BUFFER_SIZE * half + i] = (uint16_t)self->outBuffer[i];
 8000fe8:	ee17 3a90 	vmov	r3, s15
 8000fec:	b29b      	uxth	r3, r3
 8000fee:	f821 3b02 	strh.w	r3, [r1], #2
    for (i = 0; i < BUFFER_SIZE; i++)
 8000ff2:	d1f4      	bne.n	8000fde <pipe_updateDACOutput+0x3e>
}
 8000ff4:	bd70      	pop	{r4, r5, r6, pc}
 8000ff6:	bf00      	nop
 8000ff8:	45000000 	.word	0x45000000

08000ffc <pipe_ADC_Complete>:
{
 8000ffc:	b538      	push	{r3, r4, r5, lr}
 8000ffe:	f500 5580 	add.w	r5, r0, #4096	@ 0x1000
 8001002:	4604      	mov	r4, r0
    for (i = 0; i < BUFFER_SIZE; i++)
 8001004:	f501 6c00 	add.w	ip, r1, #2048	@ 0x800
 8001008:	f500 5e00 	add.w	lr, r0, #8192	@ 0x2000
 800100c:	462a      	mov	r2, r5
        self->inBuffer2[i] = (float32_t)adcInput[BUFFER_SIZE + i];
 800100e:	f83c 3b02 	ldrh.w	r3, [ip], #2
 8001012:	b29b      	uxth	r3, r3
 8001014:	ee07 3a90 	vmov	s15, r3
 8001018:	eef8 7a67 	vcvt.f32.u32	s15, s15
 800101c:	ece2 7a01 	vstmia	r2!, {s15}
    for (i = 0; i < BUFFER_SIZE; i++)
 8001020:	4572      	cmp	r2, lr
 8001022:	d1f4      	bne.n	800100e <pipe_ADC_Complete+0x12>
    arm_scale_f32(self->inBuffer2, ADC_BITS2VOLTS, self->inBuffer2, BUFFER_SIZE);
 8001024:	f44f 6280 	mov.w	r2, #1024	@ 0x400
 8001028:	4629      	mov	r1, r5
 800102a:	ed9f 0a0d 	vldr	s0, [pc, #52]	@ 8001060 <pipe_ADC_Complete+0x64>
 800102e:	4628      	mov	r0, r5
 8001030:	f006 fa7e 	bl	8007530 <arm_scale_f32>
    arm_offset_f32(self->inBuffer2, -1.0f, self->inBuffer2, BUFFER_SIZE);
 8001034:	f44f 6280 	mov.w	r2, #1024	@ 0x400
 8001038:	4629      	mov	r1, r5
 800103a:	eebf 0a00 	vmov.f32	s0, #240	@ 0xbf800000 -1.0
 800103e:	4628      	mov	r0, r5
 8001040:	f006 faac 	bl	800759c <arm_offset_f32>
    self->inBuffer  = self->inBuffer2;
 8001044:	f504 4280 	add.w	r2, r4, #16384	@ 0x4000
    self->ppState   = 0;
 8001048:	f504 4370 	add.w	r3, r4, #61440	@ 0xf000
    self->outBuffer = self->outBuffer2;
 800104c:	f504 5440 	add.w	r4, r4, #12288	@ 0x3000
    self->ppState   = 0;
 8001050:	2100      	movs	r1, #0
    self->outBuffer = self->outBuffer2;
 8001052:	e9c2 5400 	strd	r5, r4, [r2]
    self->bufferReady = true;
 8001056:	2201      	movs	r2, #1
    self->ppState   = 0;
 8001058:	7219      	strb	r1, [r3, #8]
    self->bufferReady = true;
 800105a:	741a      	strb	r2, [r3, #16]
}
 800105c:	bd38      	pop	{r3, r4, r5, pc}
 800105e:	bf00      	nop
 8001060:	38000000 	.word	0x38000000

08001064 <pipe_ADC_HalfComplete>:
{
 8001064:	b510      	push	{r4, lr}
 8001066:	468c      	mov	ip, r1
 8001068:	4604      	mov	r4, r0
    for (i = 0; i < BUFFER_SIZE; i++)
 800106a:	4602      	mov	r2, r0
 800106c:	f500 5e80 	add.w	lr, r0, #4096	@ 0x1000
        self->inBuffer1[i] = (float32_t)adcInput[i];
 8001070:	f83c 3b02 	ldrh.w	r3, [ip], #2
 8001074:	b29b      	uxth	r3, r3
 8001076:	ee07 3a90 	vmov	s15, r3
 800107a:	eef8 7a67 	vcvt.f32.u32	s15, s15
 800107e:	ece2 7a01 	vstmia	r2!, {s15}
    for (i = 0; i < BUFFER_SIZE; i++)
 8001082:	4572      	cmp	r2, lr
 8001084:	d1f4      	bne.n	8001070 <pipe_ADC_HalfComplete+0xc>
    arm_scale_f32(self->inBuffer1, ADC_BITS2VOLTS, self->inBuffer1, BUFFER_SIZE);
 8001086:	f44f 6280 	mov.w	r2, #1024	@ 0x400
 800108a:	4621      	mov	r1, r4
 800108c:	ed9f 0a0c 	vldr	s0, [pc, #48]	@ 80010c0 <pipe_ADC_HalfComplete+0x5c>
 8001090:	4620      	mov	r0, r4
 8001092:	f006 fa4d 	bl	8007530 <arm_scale_f32>
    arm_offset_f32(self->inBuffer1, -1.0f, self->inBuffer1, BUFFER_SIZE);
 8001096:	f44f 6280 	mov.w	r2, #1024	@ 0x400
 800109a:	4621      	mov	r1, r4
 800109c:	4620      	mov	r0, r4
 800109e:	eebf 0a00 	vmov.f32	s0, #240	@ 0xbf800000 -1.0
 80010a2:	f006 fa7b 	bl	800759c <arm_offset_f32>
    self->ppState   = 1;
 80010a6:	2201      	movs	r2, #1
 80010a8:	f504 4370 	add.w	r3, r4, #61440	@ 0xf000
    self->inBuffer  = self->inBuffer1;
 80010ac:	f504 4180 	add.w	r1, r4, #16384	@ 0x4000
    self->outBuffer = self->outBuffer1;
 80010b0:	f504 5000 	add.w	r0, r4, #8192	@ 0x2000
 80010b4:	e9c1 4000 	strd	r4, r0, [r1]
    self->ppState   = 1;
 80010b8:	721a      	strb	r2, [r3, #8]
    self->bufferReady = true;
 80010ba:	741a      	strb	r2, [r3, #16]
}
 80010bc:	bd10      	pop	{r4, pc}
 80010be:	bf00      	nop
 80010c0:	38000000 	.word	0x38000000

080010c4 <pipeInit>:
}

void pipeInit(pipe *self)
{
 80010c4:	4684      	mov	ip, r0
    self->delayIndex = 0;
    self->bufferReady = false;

    self->adcHalfComplete = pipe_ADC_HalfComplete;
    self->adcComplete     = pipe_ADC_Complete;
    self->updateDelayBuffer = pipe_updateDelayBuffer;
 80010c6:	4811      	ldr	r0, [pc, #68]	@ (800110c <pipeInit+0x48>)
    self->ppState   = 0;
 80010c8:	2100      	movs	r1, #0
    self->inBuffer  = self->inBuffer2;
 80010ca:	f50c 4280 	add.w	r2, ip, #16384	@ 0x4000
    self->ppState   = 0;
 80010ce:	f50c 4370 	add.w	r3, ip, #61440	@ 0xf000
{
 80010d2:	b470      	push	{r4, r5, r6}
    self->inBuffer  = self->inBuffer2;
 80010d4:	f50c 5680 	add.w	r6, ip, #4096	@ 0x1000
    self->adcHalfComplete = pipe_ADC_HalfComplete;
 80010d8:	4d0d      	ldr	r5, [pc, #52]	@ (8001110 <pipeInit+0x4c>)
    self->adcComplete     = pipe_ADC_Complete;
 80010da:	4c0e      	ldr	r4, [pc, #56]	@ (8001114 <pipeInit+0x50>)
    self->inBuffer  = self->inBuffer2;
 80010dc:	6016      	str	r6, [r2, #0]
    self->outBuffer = self->outBuffer2;
 80010de:	f50c 5640 	add.w	r6, ip, #12288	@ 0x3000
 80010e2:	6056      	str	r6, [r2, #4]
    self->updateDACOutput = pipe_updateDACOutput;
 80010e4:	4a0c      	ldr	r2, [pc, #48]	@ (8001118 <pipeInit+0x54>)
    self->adcHalfComplete = pipe_ADC_HalfComplete;
 80010e6:	615d      	str	r5, [r3, #20]
    self->ppState   = 0;
 80010e8:	7219      	strb	r1, [r3, #8]
    self->adcComplete     = pipe_ADC_Complete;
 80010ea:	619c      	str	r4, [r3, #24]
    self->delayIndex = 0;
 80010ec:	60d9      	str	r1, [r3, #12]
    self->bufferReady = false;
 80010ee:	7419      	strb	r1, [r3, #16]
    self->updateDACOutput = pipe_updateDACOutput;
 80010f0:	e9c3 0207 	strd	r0, r2, [r3, #28]
    self->getDelayBuffer = pipe_getDelayBuffer;
 80010f4:	4809      	ldr	r0, [pc, #36]	@ (800111c <pipeInit+0x58>)
    self->loadProcess = pipe_loadProcess;
 80010f6:	4a0a      	ldr	r2, [pc, #40]	@ (8001120 <pipeInit+0x5c>)
 80010f8:	e9c3 0209 	strd	r0, r2, [r3, #36]	@ 0x24

    for(int i = 0; i < BUFFER_SIZE ; i++) {

    	self->processBuffer[i] = 0;
 80010fc:	f244 0008 	movw	r0, #16392	@ 0x4008
 8001100:	f44f 5280 	mov.w	r2, #4096	@ 0x1000
 8001104:	4460      	add	r0, ip

    }

}
 8001106:	bc70      	pop	{r4, r5, r6}
    	self->processBuffer[i] = 0;
 8001108:	f006 bdea 	b.w	8007ce0 <memset>
 800110c:	08000f6d 	.word	0x08000f6d
 8001110:	08001065 	.word	0x08001065
 8001114:	08000ffd 	.word	0x08000ffd
 8001118:	08000fa1 	.word	0x08000fa1
 800111c:	08000f29 	.word	0x08000f29
 8001120:	08000f59 	.word	0x08000f59

08001124 <HAL_MspInit>:

  /* USER CODE BEGIN MspInit 0 */

  /* USER CODE END MspInit 0 */

  __HAL_RCC_SYSCFG_CLK_ENABLE();
 8001124:	4b07      	ldr	r3, [pc, #28]	@ (8001144 <HAL_MspInit+0x20>)
{
 8001126:	b082      	sub	sp, #8
  __HAL_RCC_SYSCFG_CLK_ENABLE();
 8001128:	f8d3 20f4 	ldr.w	r2, [r3, #244]	@ 0xf4
 800112c:	f042 0202 	orr.w	r2, r2, #2
 8001130:	f8c3 20f4 	str.w	r2, [r3, #244]	@ 0xf4
 8001134:	f8d3 30f4 	ldr.w	r3, [r3, #244]	@ 0xf4
 8001138:	f003 0302 	and.w	r3, r3, #2
 800113c:	9301      	str	r3, [sp, #4]
 800113e:	9b01      	ldr	r3, [sp, #4]
  /* System interrupt init*/

  /* USER CODE BEGIN MspInit 1 */

  /* USER CODE END MspInit 1 */
}
 8001140:	b002      	add	sp, #8
 8001142:	4770      	bx	lr
 8001144:	58024400 	.word	0x58024400

08001148 <HAL_ADC_MspInit>:
* This function configures the hardware resources used in this example
* @param hadc: ADC handle pointer
* @retval None
*/
void HAL_ADC_MspInit(ADC_HandleTypeDef* hadc)
{
 8001148:	b570      	push	{r4, r5, r6, lr}
 800114a:	b0b8      	sub	sp, #224	@ 0xe0
  GPIO_InitTypeDef GPIO_InitStruct = {0};
 800114c:	2100      	movs	r1, #0
{
 800114e:	4604      	mov	r4, r0
  RCC_PeriphCLKInitTypeDef PeriphClkInitStruct = {0};
 8001150:	22c0      	movs	r2, #192	@ 0xc0
 8001152:	a808      	add	r0, sp, #32
  GPIO_InitTypeDef GPIO_InitStruct = {0};
 8001154:	9106      	str	r1, [sp, #24]
 8001156:	e9cd 1102 	strd	r1, r1, [sp, #8]
 800115a:	e9cd 1104 	strd	r1, r1, [sp, #16]
  RCC_PeriphCLKInitTypeDef PeriphClkInitStruct = {0};
 800115e:	f006 fdbf 	bl	8007ce0 <memset>
  if(hadc->Instance==ADC1)
 8001162:	4b31      	ldr	r3, [pc, #196]	@ (8001228 <HAL_ADC_MspInit+0xe0>)
 8001164:	6822      	ldr	r2, [r4, #0]
 8001166:	429a      	cmp	r2, r3
 8001168:	d001      	beq.n	800116e <HAL_ADC_MspInit+0x26>

  /* USER CODE END ADC1_MspInit 1 */

  }

}
 800116a:	b038      	add	sp, #224	@ 0xe0
 800116c:	bd70      	pop	{r4, r5, r6, pc}
    PeriphClkInitStruct.PeriphClockSelection = RCC_PERIPHCLK_ADC;
 800116e:	2300      	movs	r3, #0
 8001170:	f44f 2200 	mov.w	r2, #524288	@ 0x80000
    if (HAL_RCCEx_PeriphCLKConfig(&PeriphClkInitStruct) != HAL_OK)
 8001174:	a808      	add	r0, sp, #32
    PeriphClkInitStruct.PeriphClockSelection = RCC_PERIPHCLK_ADC;
 8001176:	e9cd 2308 	strd	r2, r3, [sp, #32]
    PeriphClkInitStruct.AdcClockSelection = RCC_ADCCLKSOURCE_CLKP;
 800117a:	f44f 3300 	mov.w	r3, #131072	@ 0x20000
 800117e:	9331      	str	r3, [sp, #196]	@ 0xc4
    if (HAL_RCCEx_PeriphCLKConfig(&PeriphClkInitStruct) != HAL_OK)
 8001180:	f003 febc 	bl	8004efc <HAL_RCCEx_PeriphCLKConfig>
 8001184:	2800      	cmp	r0, #0
 8001186:	d148      	bne.n	800121a <HAL_ADC_MspInit+0xd2>
    __HAL_RCC_ADC12_CLK_ENABLE();
 8001188:	4b28      	ldr	r3, [pc, #160]	@ (800122c <HAL_ADC_MspInit+0xe4>)
    GPIO_InitStruct.Pull = GPIO_NOPULL;
 800118a:	2600      	movs	r6, #0
    HAL_GPIO_Init(GPIOA, &GPIO_InitStruct);
 800118c:	a902      	add	r1, sp, #8
    hdma_adc1.Instance = DMA1_Stream0;
 800118e:	4d28      	ldr	r5, [pc, #160]	@ (8001230 <HAL_ADC_MspInit+0xe8>)
    __HAL_RCC_ADC12_CLK_ENABLE();
 8001190:	f8d3 20d8 	ldr.w	r2, [r3, #216]	@ 0xd8
 8001194:	f042 0220 	orr.w	r2, r2, #32
 8001198:	f8c3 20d8 	str.w	r2, [r3, #216]	@ 0xd8
 800119c:	f8d3 20d8 	ldr.w	r2, [r3, #216]	@ 0xd8
 80011a0:	f002 0220 	and.w	r2, r2, #32
 80011a4:	9200      	str	r2, [sp, #0]
 80011a6:	9a00      	ldr	r2, [sp, #0]
    __HAL_RCC_GPIOA_CLK_ENABLE();
 80011a8:	f8d3 20e0 	ldr.w	r2, [r3, #224]	@ 0xe0
 80011ac:	f042 0201 	orr.w	r2, r2, #1
 80011b0:	f8c3 20e0 	str.w	r2, [r3, #224]	@ 0xe0
    GPIO_InitStruct.Pin = GPIO_PIN_0;
 80011b4:	2201      	movs	r2, #1
    __HAL_RCC_GPIOA_CLK_ENABLE();
 80011b6:	f8d3 30e0 	ldr.w	r3, [r3, #224]	@ 0xe0
    GPIO_InitStruct.Pull = GPIO_NOPULL;
 80011ba:	9604      	str	r6, [sp, #16]
    __HAL_RCC_GPIOA_CLK_ENABLE();
 80011bc:	f003 0301 	and.w	r3, r3, #1
 80011c0:	9301      	str	r3, [sp, #4]
    GPIO_InitStruct.Pin = GPIO_PIN_0;
 80011c2:	2303      	movs	r3, #3
    __HAL_RCC_GPIOA_CLK_ENABLE();
 80011c4:	9801      	ldr	r0, [sp, #4]
    HAL_GPIO_Init(GPIOA, &GPIO_InitStruct);
 80011c6:	481b      	ldr	r0, [pc, #108]	@ (8001234 <HAL_ADC_MspInit+0xec>)
    GPIO_InitStruct.Pin = GPIO_PIN_0;
 80011c8:	e9cd 2302 	strd	r2, r3, [sp, #8]
    HAL_GPIO_Init(GPIOA, &GPIO_InitStruct);
 80011cc:	f002 fde8 	bl	8003da0 <HAL_GPIO_Init>
    hdma_adc1.Instance = DMA1_Stream0;
 80011d0:	4a19      	ldr	r2, [pc, #100]	@ (8001238 <HAL_ADC_MspInit+0xf0>)
    hdma_adc1.Init.Request = DMA_REQUEST_ADC1;
 80011d2:	2309      	movs	r3, #9
    if (HAL_DMA_Init(&hdma_adc1) != HAL_OK)
 80011d4:	4628      	mov	r0, r5
    hdma_adc1.Init.FIFOMode = DMA_FIFOMODE_DISABLE;
 80011d6:	626e      	str	r6, [r5, #36]	@ 0x24
    hdma_adc1.Init.Request = DMA_REQUEST_ADC1;
 80011d8:	e885 004c 	stmia.w	r5, {r2, r3, r6}
    hdma_adc1.Init.MemInc = DMA_MINC_ENABLE;
 80011dc:	f44f 6280 	mov.w	r2, #1024	@ 0x400
    hdma_adc1.Init.PeriphDataAlignment = DMA_PDATAALIGN_HALFWORD;
 80011e0:	f44f 6300 	mov.w	r3, #2048	@ 0x800
    hdma_adc1.Init.MemInc = DMA_MINC_ENABLE;
 80011e4:	e9c5 6203 	strd	r6, r2, [r5, #12]
    hdma_adc1.Init.PeriphDataAlignment = DMA_PDATAALIGN_HALFWORD;
 80011e8:	616b      	str	r3, [r5, #20]
    hdma_adc1.Init.Mode = DMA_CIRCULAR;
 80011ea:	f44f 5200 	mov.w	r2, #8192	@ 0x2000
 80011ee:	f44f 7380 	mov.w	r3, #256	@ 0x100
 80011f2:	e9c5 2306 	strd	r2, r3, [r5, #24]
    hdma_adc1.Init.Priority = DMA_PRIORITY_HIGH;
 80011f6:	f44f 3300 	mov.w	r3, #131072	@ 0x20000
 80011fa:	622b      	str	r3, [r5, #32]
    if (HAL_DMA_Init(&hdma_adc1) != HAL_OK)
 80011fc:	f001 fdfa 	bl	8002df4 <HAL_DMA_Init>
 8001200:	b970      	cbnz	r0, 8001220 <HAL_ADC_MspInit+0xd8>
    HAL_NVIC_SetPriority(ADC_IRQn, 0, 0);
 8001202:	2200      	movs	r2, #0
 8001204:	2012      	movs	r0, #18
    __HAL_LINKDMA(hadc,DMA_Handle,hdma_adc1);
 8001206:	64e5      	str	r5, [r4, #76]	@ 0x4c
    HAL_NVIC_SetPriority(ADC_IRQn, 0, 0);
 8001208:	4611      	mov	r1, r2
    __HAL_LINKDMA(hadc,DMA_Handle,hdma_adc1);
 800120a:	63ac      	str	r4, [r5, #56]	@ 0x38
    HAL_NVIC_SetPriority(ADC_IRQn, 0, 0);
 800120c:	f001 faaa 	bl	8002764 <HAL_NVIC_SetPriority>
    HAL_NVIC_EnableIRQ(ADC_IRQn);
 8001210:	2012      	movs	r0, #18
 8001212:	f001 fae3 	bl	80027dc <HAL_NVIC_EnableIRQ>
}
 8001216:	b038      	add	sp, #224	@ 0xe0
 8001218:	bd70      	pop	{r4, r5, r6, pc}
      Error_Handler();
 800121a:	f7ff fc05 	bl	8000a28 <Error_Handler>
 800121e:	e7b3      	b.n	8001188 <HAL_ADC_MspInit+0x40>
      Error_Handler();
 8001220:	f7ff fc02 	bl	8000a28 <Error_Handler>
 8001224:	e7ed      	b.n	8001202 <HAL_ADC_MspInit+0xba>
 8001226:	bf00      	nop
 8001228:	40022000 	.word	0x40022000
 800122c:	58024400 	.word	0x58024400
 8001230:	2401523c 	.word	0x2401523c
 8001234:	58020000 	.word	0x58020000
 8001238:	40020010 	.word	0x40020010

0800123c <HAL_DAC_MspInit>:
* @retval None
*/
void HAL_DAC_MspInit(DAC_HandleTypeDef* hdac)
{
  GPIO_InitTypeDef GPIO_InitStruct = {0};
  if(hdac->Instance==DAC1)
 800123c:	4b2c      	ldr	r3, [pc, #176]	@ (80012f0 <HAL_DAC_MspInit+0xb4>)
 800123e:	6802      	ldr	r2, [r0, #0]
{
 8001240:	b570      	push	{r4, r5, r6, lr}
  if(hdac->Instance==DAC1)
 8001242:	429a      	cmp	r2, r3
{
 8001244:	b088      	sub	sp, #32
  GPIO_InitTypeDef GPIO_InitStruct = {0};
 8001246:	f04f 0400 	mov.w	r4, #0
 800124a:	e9cd 4402 	strd	r4, r4, [sp, #8]
 800124e:	9404      	str	r4, [sp, #16]
 8001250:	e9cd 4405 	strd	r4, r4, [sp, #20]
  if(hdac->Instance==DAC1)
 8001254:	d001      	beq.n	800125a <HAL_DAC_MspInit+0x1e>

  /* USER CODE END DAC1_MspInit 1 */

  }

}
 8001256:	b008      	add	sp, #32
 8001258:	bd70      	pop	{r4, r5, r6, pc}
    __HAL_RCC_DAC12_CLK_ENABLE();
 800125a:	4b26      	ldr	r3, [pc, #152]	@ (80012f4 <HAL_DAC_MspInit+0xb8>)
 800125c:	4605      	mov	r5, r0
    HAL_GPIO_Init(GPIOA, &GPIO_InitStruct);
 800125e:	a902      	add	r1, sp, #8
    hdma_dac1_ch1.Instance = DMA1_Stream1;
 8001260:	4e25      	ldr	r6, [pc, #148]	@ (80012f8 <HAL_DAC_MspInit+0xbc>)
    __HAL_RCC_DAC12_CLK_ENABLE();
 8001262:	f8d3 20e8 	ldr.w	r2, [r3, #232]	@ 0xe8
 8001266:	f042 5200 	orr.w	r2, r2, #536870912	@ 0x20000000
 800126a:	f8c3 20e8 	str.w	r2, [r3, #232]	@ 0xe8
 800126e:	f8d3 20e8 	ldr.w	r2, [r3, #232]	@ 0xe8
 8001272:	f002 5200 	and.w	r2, r2, #536870912	@ 0x20000000
 8001276:	9200      	str	r2, [sp, #0]
 8001278:	9a00      	ldr	r2, [sp, #0]
    __HAL_RCC_GPIOA_CLK_ENABLE();
 800127a:	f8d3 20e0 	ldr.w	r2, [r3, #224]	@ 0xe0
 800127e:	f042 0201 	orr.w	r2, r2, #1
 8001282:	f8c3 20e0 	str.w	r2, [r3, #224]	@ 0xe0
    GPIO_InitStruct.Pin = GPIO_PIN_4;
 8001286:	2210      	movs	r2, #16
    __HAL_RCC_GPIOA_CLK_ENABLE();
 8001288:	f8d3 30e0 	ldr.w	r3, [r3, #224]	@ 0xe0
 800128c:	f003 0301 	and.w	r3, r3, #1
 8001290:	9301      	str	r3, [sp, #4]
    GPIO_InitStruct.Pin = GPIO_PIN_4;
 8001292:	2303      	movs	r3, #3
    __HAL_RCC_GPIOA_CLK_ENABLE();
 8001294:	9801      	ldr	r0, [sp, #4]
    HAL_GPIO_Init(GPIOA, &GPIO_InitStruct);
 8001296:	4819      	ldr	r0, [pc, #100]	@ (80012fc <HAL_DAC_MspInit+0xc0>)
    GPIO_InitStruct.Pin = GPIO_PIN_4;
 8001298:	e9cd 2302 	strd	r2, r3, [sp, #8]
    HAL_GPIO_Init(GPIOA, &GPIO_InitStruct);
 800129c:	f002 fd80 	bl	8003da0 <HAL_GPIO_Init>
    hdma_dac1_ch1.Instance = DMA1_Stream1;
 80012a0:	4a17      	ldr	r2, [pc, #92]	@ (8001300 <HAL_DAC_MspInit+0xc4>)
    hdma_dac1_ch1.Init.Request = DMA_REQUEST_DAC1;
 80012a2:	2343      	movs	r3, #67	@ 0x43
    if (HAL_DMA_Init(&hdma_dac1_ch1) != HAL_OK)
 80012a4:	4630      	mov	r0, r6
    hdma_dac1_ch1.Init.PeriphInc = DMA_PINC_DISABLE;
 80012a6:	60f4      	str	r4, [r6, #12]
    hdma_dac1_ch1.Init.Priority = DMA_PRIORITY_LOW;
 80012a8:	6234      	str	r4, [r6, #32]
    hdma_dac1_ch1.Init.FIFOMode = DMA_FIFOMODE_DISABLE;
 80012aa:	6274      	str	r4, [r6, #36]	@ 0x24
    hdma_dac1_ch1.Init.Request = DMA_REQUEST_DAC1;
 80012ac:	e9c6 2300 	strd	r2, r3, [r6]
    hdma_dac1_ch1.Init.Direction = DMA_MEMORY_TO_PERIPH;
 80012b0:	2240      	movs	r2, #64	@ 0x40
    hdma_dac1_ch1.Init.MemInc = DMA_MINC_ENABLE;
 80012b2:	f44f 6380 	mov.w	r3, #1024	@ 0x400
    hdma_dac1_ch1.Init.Direction = DMA_MEMORY_TO_PERIPH;
 80012b6:	60b2      	str	r2, [r6, #8]
    hdma_dac1_ch1.Init.MemDataAlignment = DMA_MDATAALIGN_HALFWORD;
 80012b8:	f44f 6200 	mov.w	r2, #2048	@ 0x800
    hdma_dac1_ch1.Init.MemInc = DMA_MINC_ENABLE;
 80012bc:	6133      	str	r3, [r6, #16]
    hdma_dac1_ch1.Init.MemDataAlignment = DMA_MDATAALIGN_HALFWORD;
 80012be:	f44f 5300 	mov.w	r3, #8192	@ 0x2000
 80012c2:	e9c6 2305 	strd	r2, r3, [r6, #20]
    hdma_dac1_ch1.Init.Mode = DMA_CIRCULAR;
 80012c6:	f44f 7380 	mov.w	r3, #256	@ 0x100
 80012ca:	61f3      	str	r3, [r6, #28]
    if (HAL_DMA_Init(&hdma_dac1_ch1) != HAL_OK)
 80012cc:	f001 fd92 	bl	8002df4 <HAL_DMA_Init>
 80012d0:	b958      	cbnz	r0, 80012ea <HAL_DAC_MspInit+0xae>
    HAL_NVIC_SetPriority(TIM6_DAC_IRQn, 0, 0);
 80012d2:	2200      	movs	r2, #0
    __HAL_LINKDMA(hdac,DMA_Handle1,hdma_dac1_ch1);
 80012d4:	60ae      	str	r6, [r5, #8]
    HAL_NVIC_SetPriority(TIM6_DAC_IRQn, 0, 0);
 80012d6:	2036      	movs	r0, #54	@ 0x36
    __HAL_LINKDMA(hdac,DMA_Handle1,hdma_dac1_ch1);
 80012d8:	63b5      	str	r5, [r6, #56]	@ 0x38
    HAL_NVIC_SetPriority(TIM6_DAC_IRQn, 0, 0);
 80012da:	4611      	mov	r1, r2
 80012dc:	f001 fa42 	bl	8002764 <HAL_NVIC_SetPriority>
    HAL_NVIC_EnableIRQ(TIM6_DAC_IRQn);
 80012e0:	2036      	movs	r0, #54	@ 0x36
 80012e2:	f001 fa7b 	bl	80027dc <HAL_NVIC_EnableIRQ>
}
 80012e6:	b008      	add	sp, #32
 80012e8:	bd70      	pop	{r4, r5, r6, pc}
      Error_Handler();
 80012ea:	f7ff fb9d 	bl	8000a28 <Error_Handler>
 80012ee:	e7f0      	b.n	80012d2 <HAL_DAC_MspInit+0x96>
 80012f0:	40007400 	.word	0x40007400
 80012f4:	58024400 	.word	0x58024400
 80012f8:	240151b0 	.word	0x240151b0
 80012fc:	58020000 	.word	0x58020000
 8001300:	40020028 	.word	0x40020028

08001304 <HAL_TIM_Base_MspInit>:
* @param htim_base: TIM_Base handle pointer
* @retval None
*/
void HAL_TIM_Base_MspInit(TIM_HandleTypeDef* htim_base)
{
  if(htim_base->Instance==TIM8)
 8001304:	4b0a      	ldr	r3, [pc, #40]	@ (8001330 <HAL_TIM_Base_MspInit+0x2c>)
 8001306:	6802      	ldr	r2, [r0, #0]
 8001308:	429a      	cmp	r2, r3
 800130a:	d000      	beq.n	800130e <HAL_TIM_Base_MspInit+0xa>
 800130c:	4770      	bx	lr
  {
  /* USER CODE BEGIN TIM8_MspInit 0 */

  /* USER CODE END TIM8_MspInit 0 */
    /* Peripheral clock enable */
    __HAL_RCC_TIM8_CLK_ENABLE();
 800130e:	4b09      	ldr	r3, [pc, #36]	@ (8001334 <HAL_TIM_Base_MspInit+0x30>)
{
 8001310:	b082      	sub	sp, #8
    __HAL_RCC_TIM8_CLK_ENABLE();
 8001312:	f8d3 20f0 	ldr.w	r2, [r3, #240]	@ 0xf0
 8001316:	f042 0202 	orr.w	r2, r2, #2
 800131a:	f8c3 20f0 	str.w	r2, [r3, #240]	@ 0xf0
 800131e:	f8d3 30f0 	ldr.w	r3, [r3, #240]	@ 0xf0
 8001322:	f003 0302 	and.w	r3, r3, #2
 8001326:	9301      	str	r3, [sp, #4]
 8001328:	9b01      	ldr	r3, [sp, #4]

  /* USER CODE END TIM8_MspInit 1 */

  }

}
 800132a:	b002      	add	sp, #8
 800132c:	4770      	bx	lr
 800132e:	bf00      	nop
 8001330:	40010400 	.word	0x40010400
 8001334:	58024400 	.word	0x58024400

08001338 <NMI_Handler>:
{
  /* USER CODE BEGIN NonMaskableInt_IRQn 0 */

  /* USER CODE END NonMaskableInt_IRQn 0 */
  /* USER CODE BEGIN NonMaskableInt_IRQn 1 */
   while (1)
 8001338:	e7fe      	b.n	8001338 <NMI_Handler>
 800133a:	bf00      	nop

0800133c <HardFault_Handler>:
void HardFault_Handler(void)
{
  /* USER CODE BEGIN HardFault_IRQn 0 */

  /* USER CODE END HardFault_IRQn 0 */
  while (1)
 800133c:	e7fe      	b.n	800133c <HardFault_Handler>
 800133e:	bf00      	nop

08001340 <MemManage_Handler>:
void MemManage_Handler(void)
{
  /* USER CODE BEGIN MemoryManagement_IRQn 0 */

  /* USER CODE END MemoryManagement_IRQn 0 */
  while (1)
 8001340:	e7fe      	b.n	8001340 <MemManage_Handler>
 8001342:	bf00      	nop

08001344 <BusFault_Handler>:
void BusFault_Handler(void)
{
  /* USER CODE BEGIN BusFault_IRQn 0 */

  /* USER CODE END BusFault_IRQn 0 */
  while (1)
 8001344:	e7fe      	b.n	8001344 <BusFault_Handler>
 8001346:	bf00      	nop

08001348 <UsageFault_Handler>:
void UsageFault_Handler(void)
{
  /* USER CODE BEGIN UsageFault_IRQn 0 */

  /* USER CODE END UsageFault_IRQn 0 */
  while (1)
 8001348:	e7fe      	b.n	8001348 <UsageFault_Handler>
 800134a:	bf00      	nop

0800134c <SVC_Handler>:

  /* USER CODE END SVCall_IRQn 0 */
  /* USER CODE BEGIN SVCall_IRQn 1 */

  /* USER CODE END SVCall_IRQn 1 */
}
 800134c:	4770      	bx	lr
 800134e:	bf00      	nop

08001350 <DebugMon_Handler>:

/**
  * @brief This function handles Debug monitor.
  */
void DebugMon_Handler(void)
 8001350:	4770      	bx	lr
 8001352:	bf00      	nop

08001354 <PendSV_Handler>:
}

/**
  * @brief This function handles Pendable request for system service.
  */
void PendSV_Handler(void)
 8001354:	4770      	bx	lr
 8001356:	bf00      	nop

08001358 <SysTick_Handler>:
void SysTick_Handler(void)
{
  /* USER CODE BEGIN SysTick_IRQn 0 */

  /* USER CODE END SysTick_IRQn 0 */
  HAL_IncTick();
 8001358:	f000 baaa 	b.w	80018b0 <HAL_IncTick>

0800135c <DMA1_Stream0_IRQHandler>:
void DMA1_Stream0_IRQHandler(void)
{
  /* USER CODE BEGIN DMA1_Stream0_IRQn 0 */

  /* USER CODE END DMA1_Stream0_IRQn 0 */
  HAL_DMA_IRQHandler(&hdma_adc1);
 800135c:	4801      	ldr	r0, [pc, #4]	@ (8001364 <DMA1_Stream0_IRQHandler+0x8>)
 800135e:	f002 bb0d 	b.w	800397c <HAL_DMA_IRQHandler>
 8001362:	bf00      	nop
 8001364:	2401523c 	.word	0x2401523c

08001368 <DMA1_Stream1_IRQHandler>:
void DMA1_Stream1_IRQHandler(void)
{
  /* USER CODE BEGIN DMA1_Stream1_IRQn 0 */

  /* USER CODE END DMA1_Stream1_IRQn 0 */
  HAL_DMA_IRQHandler(&hdma_dac1_ch1);
 8001368:	4801      	ldr	r0, [pc, #4]	@ (8001370 <DMA1_Stream1_IRQHandler+0x8>)
 800136a:	f002 bb07 	b.w	800397c <HAL_DMA_IRQHandler>
 800136e:	bf00      	nop
 8001370:	240151b0 	.word	0x240151b0

08001374 <ADC_IRQHandler>:
void ADC_IRQHandler(void)
{
  /* USER CODE BEGIN ADC_IRQn 0 */

  /* USER CODE END ADC_IRQn 0 */
  HAL_ADC_IRQHandler(&hadc1);
 8001374:	4801      	ldr	r0, [pc, #4]	@ (800137c <ADC_IRQHandler+0x8>)
 8001376:	f000 babd 	b.w	80018f4 <HAL_ADC_IRQHandler>
 800137a:	bf00      	nop
 800137c:	240152b4 	.word	0x240152b4

08001380 <TIM6_DAC_IRQHandler>:
void TIM6_DAC_IRQHandler(void)
{
  /* USER CODE BEGIN TIM6_DAC_IRQn 0 */

  /* USER CODE END TIM6_DAC_IRQn 0 */
  HAL_DAC_IRQHandler(&hdac1);
 8001380:	4801      	ldr	r0, [pc, #4]	@ (8001388 <TIM6_DAC_IRQHandler+0x8>)
 8001382:	f001 bb4f 	b.w	8002a24 <HAL_DAC_IRQHandler>
 8001386:	bf00      	nop
 8001388:	24015228 	.word	0x24015228

0800138c <supro_process>:


/* --- implementation --- */

void supro_process(pipe *p)
{
 800138c:	e92d 4ff8 	stmdb	sp!, {r3, r4, r5, r6, r7, r8, r9, sl, fp, lr}

	arm_scale_f32(p->processBuffer, 0.1, p->processBuffer, BUFFER_SIZE);
 8001390:	f244 0708 	movw	r7, #16392	@ 0x4008
 8001394:	ed9f 0a90 	vldr	s0, [pc, #576]	@ 80015d8 <supro_process+0x24c>
 8001398:	f44f 6280 	mov.w	r2, #1024	@ 0x400
{
 800139c:	4683      	mov	fp, r0
	arm_scale_f32(p->processBuffer, 0.1, p->processBuffer, BUFFER_SIZE);
 800139e:	4407      	add	r7, r0

    /* 1) Compute squared signal into scratch */
    arm_mult_f32(x, x, scratch, BUFFER_SIZE);

    /* 2) Low‑pass envelope: scratch→env */
    arm_biquad_cascade_df1_f32(&preampLP, scratch, env, BUFFER_SIZE);
 80013a0:	4e8e      	ldr	r6, [pc, #568]	@ (80015dc <supro_process+0x250>)
{
 80013a2:	ed2d 8b0a 	vpush	{d8-d12}
	arm_scale_f32(p->processBuffer, 0.1, p->processBuffer, BUFFER_SIZE);
 80013a6:	4639      	mov	r1, r7
 80013a8:	4638      	mov	r0, r7
 80013aa:	f006 f8c1 	bl	8007530 <arm_scale_f32>
	partitioned_fir_convolution_fft(p, supro_sim.fir1, state);
 80013ae:	4b8c      	ldr	r3, [pc, #560]	@ (80015e0 <supro_process+0x254>)
 80013b0:	4a8c      	ldr	r2, [pc, #560]	@ (80015e4 <supro_process+0x258>)
 80013b2:	4658      	mov	r0, fp
 80013b4:	6819      	ldr	r1, [r3, #0]
 80013b6:	f506 5580 	add.w	r5, r6, #4096	@ 0x1000
 80013ba:	f7ff fb7b 	bl	8000ab4 <partitioned_fir_convolution_fft>
    arm_mult_f32(x, x, scratch, BUFFER_SIZE);
 80013be:	f44f 6380 	mov.w	r3, #1024	@ 0x400
 80013c2:	4a89      	ldr	r2, [pc, #548]	@ (80015e8 <supro_process+0x25c>)
 80013c4:	4639      	mov	r1, r7
 80013c6:	4638      	mov	r0, r7
 80013c8:	f006 f91e 	bl	8007608 <arm_mult_f32>
    arm_biquad_cascade_df1_f32(&preampLP, scratch, env, BUFFER_SIZE);
 80013cc:	f44f 6380 	mov.w	r3, #1024	@ 0x400
 80013d0:	4985      	ldr	r1, [pc, #532]	@ (80015e8 <supro_process+0x25c>)
 80013d2:	4632      	mov	r2, r6
 80013d4:	4885      	ldr	r0, [pc, #532]	@ (80015ec <supro_process+0x260>)
 80013d6:	f005 ffdf 	bl	8007398 <arm_biquad_cascade_df1_f32>

    /* 3) envelope = sqrt(2 * env) (in env) */
    arm_scale_f32(env, 2.0f, env, BUFFER_SIZE);
 80013da:	eeb0 0a00 	vmov.f32	s0, #0	@ 0x40000000  2.0
 80013de:	f44f 6280 	mov.w	r2, #1024	@ 0x400
 80013e2:	4631      	mov	r1, r6
 80013e4:	4630      	mov	r0, r6
 80013e6:	f006 f8a3 	bl	8007530 <arm_scale_f32>
    for (uint32_t i = 0; i < BUFFER_SIZE; ++i) {
        float32_t v = env[i];
        env[i] = sqrtf(v > 0.0f ? v : 0.0f);
 80013ea:	eddf 6a81 	vldr	s13, [pc, #516]	@ 80015f0 <supro_process+0x264>
    arm_scale_f32(env, 2.0f, env, BUFFER_SIZE);
 80013ee:	4633      	mov	r3, r6
        float32_t v = env[i];
 80013f0:	edd3 7a00 	vldr	s15, [r3]
        env[i] = sqrtf(v > 0.0f ? v : 0.0f);
 80013f4:	fec7 7aa6 	vmaxnm.f32	s15, s15, s13
 80013f8:	eeb1 7ae7 	vsqrt.f32	s14, s15
 80013fc:	eca3 7a01 	vstmia	r3!, {s14}
    for (uint32_t i = 0; i < BUFFER_SIZE; ++i) {
 8001400:	42ab      	cmp	r3, r5
 8001402:	d1f5      	bne.n	80013f0 <supro_process+0x64>
    }

    /* 4) pre‑gain path: xpre = gPre * x  (in scratch) */
    arm_scale_f32(x, gPre, scratch, BUFFER_SIZE);
 8001404:	ed9f 0a7b 	vldr	s0, [pc, #492]	@ 80015f4 <supro_process+0x268>
 8001408:	f44f 6280 	mov.w	r2, #1024	@ 0x400
 800140c:	4976      	ldr	r1, [pc, #472]	@ (80015e8 <supro_process+0x25c>)
 800140e:	4638      	mov	r0, r7
 8001410:	f006 f88e 	bl	8007530 <arm_scale_f32>

    /* 5) add envelope bias: scratch += bias * env */
    arm_scale_f32(env, bias, env, BUFFER_SIZE);
 8001414:	4971      	ldr	r1, [pc, #452]	@ (80015dc <supro_process+0x250>)
 8001416:	ed9f 0a78 	vldr	s0, [pc, #480]	@ 80015f8 <supro_process+0x26c>
 800141a:	f44f 6280 	mov.w	r2, #1024	@ 0x400
 800141e:	4608      	mov	r0, r1
 8001420:	4c76      	ldr	r4, [pc, #472]	@ (80015fc <supro_process+0x270>)
 8001422:	f006 f885 	bl	8007530 <arm_scale_f32>
    arm_add_f32(scratch, env, scratch, BUFFER_SIZE);
 8001426:	4a70      	ldr	r2, [pc, #448]	@ (80015e8 <supro_process+0x25c>)
 8001428:	f44f 6380 	mov.w	r3, #1024	@ 0x400
 800142c:	496b      	ldr	r1, [pc, #428]	@ (80015dc <supro_process+0x250>)
 800142e:	4610      	mov	r0, r2

    /* 6) Horner polynomial: yMap into env */
    uint32_t K = SUPRO_NUM_A_VALS;
    arm_scale_f32(scratch, a[K-1], env, BUFFER_SIZE);
    for (int k = K-2; k >= 0; --k) {
        arm_mult_f32(scratch, env, env, BUFFER_SIZE);
 8001430:	f8df a1a8 	ldr.w	sl, [pc, #424]	@ 80015dc <supro_process+0x250>
 8001434:	f8df 91b0 	ldr.w	r9, [pc, #432]	@ 80015e8 <supro_process+0x25c>
 8001438:	f1a4 089c 	sub.w	r8, r4, #156	@ 0x9c
    arm_add_f32(scratch, env, scratch, BUFFER_SIZE);
 800143c:	f006 f92a 	bl	8007694 <arm_add_f32>
    arm_scale_f32(scratch, a[K-1], env, BUFFER_SIZE);
 8001440:	ed9f 0a6f 	vldr	s0, [pc, #444]	@ 8001600 <supro_process+0x274>
 8001444:	f44f 6280 	mov.w	r2, #1024	@ 0x400
 8001448:	4964      	ldr	r1, [pc, #400]	@ (80015dc <supro_process+0x250>)
 800144a:	4867      	ldr	r0, [pc, #412]	@ (80015e8 <supro_process+0x25c>)
 800144c:	f006 f870 	bl	8007530 <arm_scale_f32>
        arm_mult_f32(scratch, env, env, BUFFER_SIZE);
 8001450:	f44f 6380 	mov.w	r3, #1024	@ 0x400
 8001454:	4652      	mov	r2, sl
 8001456:	4961      	ldr	r1, [pc, #388]	@ (80015dc <supro_process+0x250>)
 8001458:	4648      	mov	r0, r9
 800145a:	f006 f8d5 	bl	8007608 <arm_mult_f32>
        for (uint32_t i = 0; i < BUFFER_SIZE; ++i) {
            env[i] += a[k];
 800145e:	ed34 7a01 	vldmdb	r4!, {s14}
 8001462:	4633      	mov	r3, r6
 8001464:	edd3 7a00 	vldr	s15, [r3]
 8001468:	ee77 7a87 	vadd.f32	s15, s15, s14
 800146c:	ece3 7a01 	vstmia	r3!, {s15}
        for (uint32_t i = 0; i < BUFFER_SIZE; ++i) {
 8001470:	42ab      	cmp	r3, r5
 8001472:	d1f7      	bne.n	8001464 <supro_process+0xd8>
    for (int k = K-2; k >= 0; --k) {
 8001474:	45a0      	cmp	r8, r4
 8001476:	d1eb      	bne.n	8001450 <supro_process+0xc4>
        }
    }

    /* 7) wet/dry mix + post‑gain → final output (reuse scratch) */
    arm_scale_f32(env, gWet,     env,     BUFFER_SIZE);
 8001478:	4958      	ldr	r1, [pc, #352]	@ (80015dc <supro_process+0x250>)
 800147a:	f44f 6280 	mov.w	r2, #1024	@ 0x400
 800147e:	ed9f 0a61 	vldr	s0, [pc, #388]	@ 8001604 <supro_process+0x278>
 8001482:	4608      	mov	r0, r1
 8001484:	4c60      	ldr	r4, [pc, #384]	@ (8001608 <supro_process+0x27c>)
 8001486:	f006 f853 	bl	8007530 <arm_scale_f32>
    arm_scale_f32(scratch, 1-gWet, scratch, BUFFER_SIZE);
 800148a:	4957      	ldr	r1, [pc, #348]	@ (80015e8 <supro_process+0x25c>)
 800148c:	ed9f 0a5f 	vldr	s0, [pc, #380]	@ 800160c <supro_process+0x280>
 8001490:	f44f 6280 	mov.w	r2, #1024	@ 0x400
 8001494:	4608      	mov	r0, r1
 8001496:	f504 5680 	add.w	r6, r4, #4096	@ 0x1000
 800149a:	f006 f849 	bl	8007530 <arm_scale_f32>
    arm_add_f32(env, scratch, scratch, BUFFER_SIZE);
 800149e:	4a52      	ldr	r2, [pc, #328]	@ (80015e8 <supro_process+0x25c>)
 80014a0:	f44f 6380 	mov.w	r3, #1024	@ 0x400
 80014a4:	484d      	ldr	r0, [pc, #308]	@ (80015dc <supro_process+0x250>)
 80014a6:	4611      	mov	r1, r2
 80014a8:	f006 f8f4 	bl	8007694 <arm_add_f32>
    arm_scale_f32(scratch, gPost, x,       BUFFER_SIZE);
 80014ac:	ed9f 0a58 	vldr	s0, [pc, #352]	@ 8001610 <supro_process+0x284>
 80014b0:	f44f 6280 	mov.w	r2, #1024	@ 0x400
 80014b4:	4639      	mov	r1, r7
 80014b6:	484c      	ldr	r0, [pc, #304]	@ (80015e8 <supro_process+0x25c>)
 80014b8:	f006 f83a 	bl	8007530 <arm_scale_f32>
	partitioned_fir_convolution_fft(p, supro_sim.fir2, state2);
 80014bc:	4b48      	ldr	r3, [pc, #288]	@ (80015e0 <supro_process+0x254>)
 80014be:	4a55      	ldr	r2, [pc, #340]	@ (8001614 <supro_process+0x288>)
 80014c0:	4658      	mov	r0, fp
 80014c2:	6859      	ldr	r1, [r3, #4]
 80014c4:	f7ff faf6 	bl	8000ab4 <partitioned_fir_convolution_fft>

    float32_t *scratch = pow_scratch;
    float32_t *x       = p->processBuffer;

    // 1) scratch = x^2
    arm_mult_f32(x, x, scratch, BUFFER_SIZE);
 80014c8:	f44f 6380 	mov.w	r3, #1024	@ 0x400
 80014cc:	4a4e      	ldr	r2, [pc, #312]	@ (8001608 <supro_process+0x27c>)
 80014ce:	4639      	mov	r1, r7
 80014d0:	4638      	mov	r0, r7
 80014d2:	f006 f899 	bl	8007608 <arm_mult_f32>

    // 2) scratch = LP(scratch)
    arm_biquad_cascade_df1_f32(&powerampLP, scratch, scratch, BUFFER_SIZE);
 80014d6:	4a4c      	ldr	r2, [pc, #304]	@ (8001608 <supro_process+0x27c>)
 80014d8:	f44f 6380 	mov.w	r3, #1024	@ 0x400
 80014dc:	484e      	ldr	r0, [pc, #312]	@ (8001618 <supro_process+0x28c>)
 80014de:	4611      	mov	r1, r2
 80014e0:	f005 ff5a 	bl	8007398 <arm_biquad_cascade_df1_f32>

    // 3) scratch = sqrt(2 * scratch)
    arm_scale_f32(scratch, 2.0f, scratch, BUFFER_SIZE);
 80014e4:	4948      	ldr	r1, [pc, #288]	@ (8001608 <supro_process+0x27c>)
 80014e6:	eeb0 0a00 	vmov.f32	s0, #0	@ 0x40000000  2.0
 80014ea:	f44f 6280 	mov.w	r2, #1024	@ 0x400
 80014ee:	4608      	mov	r0, r1
 80014f0:	f006 f81e 	bl	8007530 <arm_scale_f32>
    for (uint32_t i = 0; i < BUFFER_SIZE; ++i) {
        float32_t v = scratch[i];
        scratch[i]  = sqrtf(v > 0.0f ? v : 0.0f);
 80014f4:	eddf 6a3e 	vldr	s13, [pc, #248]	@ 80015f0 <supro_process+0x264>
    arm_scale_f32(scratch, 2.0f, scratch, BUFFER_SIZE);
 80014f8:	4623      	mov	r3, r4
        float32_t v = scratch[i];
 80014fa:	edd3 7a00 	vldr	s15, [r3]
        scratch[i]  = sqrtf(v > 0.0f ? v : 0.0f);
 80014fe:	fec7 7aa6 	vmaxnm.f32	s15, s15, s13
 8001502:	eeb1 7ae7 	vsqrt.f32	s14, s15
 8001506:	eca3 7a01 	vstmia	r3!, {s14}
    for (uint32_t i = 0; i < BUFFER_SIZE; ++i) {
 800150a:	42b3      	cmp	r3, r6
 800150c:	d1f5      	bne.n	80014fa <supro_process+0x16e>
    float32_t coeffP  = (tanh_kP*tanh_kP - 1.0f) / gP;

    // 5) per‑sample non‑linear mapping + post‑gain
    for (uint32_t i = 0; i < BUFFER_SIZE; ++i) {
        float32_t env   = scratch[i];
        float32_t xBias = x[i] - gBias * env;
 800150e:	eddf 9a43 	vldr	s19, [pc, #268]	@ 800161c <supro_process+0x290>
 8001512:	463d      	mov	r5, r7
        float32_t xPre  = gPre  * xBias;
 8001514:	ed9f 9a42 	vldr	s18, [pc, #264]	@ 8001620 <supro_process+0x294>
        float32_t m;

        if (xPre > kP) {
 8001518:	eddf 8a42 	vldr	s17, [pc, #264]	@ 8001624 <supro_process+0x298>
            m = tanh_kP - coeffP * tanhf(gP * xPre - kP);
        } else if (xPre >= -kN) {
 800151c:	ed9f ba42 	vldr	s22, [pc, #264]	@ 8001628 <supro_process+0x29c>
            m = tanhf(xPre);
        } else {
            m = -tanh_kN - coeffN * tanhf(gN * xPre + kN);
 8001520:	eddf aa42 	vldr	s21, [pc, #264]	@ 800162c <supro_process+0x2a0>
 8001524:	ed9f aa42 	vldr	s20, [pc, #264]	@ 8001630 <supro_process+0x2a4>
 8001528:	ed9f ca42 	vldr	s24, [pc, #264]	@ 8001634 <supro_process+0x2a8>
 800152c:	eddf ba42 	vldr	s23, [pc, #264]	@ 8001638 <supro_process+0x2ac>
            m = tanh_kP - coeffP * tanhf(gP * xPre - kP);
 8001530:	ed9f 8a42 	vldr	s16, [pc, #264]	@ 800163c <supro_process+0x2b0>
 8001534:	e00f      	b.n	8001556 <supro_process+0x1ca>
 8001536:	f006 fc05 	bl	8007d44 <tanhf>
 800153a:	ed9f 7a41 	vldr	s14, [pc, #260]	@ 8001640 <supro_process+0x2b4>
 800153e:	eddf 7a41 	vldr	s15, [pc, #260]	@ 8001644 <supro_process+0x2b8>
 8001542:	eee0 7a07 	vfma.f32	s15, s0, s14
        }

        x[i] = gPost * m;
 8001546:	ed9f 7a40 	vldr	s14, [pc, #256]	@ 8001648 <supro_process+0x2bc>
    for (uint32_t i = 0; i < BUFFER_SIZE; ++i) {
 800154a:	42a6      	cmp	r6, r4
        x[i] = gPost * m;
 800154c:	ee67 7a87 	vmul.f32	s15, s15, s14
 8001550:	ed45 7a01 	vstr	s15, [r5, #-4]
    for (uint32_t i = 0; i < BUFFER_SIZE; ++i) {
 8001554:	d027      	beq.n	80015a6 <supro_process+0x21a>
        float32_t env   = scratch[i];
 8001556:	ecb4 7a01 	vldmia	r4!, {s14}
        float32_t xBias = x[i] - gBias * env;
 800155a:	ecf5 7a01 	vldmia	r5!, {s15}
            m = tanh_kP - coeffP * tanhf(gP * xPre - kP);
 800155e:	ed9f 0a3b 	vldr	s0, [pc, #236]	@ 800164c <supro_process+0x2c0>
        float32_t xBias = x[i] - gBias * env;
 8001562:	eee7 7a69 	vfms.f32	s15, s14, s19
        if (xPre > kP) {
 8001566:	eef4 7ae8 	vcmpe.f32	s15, s17
        float32_t xPre  = gPre  * xBias;
 800156a:	ee27 7a89 	vmul.f32	s14, s15, s18
        if (xPre > kP) {
 800156e:	eef1 fa10 	vmrs	APSR_nzcv, fpscr
            m = tanh_kP - coeffP * tanhf(gP * xPre - kP);
 8001572:	eea7 0a48 	vfms.f32	s0, s14, s16
        if (xPre > kP) {
 8001576:	dcde      	bgt.n	8001536 <supro_process+0x1aa>
        } else if (xPre >= -kN) {
 8001578:	eef4 7acb 	vcmpe.f32	s15, s22
            m = -tanh_kN - coeffN * tanhf(gN * xPre + kN);
 800157c:	eeb0 0a4a 	vmov.f32	s0, s20
        } else if (xPre >= -kN) {
 8001580:	eef1 fa10 	vmrs	APSR_nzcv, fpscr
            m = -tanh_kN - coeffN * tanhf(gN * xPre + kN);
 8001584:	eea7 0a2a 	vfma.f32	s0, s14, s21
        } else if (xPre >= -kN) {
 8001588:	db1f      	blt.n	80015ca <supro_process+0x23e>
            m = tanhf(xPre);
 800158a:	eeb0 0a47 	vmov.f32	s0, s14
 800158e:	f006 fbd9 	bl	8007d44 <tanhf>
 8001592:	eef0 7a40 	vmov.f32	s15, s0
        x[i] = gPost * m;
 8001596:	ed9f 7a2c 	vldr	s14, [pc, #176]	@ 8001648 <supro_process+0x2bc>
    for (uint32_t i = 0; i < BUFFER_SIZE; ++i) {
 800159a:	42a6      	cmp	r6, r4
        x[i] = gPost * m;
 800159c:	ee67 7a87 	vmul.f32	s15, s15, s14
 80015a0:	ed45 7a01 	vstr	s15, [r5, #-4]
    for (uint32_t i = 0; i < BUFFER_SIZE; ++i) {
 80015a4:	d1d7      	bne.n	8001556 <supro_process+0x1ca>
	partitioned_fir_convolution_fft(p, supro_sim.fir3, state3);
 80015a6:	4b0e      	ldr	r3, [pc, #56]	@ (80015e0 <supro_process+0x254>)
 80015a8:	4658      	mov	r0, fp
 80015aa:	4a29      	ldr	r2, [pc, #164]	@ (8001650 <supro_process+0x2c4>)
 80015ac:	6899      	ldr	r1, [r3, #8]
 80015ae:	f7ff fa81 	bl	8000ab4 <partitioned_fir_convolution_fft>
	arm_scale_f32(p->processBuffer, 0.01, p->processBuffer, BUFFER_SIZE);
 80015b2:	4639      	mov	r1, r7
 80015b4:	4638      	mov	r0, r7
 80015b6:	f44f 6280 	mov.w	r2, #1024	@ 0x400
 80015ba:	ed9f 0a26 	vldr	s0, [pc, #152]	@ 8001654 <supro_process+0x2c8>
}
 80015be:	ecbd 8b0a 	vpop	{d8-d12}
 80015c2:	e8bd 4ff8 	ldmia.w	sp!, {r3, r4, r5, r6, r7, r8, r9, sl, fp, lr}
	arm_scale_f32(p->processBuffer, 0.01, p->processBuffer, BUFFER_SIZE);
 80015c6:	f005 bfb3 	b.w	8007530 <arm_scale_f32>
            m = -tanh_kN - coeffN * tanhf(gN * xPre + kN);
 80015ca:	f006 fbbb 	bl	8007d44 <tanhf>
 80015ce:	eef0 7a6b 	vmov.f32	s15, s23
 80015d2:	eee0 7a4c 	vfms.f32	s15, s0, s24
 80015d6:	e7b6      	b.n	8001546 <supro_process+0x1ba>
 80015d8:	3dcccccd 	.word	0x3dcccccd
 80015dc:	2407831c 	.word	0x2407831c
 80015e0:	24000038 	.word	0x24000038
 80015e4:	20007060 	.word	0x20007060
 80015e8:	2407931c 	.word	0x2407931c
 80015ec:	2407e878 	.word	0x2407e878
 80015f0:	00000000 	.word	0x00000000
 80015f4:	3f710983 	.word	0x3f710983
 80015f8:	3f186130 	.word	0x3f186130
 80015fc:	0806a190 	.word	0x0806a190
 8001600:	d267d638 	.word	0xd267d638
 8001604:	3f0d61b4 	.word	0x3f0d61b4
 8001608:	2407731c 	.word	0x2407731c
 800160c:	3ee53c98 	.word	0x3ee53c98
 8001610:	3f7db881 	.word	0x3f7db881
 8001614:	20006060 	.word	0x20006060
 8001618:	2407e86c 	.word	0x2407e86c
 800161c:	3f1ed3f6 	.word	0x3f1ed3f6
 8001620:	3f8e9370 	.word	0x3f8e9370
 8001624:	3f64018b 	.word	0x3f64018b
 8001628:	bf655493 	.word	0xbf655493
 800162c:	3f7fa057 	.word	0x3f7fa057
 8001630:	3f7f71fb 	.word	0x3f7f71fb
 8001634:	bed80d82 	.word	0xbed80d82
 8001638:	bf42bc17 	.word	0xbf42bc17
 800163c:	3f806a2a 	.word	0x3f806a2a
 8001640:	bed8ee5b 	.word	0xbed8ee5b
 8001644:	3f421c45 	.word	0x3f421c45
 8001648:	40d6c29a 	.word	0x40d6c29a
 800164c:	3f7df857 	.word	0x3f7df857
 8001650:	20005060 	.word	0x20005060
 8001654:	3c23d70a 	.word	0x3c23d70a

08001658 <supro_init_f32>:
{
 8001658:	b510      	push	{r4, lr}
    arm_biquad_cascade_df1_init_f32(&preampLP,  LP_STAGES,
 800165a:	4c15      	ldr	r4, [pc, #84]	@ (80016b0 <supro_init_f32+0x58>)
{
 800165c:	b082      	sub	sp, #8
    arm_biquad_cascade_df1_init_f32(&preampLP,  LP_STAGES,
 800165e:	4b15      	ldr	r3, [pc, #84]	@ (80016b4 <supro_init_f32+0x5c>)
 8001660:	2101      	movs	r1, #1
 8001662:	4622      	mov	r2, r4
 8001664:	4814      	ldr	r0, [pc, #80]	@ (80016b8 <supro_init_f32+0x60>)
 8001666:	f005 fe89 	bl	800737c <arm_biquad_cascade_df1_init_f32>
    arm_biquad_cascade_df1_init_f32(&powerampLP, LP_STAGES,
 800166a:	4622      	mov	r2, r4
	arm_fir_init_f32(&h1_fir_f32, h1_fir_LEN, (float32_t *)&h1_fir_coeffs[0], &h1_fir[0], (uint32_t)BLOCK_SIZE);
 800166c:	f44f 6480 	mov.w	r4, #1024	@ 0x400
    arm_biquad_cascade_df1_init_f32(&powerampLP, LP_STAGES,
 8001670:	4b12      	ldr	r3, [pc, #72]	@ (80016bc <supro_init_f32+0x64>)
 8001672:	2101      	movs	r1, #1
 8001674:	4812      	ldr	r0, [pc, #72]	@ (80016c0 <supro_init_f32+0x68>)
 8001676:	f005 fe81 	bl	800737c <arm_biquad_cascade_df1_init_f32>
	arm_fir_init_f32(&h1_fir_f32, h1_fir_LEN, (float32_t *)&h1_fir_coeffs[0], &h1_fir[0], (uint32_t)BLOCK_SIZE);
 800167a:	4b12      	ldr	r3, [pc, #72]	@ (80016c4 <supro_init_f32+0x6c>)
 800167c:	4a12      	ldr	r2, [pc, #72]	@ (80016c8 <supro_init_f32+0x70>)
 800167e:	f240 2159 	movw	r1, #601	@ 0x259
 8001682:	4812      	ldr	r0, [pc, #72]	@ (80016cc <supro_init_f32+0x74>)
 8001684:	9400      	str	r4, [sp, #0]
 8001686:	f005 fe67 	bl	8007358 <arm_fir_init_f32>
	arm_fir_init_f32(&h2_fir_f32, h2_fir_LEN, (float32_t *)&h2_fir_coeffs[0], &h2_fir[0], (uint32_t)BLOCK_SIZE);
 800168a:	4b11      	ldr	r3, [pc, #68]	@ (80016d0 <supro_init_f32+0x78>)
 800168c:	4a11      	ldr	r2, [pc, #68]	@ (80016d4 <supro_init_f32+0x7c>)
 800168e:	f44f 7180 	mov.w	r1, #256	@ 0x100
 8001692:	4811      	ldr	r0, [pc, #68]	@ (80016d8 <supro_init_f32+0x80>)
 8001694:	9400      	str	r4, [sp, #0]
 8001696:	f005 fe5f 	bl	8007358 <arm_fir_init_f32>
	arm_fir_init_f32(&h3_fir_f32, h3_fir_LEN, (float32_t *)&h3_fir_coeffs[0], &h3_fir[0], (uint32_t)BLOCK_SIZE);
 800169a:	4b10      	ldr	r3, [pc, #64]	@ (80016dc <supro_init_f32+0x84>)
 800169c:	4a10      	ldr	r2, [pc, #64]	@ (80016e0 <supro_init_f32+0x88>)
 800169e:	f240 11f5 	movw	r1, #501	@ 0x1f5
 80016a2:	4810      	ldr	r0, [pc, #64]	@ (80016e4 <supro_init_f32+0x8c>)
 80016a4:	9400      	str	r4, [sp, #0]
 80016a6:	f005 fe57 	bl	8007358 <arm_fir_init_f32>
}
 80016aa:	b002      	add	sp, #8
 80016ac:	bd10      	pop	{r4, pc}
 80016ae:	bf00      	nop
 80016b0:	0806a0e0 	.word	0x0806a0e0
 80016b4:	20005040 	.word	0x20005040
 80016b8:	2407e878 	.word	0x2407e878
 80016bc:	20005020 	.word	0x20005020
 80016c0:	2407e86c 	.word	0x2407e86c
 80016c4:	2407cee8 	.word	0x2407cee8
 80016c8:	0806adc0 	.word	0x0806adc0
 80016cc:	2407e860 	.word	0x2407e860
 80016d0:	2407baec 	.word	0x2407baec
 80016d4:	0806a9c0 	.word	0x0806a9c0
 80016d8:	2407e854 	.word	0x2407e854
 80016dc:	2407a31c 	.word	0x2407a31c
 80016e0:	0806a1e0 	.word	0x0806a1e0
 80016e4:	2407e848 	.word	0x2407e848

080016e8 <SystemInit>:
 __IO uint32_t tmpreg;
#endif /* DATA_IN_D2_SRAM */

  /* FPU settings ------------------------------------------------------------*/
  #if (__FPU_PRESENT == 1) && (__FPU_USED == 1)
    SCB->CPACR |= ((3UL << (10*2))|(3UL << (11*2)));  /* set CP10 and CP11 Full Access */
 80016e8:	4927      	ldr	r1, [pc, #156]	@ (8001788 <SystemInit+0xa0>)
  #endif
  /* Reset the RCC clock configuration to the default reset state ------------*/

   /* Increasing the CPU frequency */
  if(FLASH_LATENCY_DEFAULT  > (READ_BIT((FLASH->ACR), FLASH_ACR_LATENCY)))
 80016ea:	4a28      	ldr	r2, [pc, #160]	@ (800178c <SystemInit+0xa4>)
    SCB->CPACR |= ((3UL << (10*2))|(3UL << (11*2)));  /* set CP10 and CP11 Full Access */
 80016ec:	f8d1 3088 	ldr.w	r3, [r1, #136]	@ 0x88
 80016f0:	f443 0370 	orr.w	r3, r3, #15728640	@ 0xf00000
{
 80016f4:	b410      	push	{r4}
    SCB->CPACR |= ((3UL << (10*2))|(3UL << (11*2)));  /* set CP10 and CP11 Full Access */
 80016f6:	f8c1 3088 	str.w	r3, [r1, #136]	@ 0x88
  if(FLASH_LATENCY_DEFAULT  > (READ_BIT((FLASH->ACR), FLASH_ACR_LATENCY)))
 80016fa:	6813      	ldr	r3, [r2, #0]
 80016fc:	f003 030f 	and.w	r3, r3, #15
 8001700:	2b06      	cmp	r3, #6
 8001702:	d805      	bhi.n	8001710 <SystemInit+0x28>
  {
    /* Program the new number of wait states to the LATENCY bits in the FLASH_ACR register */
    MODIFY_REG(FLASH->ACR, FLASH_ACR_LATENCY, (uint32_t)(FLASH_LATENCY_DEFAULT));
 8001704:	6813      	ldr	r3, [r2, #0]
 8001706:	f023 030f 	bic.w	r3, r3, #15
 800170a:	f043 0307 	orr.w	r3, r3, #7
 800170e:	6013      	str	r3, [r2, #0]
  }

  /* Set HSION bit */
  RCC->CR |= RCC_CR_HSION;
 8001710:	4b1f      	ldr	r3, [pc, #124]	@ (8001790 <SystemInit+0xa8>)

  /* Reset CFGR register */
  RCC->CFGR = 0x00000000;
 8001712:	2400      	movs	r4, #0

  /* Reset HSEON, HSECSSON, CSION, HSI48ON, CSIKERON, PLL1ON, PLL2ON and PLL3ON bits */
  RCC->CR &= 0xEAF6ED7FU;
 8001714:	4a1f      	ldr	r2, [pc, #124]	@ (8001794 <SystemInit+0xac>)
  RCC->CR |= RCC_CR_HSION;
 8001716:	6819      	ldr	r1, [r3, #0]

   /* Decreasing the number of wait states because of lower CPU frequency */
  if(FLASH_LATENCY_DEFAULT  < (READ_BIT((FLASH->ACR), FLASH_ACR_LATENCY)))
 8001718:	481c      	ldr	r0, [pc, #112]	@ (800178c <SystemInit+0xa4>)
  RCC->CR |= RCC_CR_HSION;
 800171a:	f041 0101 	orr.w	r1, r1, #1
 800171e:	6019      	str	r1, [r3, #0]
  RCC->CFGR = 0x00000000;
 8001720:	611c      	str	r4, [r3, #16]
  RCC->CR &= 0xEAF6ED7FU;
 8001722:	6819      	ldr	r1, [r3, #0]
 8001724:	400a      	ands	r2, r1
 8001726:	601a      	str	r2, [r3, #0]
  if(FLASH_LATENCY_DEFAULT  < (READ_BIT((FLASH->ACR), FLASH_ACR_LATENCY)))
 8001728:	6803      	ldr	r3, [r0, #0]
 800172a:	071b      	lsls	r3, r3, #28
 800172c:	d505      	bpl.n	800173a <SystemInit+0x52>
  {
    /* Program the new number of wait states to the LATENCY bits in the FLASH_ACR register */
    MODIFY_REG(FLASH->ACR, FLASH_ACR_LATENCY, (uint32_t)(FLASH_LATENCY_DEFAULT));
 800172e:	6803      	ldr	r3, [r0, #0]
 8001730:	f023 030f 	bic.w	r3, r3, #15
 8001734:	f043 0307 	orr.w	r3, r3, #7
 8001738:	6003      	str	r3, [r0, #0]
  }

#if defined(D3_SRAM_BASE)
  /* Reset D1CFGR register */
  RCC->D1CFGR = 0x00000000;
 800173a:	4b15      	ldr	r3, [pc, #84]	@ (8001790 <SystemInit+0xa8>)
 800173c:	2200      	movs	r2, #0
  RCC->PLLCKSELR = 0x02020200;

  /* Reset PLLCFGR register */
  RCC->PLLCFGR = 0x01FF0000;
  /* Reset PLL1DIVR register */
  RCC->PLL1DIVR = 0x01010280;
 800173e:	4916      	ldr	r1, [pc, #88]	@ (8001798 <SystemInit+0xb0>)
  RCC->PLLCFGR = 0x01FF0000;
 8001740:	4816      	ldr	r0, [pc, #88]	@ (800179c <SystemInit+0xb4>)
  RCC->PLLCKSELR = 0x02020200;
 8001742:	4c17      	ldr	r4, [pc, #92]	@ (80017a0 <SystemInit+0xb8>)
  RCC->D1CFGR = 0x00000000;
 8001744:	619a      	str	r2, [r3, #24]
  RCC->D2CFGR = 0x00000000;
 8001746:	61da      	str	r2, [r3, #28]
  RCC->D3CFGR = 0x00000000;
 8001748:	621a      	str	r2, [r3, #32]
  RCC->PLLCKSELR = 0x02020200;
 800174a:	629c      	str	r4, [r3, #40]	@ 0x28
  RCC->PLLCFGR = 0x01FF0000;
 800174c:	62d8      	str	r0, [r3, #44]	@ 0x2c
  RCC->PLL1DIVR = 0x01010280;
 800174e:	6319      	str	r1, [r3, #48]	@ 0x30
  /* Reset PLL1FRACR register */
  RCC->PLL1FRACR = 0x00000000;
 8001750:	635a      	str	r2, [r3, #52]	@ 0x34

  /* Reset PLL2DIVR register */
  RCC->PLL2DIVR = 0x01010280;
 8001752:	6399      	str	r1, [r3, #56]	@ 0x38

  /* Reset PLL2FRACR register */

  RCC->PLL2FRACR = 0x00000000;
 8001754:	63da      	str	r2, [r3, #60]	@ 0x3c
  /* Reset PLL3DIVR register */
  RCC->PLL3DIVR = 0x01010280;
 8001756:	6419      	str	r1, [r3, #64]	@ 0x40

  /* Reset PLL3FRACR register */
  RCC->PLL3FRACR = 0x00000000;
 8001758:	645a      	str	r2, [r3, #68]	@ 0x44

  /* Reset HSEBYP bit */
  RCC->CR &= 0xFFFBFFFFU;
 800175a:	6819      	ldr	r1, [r3, #0]
  /* Disable all interrupts */
  RCC->CIER = 0x00000000;

#if (STM32H7_DEV_ID == 0x450UL)
  /* dual core CM7 or single core line */
  if((DBGMCU->IDCODE & 0xFFFF0000U) < 0x20000000U)
 800175c:	4811      	ldr	r0, [pc, #68]	@ (80017a4 <SystemInit+0xbc>)
  RCC->CR &= 0xFFFBFFFFU;
 800175e:	f421 2180 	bic.w	r1, r1, #262144	@ 0x40000
 8001762:	6019      	str	r1, [r3, #0]
  RCC->CIER = 0x00000000;
 8001764:	661a      	str	r2, [r3, #96]	@ 0x60
  if((DBGMCU->IDCODE & 0xFFFF0000U) < 0x20000000U)
 8001766:	6803      	ldr	r3, [r0, #0]
 8001768:	f36f 030f 	bfc	r3, #0, #16
 800176c:	f1b3 5f00 	cmp.w	r3, #536870912	@ 0x20000000
 8001770:	d203      	bcs.n	800177a <SystemInit+0x92>
  {
    /* if stm32h7 revY*/
    /* Change  the switch matrix read issuing capability to 1 for the AXI SRAM target (Target 7) */
    *((__IO uint32_t*)0x51008108) = 0x000000001U;
 8001772:	4b0d      	ldr	r3, [pc, #52]	@ (80017a8 <SystemInit+0xc0>)
 8001774:	2201      	movs	r2, #1
 8001776:	f8c3 2108 	str.w	r2, [r3, #264]	@ 0x108
  /*
   * Disable the FMC bank1 (enabled after reset).
   * This, prevents CPU speculation access on this bank which blocks the use of FMC during
   * 24us. During this time the others FMC master (such as LTDC) cannot use it!
   */
  FMC_Bank1_R->BTCR[0] = 0x000030D2;
 800177a:	4b0c      	ldr	r3, [pc, #48]	@ (80017ac <SystemInit+0xc4>)
 800177c:	f243 02d2 	movw	r2, #12498	@ 0x30d2
#if defined(USER_VECT_TAB_ADDRESS)
  SCB->VTOR = VECT_TAB_BASE_ADDRESS | VECT_TAB_OFFSET; /* Vector Table Relocation in Internal D1 AXI-RAM or in Internal FLASH */
#endif /* USER_VECT_TAB_ADDRESS */

#endif /*DUAL_CORE && CORE_CM4*/
}
 8001780:	f85d 4b04 	ldr.w	r4, [sp], #4
  FMC_Bank1_R->BTCR[0] = 0x000030D2;
 8001784:	601a      	str	r2, [r3, #0]
}
 8001786:	4770      	bx	lr
 8001788:	e000ed00 	.word	0xe000ed00
 800178c:	52002000 	.word	0x52002000
 8001790:	58024400 	.word	0x58024400
 8001794:	eaf6ed7f 	.word	0xeaf6ed7f
 8001798:	01010280 	.word	0x01010280
 800179c:	01ff0000 	.word	0x01ff0000
 80017a0:	02020200 	.word	0x02020200
 80017a4:	5c001000 	.word	0x5c001000
 80017a8:	51008000 	.word	0x51008000
 80017ac:	52004000 	.word	0x52004000

080017b0 <Reset_Handler>:

    .section  .text.Reset_Handler
  .weak  Reset_Handler
  .type  Reset_Handler, %function
Reset_Handler:
  ldr   sp, =_estack      /* set stack pointer */
 80017b0:	f8df d034 	ldr.w	sp, [pc, #52]	@ 80017e8 <LoopFillZerobss+0xe>

/* Call the clock system initialization function.*/
  bl  SystemInit
 80017b4:	f7ff ff98 	bl	80016e8 <SystemInit>

/* Copy the data segment initializers from flash to SRAM */
  ldr r0, =_sdata
 80017b8:	480c      	ldr	r0, [pc, #48]	@ (80017ec <LoopFillZerobss+0x12>)
  ldr r1, =_edata
 80017ba:	490d      	ldr	r1, [pc, #52]	@ (80017f0 <LoopFillZerobss+0x16>)
  ldr r2, =_sidata
 80017bc:	4a0d      	ldr	r2, [pc, #52]	@ (80017f4 <LoopFillZerobss+0x1a>)
  movs r3, #0
 80017be:	2300      	movs	r3, #0
  b LoopCopyDataInit
 80017c0:	e002      	b.n	80017c8 <LoopCopyDataInit>

080017c2 <CopyDataInit>:

CopyDataInit:
  ldr r4, [r2, r3]
 80017c2:	58d4      	ldr	r4, [r2, r3]
  str r4, [r0, r3]
 80017c4:	50c4      	str	r4, [r0, r3]
  adds r3, r3, #4
 80017c6:	3304      	adds	r3, #4

080017c8 <LoopCopyDataInit>:

LoopCopyDataInit:
  adds r4, r0, r3
 80017c8:	18c4      	adds	r4, r0, r3
  cmp r4, r1
 80017ca:	428c      	cmp	r4, r1
  bcc CopyDataInit
 80017cc:	d3f9      	bcc.n	80017c2 <CopyDataInit>
/* Zero fill the bss segment. */
  ldr r2, =_sbss
 80017ce:	4a0a      	ldr	r2, [pc, #40]	@ (80017f8 <LoopFillZerobss+0x1e>)
  ldr r4, =_ebss
 80017d0:	4c0a      	ldr	r4, [pc, #40]	@ (80017fc <LoopFillZerobss+0x22>)
  movs r3, #0
 80017d2:	2300      	movs	r3, #0
  b LoopFillZerobss
 80017d4:	e001      	b.n	80017da <LoopFillZerobss>

080017d6 <FillZerobss>:

FillZerobss:
  str  r3, [r2]
 80017d6:	6013      	str	r3, [r2, #0]
  adds r2, r2, #4
 80017d8:	3204      	adds	r2, #4

080017da <LoopFillZerobss>:

LoopFillZerobss:
  cmp r2, r4
 80017da:	42a2      	cmp	r2, r4
  bcc FillZerobss
 80017dc:	d3fb      	bcc.n	80017d6 <FillZerobss>

/* Call static constructors */
    bl __libc_init_array
 80017de:	f006 fa8d 	bl	8007cfc <__libc_init_array>
/* Call the application's entry point.*/
  bl  main
 80017e2:	f7fe ff03 	bl	80005ec <main>
  bx  lr
 80017e6:	4770      	bx	lr
  ldr   sp, =_estack      /* set stack pointer */
 80017e8:	24080000 	.word	0x24080000
  ldr r0, =_sdata
 80017ec:	24000000 	.word	0x24000000
  ldr r1, =_edata
 80017f0:	240000a8 	.word	0x240000a8
  ldr r2, =_sidata
 80017f4:	0807eba8 	.word	0x0807eba8
  ldr r2, =_sbss
 80017f8:	240000c0 	.word	0x240000c0
  ldr r4, =_ebss
 80017fc:	2407e9c0 	.word	0x2407e9c0

08001800 <ADC3_IRQHandler>:
 * @retval None
*/
    .section  .text.Default_Handler,"ax",%progbits
Default_Handler:
Infinite_Loop:
  b  Infinite_Loop
 8001800:	e7fe      	b.n	8001800 <ADC3_IRQHandler>
	...

08001804 <HAL_InitTick>:
  * @retval HAL status
  */
__weak HAL_StatusTypeDef HAL_InitTick(uint32_t TickPriority)
{
  /* Check uwTickFreq for MisraC 2012 (even if uwTickFreq is a enum type that don't take the value zero)*/
  if((uint32_t)uwTickFreq == 0UL)
 8001804:	4b0f      	ldr	r3, [pc, #60]	@ (8001844 <HAL_InitTick+0x40>)
 8001806:	781b      	ldrb	r3, [r3, #0]
 8001808:	b90b      	cbnz	r3, 800180e <HAL_InitTick+0xa>
  {
    return HAL_ERROR;
 800180a:	2001      	movs	r0, #1
    return HAL_ERROR;
  }

  /* Return function status */
  return HAL_OK;
}
 800180c:	4770      	bx	lr
{
 800180e:	b510      	push	{r4, lr}
 8001810:	4604      	mov	r4, r0
    if (HAL_SYSTICK_Config(SystemCoreClock / (1000UL / (uint32_t)uwTickFreq)) > 0U)
 8001812:	f44f 707a 	mov.w	r0, #1000	@ 0x3e8
 8001816:	4a0c      	ldr	r2, [pc, #48]	@ (8001848 <HAL_InitTick+0x44>)
 8001818:	fbb0 f3f3 	udiv	r3, r0, r3
 800181c:	6810      	ldr	r0, [r2, #0]
 800181e:	fbb0 f0f3 	udiv	r0, r0, r3
 8001822:	f000 ffe9 	bl	80027f8 <HAL_SYSTICK_Config>
  if (TickPriority < (1UL << __NVIC_PRIO_BITS))
 8001826:	2c0f      	cmp	r4, #15
 8001828:	d800      	bhi.n	800182c <HAL_InitTick+0x28>
 800182a:	b108      	cbz	r0, 8001830 <HAL_InitTick+0x2c>
    return HAL_ERROR;
 800182c:	2001      	movs	r0, #1
}
 800182e:	bd10      	pop	{r4, pc}
    HAL_NVIC_SetPriority(SysTick_IRQn, TickPriority, 0U);
 8001830:	2200      	movs	r2, #0
 8001832:	4621      	mov	r1, r4
 8001834:	f04f 30ff 	mov.w	r0, #4294967295
 8001838:	f000 ff94 	bl	8002764 <HAL_NVIC_SetPriority>
    uwTickPrio = TickPriority;
 800183c:	4b03      	ldr	r3, [pc, #12]	@ (800184c <HAL_InitTick+0x48>)
 800183e:	2000      	movs	r0, #0
 8001840:	601c      	str	r4, [r3, #0]
}
 8001842:	bd10      	pop	{r4, pc}
 8001844:	24000050 	.word	0x24000050
 8001848:	2400004c 	.word	0x2400004c
 800184c:	24000054 	.word	0x24000054

08001850 <HAL_Init>:
{
 8001850:	b510      	push	{r4, lr}
  HAL_NVIC_SetPriorityGrouping(NVIC_PRIORITYGROUP_4);
 8001852:	2003      	movs	r0, #3
  SystemD2Clock = (common_system_clock >> ((D1CorePrescTable[(RCC->D1CFGR & RCC_D1CFGR_HPRE)>> RCC_D1CFGR_HPRE_Pos]) & 0x1FU));
 8001854:	4c12      	ldr	r4, [pc, #72]	@ (80018a0 <HAL_Init+0x50>)
  HAL_NVIC_SetPriorityGrouping(NVIC_PRIORITYGROUP_4);
 8001856:	f000 ff73 	bl	8002740 <HAL_NVIC_SetPriorityGrouping>
  common_system_clock = HAL_RCC_GetSysClockFreq() >> ((D1CorePrescTable[(RCC->D1CFGR & RCC_D1CFGR_D1CPRE)>> RCC_D1CFGR_D1CPRE_Pos]) & 0x1FU);
 800185a:	f003 f82f 	bl	80048bc <HAL_RCC_GetSysClockFreq>
 800185e:	4b11      	ldr	r3, [pc, #68]	@ (80018a4 <HAL_Init+0x54>)
 8001860:	4911      	ldr	r1, [pc, #68]	@ (80018a8 <HAL_Init+0x58>)
 8001862:	699a      	ldr	r2, [r3, #24]
  SystemD2Clock = (common_system_clock >> ((D1CorePrescTable[(RCC->D1CFGR & RCC_D1CFGR_HPRE)>> RCC_D1CFGR_HPRE_Pos]) & 0x1FU));
 8001864:	699b      	ldr	r3, [r3, #24]
  common_system_clock = HAL_RCC_GetSysClockFreq() >> ((D1CorePrescTable[(RCC->D1CFGR & RCC_D1CFGR_D1CPRE)>> RCC_D1CFGR_D1CPRE_Pos]) & 0x1FU);
 8001866:	f3c2 2203 	ubfx	r2, r2, #8, #4
  SystemD2Clock = (common_system_clock >> ((D1CorePrescTable[(RCC->D1CFGR & RCC_D1CFGR_HPRE)>> RCC_D1CFGR_HPRE_Pos]) & 0x1FU));
 800186a:	f003 030f 	and.w	r3, r3, #15
  common_system_clock = HAL_RCC_GetSysClockFreq() >> ((D1CorePrescTable[(RCC->D1CFGR & RCC_D1CFGR_D1CPRE)>> RCC_D1CFGR_D1CPRE_Pos]) & 0x1FU);
 800186e:	5c8a      	ldrb	r2, [r1, r2]
  SystemD2Clock = (common_system_clock >> ((D1CorePrescTable[(RCC->D1CFGR & RCC_D1CFGR_HPRE)>> RCC_D1CFGR_HPRE_Pos]) & 0x1FU));
 8001870:	5ccb      	ldrb	r3, [r1, r3]
  common_system_clock = HAL_RCC_GetSysClockFreq() >> ((D1CorePrescTable[(RCC->D1CFGR & RCC_D1CFGR_D1CPRE)>> RCC_D1CFGR_D1CPRE_Pos]) & 0x1FU);
 8001872:	f002 021f 	and.w	r2, r2, #31
  SystemCoreClock = common_system_clock;
 8001876:	490d      	ldr	r1, [pc, #52]	@ (80018ac <HAL_Init+0x5c>)
  SystemD2Clock = (common_system_clock >> ((D1CorePrescTable[(RCC->D1CFGR & RCC_D1CFGR_HPRE)>> RCC_D1CFGR_HPRE_Pos]) & 0x1FU));
 8001878:	f003 031f 	and.w	r3, r3, #31
  common_system_clock = HAL_RCC_GetSysClockFreq() >> ((D1CorePrescTable[(RCC->D1CFGR & RCC_D1CFGR_D1CPRE)>> RCC_D1CFGR_D1CPRE_Pos]) & 0x1FU);
 800187c:	40d0      	lsrs	r0, r2
  SystemD2Clock = (common_system_clock >> ((D1CorePrescTable[(RCC->D1CFGR & RCC_D1CFGR_HPRE)>> RCC_D1CFGR_HPRE_Pos]) & 0x1FU));
 800187e:	fa20 f303 	lsr.w	r3, r0, r3
  SystemCoreClock = common_system_clock;
 8001882:	6008      	str	r0, [r1, #0]
  if(HAL_InitTick(TICK_INT_PRIORITY) != HAL_OK)
 8001884:	200f      	movs	r0, #15
  SystemD2Clock = (common_system_clock >> ((D1CorePrescTable[(RCC->D1CFGR & RCC_D1CFGR_HPRE)>> RCC_D1CFGR_HPRE_Pos]) & 0x1FU));
 8001886:	6023      	str	r3, [r4, #0]
  if(HAL_InitTick(TICK_INT_PRIORITY) != HAL_OK)
 8001888:	f7ff ffbc 	bl	8001804 <HAL_InitTick>
 800188c:	b110      	cbz	r0, 8001894 <HAL_Init+0x44>
    return HAL_ERROR;
 800188e:	2401      	movs	r4, #1
}
 8001890:	4620      	mov	r0, r4
 8001892:	bd10      	pop	{r4, pc}
 8001894:	4604      	mov	r4, r0
  HAL_MspInit();
 8001896:	f7ff fc45 	bl	8001124 <HAL_MspInit>
}
 800189a:	4620      	mov	r0, r4
 800189c:	bd10      	pop	{r4, pc}
 800189e:	bf00      	nop
 80018a0:	24000048 	.word	0x24000048
 80018a4:	58024400 	.word	0x58024400
 80018a8:	0806b724 	.word	0x0806b724
 80018ac:	2400004c 	.word	0x2400004c

080018b0 <HAL_IncTick>:
  *      implementations in user file.
  * @retval None
  */
__weak void HAL_IncTick(void)
{
  uwTick += (uint32_t)uwTickFreq;
 80018b0:	4a03      	ldr	r2, [pc, #12]	@ (80018c0 <HAL_IncTick+0x10>)
 80018b2:	4b04      	ldr	r3, [pc, #16]	@ (80018c4 <HAL_IncTick+0x14>)
 80018b4:	6811      	ldr	r1, [r2, #0]
 80018b6:	781b      	ldrb	r3, [r3, #0]
 80018b8:	440b      	add	r3, r1
 80018ba:	6013      	str	r3, [r2, #0]
}
 80018bc:	4770      	bx	lr
 80018be:	bf00      	nop
 80018c0:	2407e884 	.word	0x2407e884
 80018c4:	24000050 	.word	0x24000050

080018c8 <HAL_GetTick>:
  *       implementations in user file.
  * @retval tick value
  */
__weak uint32_t HAL_GetTick(void)
{
  return uwTick;
 80018c8:	4b01      	ldr	r3, [pc, #4]	@ (80018d0 <HAL_GetTick+0x8>)
 80018ca:	6818      	ldr	r0, [r3, #0]
}
 80018cc:	4770      	bx	lr
 80018ce:	bf00      	nop
 80018d0:	2407e884 	.word	0x2407e884

080018d4 <HAL_GetREVID>:
  * @brief  Returns the device revision identifier.
  * @retval Device revision identifier
  */
uint32_t HAL_GetREVID(void)
{
   return((DBGMCU->IDCODE) >> 16);
 80018d4:	4b01      	ldr	r3, [pc, #4]	@ (80018dc <HAL_GetREVID+0x8>)
 80018d6:	6818      	ldr	r0, [r3, #0]
}
 80018d8:	0c00      	lsrs	r0, r0, #16
 80018da:	4770      	bx	lr
 80018dc:	5c001000 	.word	0x5c001000

080018e0 <ADC_DMAHalfConvCplt>:

  /* Half conversion callback */
#if (USE_HAL_ADC_REGISTER_CALLBACKS == 1)
  hadc->ConvHalfCpltCallback(hadc);
#else
  HAL_ADC_ConvHalfCpltCallback(hadc);
 80018e0:	6b80      	ldr	r0, [r0, #56]	@ 0x38
{
 80018e2:	b508      	push	{r3, lr}
  HAL_ADC_ConvHalfCpltCallback(hadc);
 80018e4:	f7fe fdcc 	bl	8000480 <HAL_ADC_ConvHalfCpltCallback>
#endif /* USE_HAL_ADC_REGISTER_CALLBACKS */
}
 80018e8:	bd08      	pop	{r3, pc}
 80018ea:	bf00      	nop

080018ec <HAL_ADC_LevelOutOfWindowCallback>:
__weak void HAL_ADC_LevelOutOfWindowCallback(ADC_HandleTypeDef *hadc)
 80018ec:	4770      	bx	lr
 80018ee:	bf00      	nop

080018f0 <HAL_ADC_ErrorCallback>:
__weak void HAL_ADC_ErrorCallback(ADC_HandleTypeDef *hadc)
 80018f0:	4770      	bx	lr
 80018f2:	bf00      	nop

080018f4 <HAL_ADC_IRQHandler>:
{
 80018f4:	b5f8      	push	{r3, r4, r5, r6, r7, lr}
  uint32_t tmp_multimode_config = LL_ADC_GetMultimode(__LL_ADC_COMMON_INSTANCE(hadc->Instance));
 80018f6:	4a8e      	ldr	r2, [pc, #568]	@ (8001b30 <HAL_ADC_IRQHandler+0x23c>)
{
 80018f8:	4604      	mov	r4, r0
  uint32_t tmp_isr = hadc->Instance->ISR;
 80018fa:	6803      	ldr	r3, [r0, #0]
  uint32_t tmp_multimode_config = LL_ADC_GetMultimode(__LL_ADC_COMMON_INSTANCE(hadc->Instance));
 80018fc:	4293      	cmp	r3, r2
  uint32_t tmp_isr = hadc->Instance->ISR;
 80018fe:	681d      	ldr	r5, [r3, #0]
  uint32_t tmp_ier = hadc->Instance->IER;
 8001900:	685e      	ldr	r6, [r3, #4]
  uint32_t tmp_multimode_config = LL_ADC_GetMultimode(__LL_ADC_COMMON_INSTANCE(hadc->Instance));
 8001902:	f000 8095 	beq.w	8001a30 <HAL_ADC_IRQHandler+0x13c>
 8001906:	f502 7280 	add.w	r2, r2, #256	@ 0x100
 800190a:	4293      	cmp	r3, r2
 800190c:	f000 8090 	beq.w	8001a30 <HAL_ADC_IRQHandler+0x13c>
 8001910:	4a88      	ldr	r2, [pc, #544]	@ (8001b34 <HAL_ADC_IRQHandler+0x240>)
  *         @arg @ref LL_ADC_MULTI_DUAL_REG_SIM_INJ_ALT
  *         @arg @ref LL_ADC_MULTI_DUAL_REG_INT_INJ_SIM
  */
__STATIC_INLINE uint32_t LL_ADC_GetMultimode(const ADC_Common_TypeDef *ADCxy_COMMON)
{
  return (uint32_t)(READ_BIT(ADCxy_COMMON->CCR, ADC_CCR_DUAL));
 8001912:	6897      	ldr	r7, [r2, #8]
  if (((tmp_isr & ADC_FLAG_EOSMP) == ADC_FLAG_EOSMP) && ((tmp_ier & ADC_IT_EOSMP) == ADC_IT_EOSMP))
 8001914:	07a9      	lsls	r1, r5, #30
 8001916:	f007 071f 	and.w	r7, r7, #31
 800191a:	d502      	bpl.n	8001922 <HAL_ADC_IRQHandler+0x2e>
 800191c:	07b2      	lsls	r2, r6, #30
 800191e:	f100 80aa 	bmi.w	8001a76 <HAL_ADC_IRQHandler+0x182>
  if ((((tmp_isr & ADC_FLAG_EOC) == ADC_FLAG_EOC) && ((tmp_ier & ADC_IT_EOC) == ADC_IT_EOC)) ||
 8001922:	0769      	lsls	r1, r5, #29
 8001924:	d579      	bpl.n	8001a1a <HAL_ADC_IRQHandler+0x126>
 8001926:	0772      	lsls	r2, r6, #29
 8001928:	d577      	bpl.n	8001a1a <HAL_ADC_IRQHandler+0x126>
    if ((hadc->State & HAL_ADC_STATE_ERROR_INTERNAL) == 0UL)
 800192a:	6d62      	ldr	r2, [r4, #84]	@ 0x54
 800192c:	06d2      	lsls	r2, r2, #27
 800192e:	d403      	bmi.n	8001938 <HAL_ADC_IRQHandler+0x44>
      SET_BIT(hadc->State, HAL_ADC_STATE_REG_EOC);
 8001930:	6d62      	ldr	r2, [r4, #84]	@ 0x54
 8001932:	f442 7200 	orr.w	r2, r2, #512	@ 0x200
 8001936:	6562      	str	r2, [r4, #84]	@ 0x54
  return ((READ_BIT(ADCx->CFGR, ADC_CFGR_EXTEN) == (LL_ADC_REG_TRIG_SOFTWARE & ADC_CFGR_EXTEN)) ? 1UL : 0UL);
 8001938:	68da      	ldr	r2, [r3, #12]
 800193a:	f412 6f40 	tst.w	r2, #3072	@ 0xc00
 800193e:	d11c      	bne.n	800197a <HAL_ADC_IRQHandler+0x86>
      if ((__LL_ADC_MULTI_INSTANCE_MASTER(hadc->Instance) == hadc->Instance)
 8001940:	4a7d      	ldr	r2, [pc, #500]	@ (8001b38 <HAL_ADC_IRQHandler+0x244>)
 8001942:	4293      	cmp	r3, r2
 8001944:	f000 80e7 	beq.w	8001b16 <HAL_ADC_IRQHandler+0x222>
        tmp_cfgr = READ_REG(hadc->Instance->CFGR);
 8001948:	68da      	ldr	r2, [r3, #12]
      if (READ_BIT(tmp_cfgr, ADC_CFGR_CONT) != ADC_CFGR_CONT)
 800194a:	0491      	lsls	r1, r2, #18
 800194c:	d415      	bmi.n	800197a <HAL_ADC_IRQHandler+0x86>
        if (__HAL_ADC_GET_FLAG(hadc, ADC_FLAG_EOS))
 800194e:	681a      	ldr	r2, [r3, #0]
 8001950:	0712      	lsls	r2, r2, #28
 8001952:	d512      	bpl.n	800197a <HAL_ADC_IRQHandler+0x86>
  * @param  ADCx ADC instance
  * @retval 0: no conversion is on going on ADC group regular.
  */
__STATIC_INLINE uint32_t LL_ADC_REG_IsConversionOngoing(const ADC_TypeDef *ADCx)
{
  return ((READ_BIT(ADCx->CR, ADC_CR_ADSTART) == (ADC_CR_ADSTART)) ? 1UL : 0UL);
 8001954:	689a      	ldr	r2, [r3, #8]
 8001956:	0750      	lsls	r0, r2, #29
 8001958:	f100 80f2 	bmi.w	8001b40 <HAL_ADC_IRQHandler+0x24c>
            __HAL_ADC_DISABLE_IT(hadc, ADC_IT_EOC | ADC_IT_EOS);
 800195c:	685a      	ldr	r2, [r3, #4]
 800195e:	f022 020c 	bic.w	r2, r2, #12
 8001962:	605a      	str	r2, [r3, #4]
            CLEAR_BIT(hadc->State, HAL_ADC_STATE_REG_BUSY);
 8001964:	6d63      	ldr	r3, [r4, #84]	@ 0x54
 8001966:	f423 7380 	bic.w	r3, r3, #256	@ 0x100
 800196a:	6563      	str	r3, [r4, #84]	@ 0x54
            if ((hadc->State & HAL_ADC_STATE_INJ_BUSY) == 0UL)
 800196c:	6d63      	ldr	r3, [r4, #84]	@ 0x54
 800196e:	04d9      	lsls	r1, r3, #19
 8001970:	d403      	bmi.n	800197a <HAL_ADC_IRQHandler+0x86>
              SET_BIT(hadc->State, HAL_ADC_STATE_READY);
 8001972:	6d63      	ldr	r3, [r4, #84]	@ 0x54
 8001974:	f043 0301 	orr.w	r3, r3, #1
 8001978:	6563      	str	r3, [r4, #84]	@ 0x54
    HAL_ADC_ConvCpltCallback(hadc);
 800197a:	4620      	mov	r0, r4
 800197c:	f7fe fda0 	bl	80004c0 <HAL_ADC_ConvCpltCallback>
    __HAL_ADC_CLEAR_FLAG(hadc, (ADC_FLAG_EOC | ADC_FLAG_EOS));
 8001980:	6823      	ldr	r3, [r4, #0]
 8001982:	220c      	movs	r2, #12
 8001984:	601a      	str	r2, [r3, #0]
  if ((((tmp_isr & ADC_FLAG_JEOC) == ADC_FLAG_JEOC) && ((tmp_ier & ADC_IT_JEOC) == ADC_IT_JEOC)) ||
 8001986:	06aa      	lsls	r2, r5, #26
 8001988:	d54d      	bpl.n	8001a26 <HAL_ADC_IRQHandler+0x132>
 800198a:	06b0      	lsls	r0, r6, #26
 800198c:	d54b      	bpl.n	8001a26 <HAL_ADC_IRQHandler+0x132>
    if ((hadc->State & HAL_ADC_STATE_ERROR_INTERNAL) == 0UL)
 800198e:	6d62      	ldr	r2, [r4, #84]	@ 0x54
 8001990:	06d0      	lsls	r0, r2, #27
 8001992:	d403      	bmi.n	800199c <HAL_ADC_IRQHandler+0xa8>
      SET_BIT(hadc->State, HAL_ADC_STATE_INJ_EOC);
 8001994:	6d62      	ldr	r2, [r4, #84]	@ 0x54
 8001996:	f442 5200 	orr.w	r2, r2, #8192	@ 0x2000
 800199a:	6562      	str	r2, [r4, #84]	@ 0x54
    if ((__LL_ADC_MULTI_INSTANCE_MASTER(hadc->Instance) == hadc->Instance)
 800199c:	4966      	ldr	r1, [pc, #408]	@ (8001b38 <HAL_ADC_IRQHandler+0x244>)
  return ((READ_BIT(ADCx->JSQR, ADC_JSQR_JEXTEN) == (LL_ADC_INJ_TRIG_SOFTWARE & ADC_JSQR_JEXTEN)) ? 1UL : 0UL);
 800199e:	6cda      	ldr	r2, [r3, #76]	@ 0x4c
 80019a0:	428b      	cmp	r3, r1
  return ((READ_BIT(ADCx->CFGR, ADC_CFGR_EXTEN) == (LL_ADC_REG_TRIG_SOFTWARE & ADC_CFGR_EXTEN)) ? 1UL : 0UL);
 80019a2:	68d8      	ldr	r0, [r3, #12]
  return ((READ_BIT(ADCx->JSQR, ADC_JSQR_JEXTEN) == (LL_ADC_INJ_TRIG_SOFTWARE & ADC_JSQR_JEXTEN)) ? 1UL : 0UL);
 80019a4:	f402 72c0 	and.w	r2, r2, #384	@ 0x180
 80019a8:	d073      	beq.n	8001a92 <HAL_ADC_IRQHandler+0x19e>
      tmp_cfgr = READ_REG(hadc->Instance->CFGR);
 80019aa:	68d9      	ldr	r1, [r3, #12]
    if (tmp_adc_inj_is_trigger_source_sw_start != 0UL)
 80019ac:	b9d2      	cbnz	r2, 80019e4 <HAL_ADC_IRQHandler+0xf0>
      if ((READ_BIT(tmp_cfgr, ADC_CFGR_JAUTO) == 0UL) ||
 80019ae:	018a      	lsls	r2, r1, #6
 80019b0:	f100 80a9 	bmi.w	8001b06 <HAL_ADC_IRQHandler+0x212>
        if (__HAL_ADC_GET_FLAG(hadc, ADC_FLAG_JEOS))
 80019b4:	681a      	ldr	r2, [r3, #0]
 80019b6:	0650      	lsls	r0, r2, #25
 80019b8:	d514      	bpl.n	80019e4 <HAL_ADC_IRQHandler+0xf0>
          if (READ_BIT(tmp_cfgr, ADC_CFGR_JQM) == 0UL)
 80019ba:	0289      	lsls	r1, r1, #10
 80019bc:	d412      	bmi.n	80019e4 <HAL_ADC_IRQHandler+0xf0>
  * @param  ADCx ADC instance
  * @retval 0: no conversion is on going on ADC group injected.
  */
__STATIC_INLINE uint32_t LL_ADC_INJ_IsConversionOngoing(const ADC_TypeDef *ADCx)
{
  return ((READ_BIT(ADCx->CR, ADC_CR_JADSTART) == (ADC_CR_JADSTART)) ? 1UL : 0UL);
 80019be:	689a      	ldr	r2, [r3, #8]
 80019c0:	0712      	lsls	r2, r2, #28
 80019c2:	f100 80c8 	bmi.w	8001b56 <HAL_ADC_IRQHandler+0x262>
              __HAL_ADC_DISABLE_IT(hadc, ADC_IT_JEOC | ADC_IT_JEOS);
 80019c6:	685a      	ldr	r2, [r3, #4]
 80019c8:	f022 0260 	bic.w	r2, r2, #96	@ 0x60
 80019cc:	605a      	str	r2, [r3, #4]
              CLEAR_BIT(hadc->State, HAL_ADC_STATE_INJ_BUSY);
 80019ce:	6d63      	ldr	r3, [r4, #84]	@ 0x54
 80019d0:	f423 5380 	bic.w	r3, r3, #4096	@ 0x1000
 80019d4:	6563      	str	r3, [r4, #84]	@ 0x54
              if ((hadc->State & HAL_ADC_STATE_REG_BUSY) == 0UL)
 80019d6:	6d63      	ldr	r3, [r4, #84]	@ 0x54
 80019d8:	05d8      	lsls	r0, r3, #23
 80019da:	d403      	bmi.n	80019e4 <HAL_ADC_IRQHandler+0xf0>
                SET_BIT(hadc->State, HAL_ADC_STATE_READY);
 80019dc:	6d63      	ldr	r3, [r4, #84]	@ 0x54
 80019de:	f043 0301 	orr.w	r3, r3, #1
 80019e2:	6563      	str	r3, [r4, #84]	@ 0x54
    HAL_ADCEx_InjectedConvCpltCallback(hadc);
 80019e4:	4620      	mov	r0, r4
 80019e6:	f000 fe3f 	bl	8002668 <HAL_ADCEx_InjectedConvCpltCallback>
    __HAL_ADC_CLEAR_FLAG(hadc, ADC_FLAG_JEOC | ADC_FLAG_JEOS);
 80019ea:	6823      	ldr	r3, [r4, #0]
 80019ec:	2260      	movs	r2, #96	@ 0x60
 80019ee:	601a      	str	r2, [r3, #0]
  if (((tmp_isr & ADC_FLAG_AWD1) == ADC_FLAG_AWD1) && ((tmp_ier & ADC_IT_AWD1) == ADC_IT_AWD1))
 80019f0:	0629      	lsls	r1, r5, #24
 80019f2:	d501      	bpl.n	80019f8 <HAL_ADC_IRQHandler+0x104>
 80019f4:	0632      	lsls	r2, r6, #24
 80019f6:	d45f      	bmi.n	8001ab8 <HAL_ADC_IRQHandler+0x1c4>
  if (((tmp_isr & ADC_FLAG_AWD2) == ADC_FLAG_AWD2) && ((tmp_ier & ADC_IT_AWD2) == ADC_IT_AWD2))
 80019f8:	05e8      	lsls	r0, r5, #23
 80019fa:	d501      	bpl.n	8001a00 <HAL_ADC_IRQHandler+0x10c>
 80019fc:	05f1      	lsls	r1, r6, #23
 80019fe:	d466      	bmi.n	8001ace <HAL_ADC_IRQHandler+0x1da>
  if (((tmp_isr & ADC_FLAG_AWD3) == ADC_FLAG_AWD3) && ((tmp_ier & ADC_IT_AWD3) == ADC_IT_AWD3))
 8001a00:	05aa      	lsls	r2, r5, #22
 8001a02:	d501      	bpl.n	8001a08 <HAL_ADC_IRQHandler+0x114>
 8001a04:	05b0      	lsls	r0, r6, #22
 8001a06:	d44b      	bmi.n	8001aa0 <HAL_ADC_IRQHandler+0x1ac>
  if (((tmp_isr & ADC_FLAG_OVR) == ADC_FLAG_OVR) && ((tmp_ier & ADC_IT_OVR) == ADC_IT_OVR))
 8001a08:	06e9      	lsls	r1, r5, #27
 8001a0a:	d501      	bpl.n	8001a10 <HAL_ADC_IRQHandler+0x11c>
 8001a0c:	06f2      	lsls	r2, r6, #27
 8001a0e:	d411      	bmi.n	8001a34 <HAL_ADC_IRQHandler+0x140>
  if (((tmp_isr & ADC_FLAG_JQOVF) == ADC_FLAG_JQOVF) && ((tmp_ier & ADC_IT_JQOVF) == ADC_IT_JQOVF))
 8001a10:	0569      	lsls	r1, r5, #21
 8001a12:	d501      	bpl.n	8001a18 <HAL_ADC_IRQHandler+0x124>
 8001a14:	0572      	lsls	r2, r6, #21
 8001a16:	d466      	bmi.n	8001ae6 <HAL_ADC_IRQHandler+0x1f2>
}
 8001a18:	bdf8      	pop	{r3, r4, r5, r6, r7, pc}
  if ((((tmp_isr & ADC_FLAG_EOC) == ADC_FLAG_EOC) && ((tmp_ier & ADC_IT_EOC) == ADC_IT_EOC)) ||
 8001a1a:	0728      	lsls	r0, r5, #28
 8001a1c:	d5b3      	bpl.n	8001986 <HAL_ADC_IRQHandler+0x92>
      (((tmp_isr & ADC_FLAG_EOS) == ADC_FLAG_EOS) && ((tmp_ier & ADC_IT_EOS) == ADC_IT_EOS)))
 8001a1e:	0731      	lsls	r1, r6, #28
 8001a20:	d483      	bmi.n	800192a <HAL_ADC_IRQHandler+0x36>
  if ((((tmp_isr & ADC_FLAG_JEOC) == ADC_FLAG_JEOC) && ((tmp_ier & ADC_IT_JEOC) == ADC_IT_JEOC)) ||
 8001a22:	06aa      	lsls	r2, r5, #26
 8001a24:	d4b1      	bmi.n	800198a <HAL_ADC_IRQHandler+0x96>
 8001a26:	0669      	lsls	r1, r5, #25
 8001a28:	d5e2      	bpl.n	80019f0 <HAL_ADC_IRQHandler+0xfc>
      (((tmp_isr & ADC_FLAG_JEOS) == ADC_FLAG_JEOS) && ((tmp_ier & ADC_IT_JEOS) == ADC_IT_JEOS)))
 8001a2a:	0672      	lsls	r2, r6, #25
 8001a2c:	d5e0      	bpl.n	80019f0 <HAL_ADC_IRQHandler+0xfc>
 8001a2e:	e7ae      	b.n	800198e <HAL_ADC_IRQHandler+0x9a>
  uint32_t tmp_multimode_config = LL_ADC_GetMultimode(__LL_ADC_COMMON_INSTANCE(hadc->Instance));
 8001a30:	4a42      	ldr	r2, [pc, #264]	@ (8001b3c <HAL_ADC_IRQHandler+0x248>)
 8001a32:	e76e      	b.n	8001912 <HAL_ADC_IRQHandler+0x1e>
    if (hadc->Init.Overrun == ADC_OVR_DATA_PRESERVED)
 8001a34:	6b22      	ldr	r2, [r4, #48]	@ 0x30
 8001a36:	b17a      	cbz	r2, 8001a58 <HAL_ADC_IRQHandler+0x164>
      if (tmp_multimode_config != LL_ADC_MULTI_INDEPENDENT)
 8001a38:	2f00      	cmp	r7, #0
 8001a3a:	d075      	beq.n	8001b28 <HAL_ADC_IRQHandler+0x234>
        if (LL_ADC_GetMultiDMATransfer(__LL_ADC_COMMON_INSTANCE(hadc->Instance)) != LL_ADC_MULTI_REG_DMA_EACH_ADC)
 8001a3c:	4a3c      	ldr	r2, [pc, #240]	@ (8001b30 <HAL_ADC_IRQHandler+0x23c>)
 8001a3e:	4293      	cmp	r3, r2
 8001a40:	f000 8087 	beq.w	8001b52 <HAL_ADC_IRQHandler+0x25e>
 8001a44:	f502 7280 	add.w	r2, r2, #256	@ 0x100
 8001a48:	4293      	cmp	r3, r2
 8001a4a:	f000 8082 	beq.w	8001b52 <HAL_ADC_IRQHandler+0x25e>
 8001a4e:	4a39      	ldr	r2, [pc, #228]	@ (8001b34 <HAL_ADC_IRQHandler+0x240>)
  return (uint32_t)(READ_BIT(ADCxy_COMMON->CCR, ADC_CCR_DAMDF));
 8001a50:	6892      	ldr	r2, [r2, #8]
 8001a52:	f412 4f40 	tst.w	r2, #49152	@ 0xc000
 8001a56:	d00b      	beq.n	8001a70 <HAL_ADC_IRQHandler+0x17c>
      SET_BIT(hadc->State, HAL_ADC_STATE_REG_OVR);
 8001a58:	6d63      	ldr	r3, [r4, #84]	@ 0x54
      HAL_ADC_ErrorCallback(hadc);
 8001a5a:	4620      	mov	r0, r4
      SET_BIT(hadc->State, HAL_ADC_STATE_REG_OVR);
 8001a5c:	f443 6380 	orr.w	r3, r3, #1024	@ 0x400
 8001a60:	6563      	str	r3, [r4, #84]	@ 0x54
      SET_BIT(hadc->ErrorCode, HAL_ADC_ERROR_OVR);
 8001a62:	6da3      	ldr	r3, [r4, #88]	@ 0x58
 8001a64:	f043 0302 	orr.w	r3, r3, #2
 8001a68:	65a3      	str	r3, [r4, #88]	@ 0x58
      HAL_ADC_ErrorCallback(hadc);
 8001a6a:	f7ff ff41 	bl	80018f0 <HAL_ADC_ErrorCallback>
    __HAL_ADC_CLEAR_FLAG(hadc, ADC_FLAG_OVR);
 8001a6e:	6823      	ldr	r3, [r4, #0]
 8001a70:	2210      	movs	r2, #16
 8001a72:	601a      	str	r2, [r3, #0]
 8001a74:	e7cc      	b.n	8001a10 <HAL_ADC_IRQHandler+0x11c>
    if ((hadc->State & HAL_ADC_STATE_ERROR_INTERNAL) == 0UL)
 8001a76:	6d63      	ldr	r3, [r4, #84]	@ 0x54
 8001a78:	06d8      	lsls	r0, r3, #27
 8001a7a:	d403      	bmi.n	8001a84 <HAL_ADC_IRQHandler+0x190>
      SET_BIT(hadc->State, HAL_ADC_STATE_REG_EOSMP);
 8001a7c:	6d63      	ldr	r3, [r4, #84]	@ 0x54
 8001a7e:	f443 6300 	orr.w	r3, r3, #2048	@ 0x800
 8001a82:	6563      	str	r3, [r4, #84]	@ 0x54
    HAL_ADCEx_EndOfSamplingCallback(hadc);
 8001a84:	4620      	mov	r0, r4
 8001a86:	f000 fdf7 	bl	8002678 <HAL_ADCEx_EndOfSamplingCallback>
    __HAL_ADC_CLEAR_FLAG(hadc, ADC_FLAG_EOSMP);
 8001a8a:	6823      	ldr	r3, [r4, #0]
 8001a8c:	2202      	movs	r2, #2
 8001a8e:	601a      	str	r2, [r3, #0]
 8001a90:	e747      	b.n	8001922 <HAL_ADC_IRQHandler+0x2e>
        || (tmp_multimode_config == LL_ADC_MULTI_INDEPENDENT)
 8001a92:	21c1      	movs	r1, #193	@ 0xc1
 8001a94:	40f9      	lsrs	r1, r7
        || (tmp_multimode_config == LL_ADC_MULTI_DUAL_REG_INTERL)
 8001a96:	07c9      	lsls	r1, r1, #31
 8001a98:	d487      	bmi.n	80019aa <HAL_ADC_IRQHandler+0xb6>
      tmp_cfgr = READ_REG(tmpADC_Master->CFGR);
 8001a9a:	4925      	ldr	r1, [pc, #148]	@ (8001b30 <HAL_ADC_IRQHandler+0x23c>)
 8001a9c:	68c9      	ldr	r1, [r1, #12]
 8001a9e:	e785      	b.n	80019ac <HAL_ADC_IRQHandler+0xb8>
    SET_BIT(hadc->State, HAL_ADC_STATE_AWD3);
 8001aa0:	6d63      	ldr	r3, [r4, #84]	@ 0x54
    HAL_ADCEx_LevelOutOfWindow3Callback(hadc);
 8001aa2:	4620      	mov	r0, r4
    SET_BIT(hadc->State, HAL_ADC_STATE_AWD3);
 8001aa4:	f443 2380 	orr.w	r3, r3, #262144	@ 0x40000
 8001aa8:	6563      	str	r3, [r4, #84]	@ 0x54
    HAL_ADCEx_LevelOutOfWindow3Callback(hadc);
 8001aaa:	f000 fde3 	bl	8002674 <HAL_ADCEx_LevelOutOfWindow3Callback>
    __HAL_ADC_CLEAR_FLAG(hadc, ADC_FLAG_AWD3);
 8001aae:	6823      	ldr	r3, [r4, #0]
 8001ab0:	f44f 7200 	mov.w	r2, #512	@ 0x200
 8001ab4:	601a      	str	r2, [r3, #0]
 8001ab6:	e7a7      	b.n	8001a08 <HAL_ADC_IRQHandler+0x114>
    SET_BIT(hadc->State, HAL_ADC_STATE_AWD1);
 8001ab8:	6d63      	ldr	r3, [r4, #84]	@ 0x54
    HAL_ADC_LevelOutOfWindowCallback(hadc);
 8001aba:	4620      	mov	r0, r4
    SET_BIT(hadc->State, HAL_ADC_STATE_AWD1);
 8001abc:	f443 3380 	orr.w	r3, r3, #65536	@ 0x10000
 8001ac0:	6563      	str	r3, [r4, #84]	@ 0x54
    HAL_ADC_LevelOutOfWindowCallback(hadc);
 8001ac2:	f7ff ff13 	bl	80018ec <HAL_ADC_LevelOutOfWindowCallback>
    __HAL_ADC_CLEAR_FLAG(hadc, ADC_FLAG_AWD1);
 8001ac6:	6823      	ldr	r3, [r4, #0]
 8001ac8:	2280      	movs	r2, #128	@ 0x80
 8001aca:	601a      	str	r2, [r3, #0]
 8001acc:	e794      	b.n	80019f8 <HAL_ADC_IRQHandler+0x104>
    SET_BIT(hadc->State, HAL_ADC_STATE_AWD2);
 8001ace:	6d63      	ldr	r3, [r4, #84]	@ 0x54
    HAL_ADCEx_LevelOutOfWindow2Callback(hadc);
 8001ad0:	4620      	mov	r0, r4
    SET_BIT(hadc->State, HAL_ADC_STATE_AWD2);
 8001ad2:	f443 3300 	orr.w	r3, r3, #131072	@ 0x20000
 8001ad6:	6563      	str	r3, [r4, #84]	@ 0x54
    HAL_ADCEx_LevelOutOfWindow2Callback(hadc);
 8001ad8:	f000 fdca 	bl	8002670 <HAL_ADCEx_LevelOutOfWindow2Callback>
    __HAL_ADC_CLEAR_FLAG(hadc, ADC_FLAG_AWD2);
 8001adc:	6823      	ldr	r3, [r4, #0]
 8001ade:	f44f 7280 	mov.w	r2, #256	@ 0x100
 8001ae2:	601a      	str	r2, [r3, #0]
 8001ae4:	e78c      	b.n	8001a00 <HAL_ADC_IRQHandler+0x10c>
    SET_BIT(hadc->State, HAL_ADC_STATE_INJ_JQOVF);
 8001ae6:	6d62      	ldr	r2, [r4, #84]	@ 0x54
    __HAL_ADC_CLEAR_FLAG(hadc, ADC_FLAG_JQOVF);
 8001ae8:	f44f 6180 	mov.w	r1, #1024	@ 0x400
    HAL_ADCEx_InjectedQueueOverflowCallback(hadc);
 8001aec:	4620      	mov	r0, r4
    SET_BIT(hadc->State, HAL_ADC_STATE_INJ_JQOVF);
 8001aee:	f442 4280 	orr.w	r2, r2, #16384	@ 0x4000
 8001af2:	6562      	str	r2, [r4, #84]	@ 0x54
    SET_BIT(hadc->ErrorCode, HAL_ADC_ERROR_JQOVF);
 8001af4:	6da2      	ldr	r2, [r4, #88]	@ 0x58
 8001af6:	f042 0208 	orr.w	r2, r2, #8
 8001afa:	65a2      	str	r2, [r4, #88]	@ 0x58
    __HAL_ADC_CLEAR_FLAG(hadc, ADC_FLAG_JQOVF);
 8001afc:	6019      	str	r1, [r3, #0]
}
 8001afe:	e8bd 40f8 	ldmia.w	sp!, {r3, r4, r5, r6, r7, lr}
    HAL_ADCEx_InjectedQueueOverflowCallback(hadc);
 8001b02:	f000 bdb3 	b.w	800266c <HAL_ADCEx_InjectedQueueOverflowCallback>
  return ((READ_BIT(ADCx->CFGR, ADC_CFGR_EXTEN) == (LL_ADC_REG_TRIG_SOFTWARE & ADC_CFGR_EXTEN)) ? 1UL : 0UL);
 8001b06:	f400 6040 	and.w	r0, r0, #3072	@ 0xc00
           (READ_BIT(tmp_cfgr, ADC_CFGR_CONT) == 0UL)))
 8001b0a:	f401 5200 	and.w	r2, r1, #8192	@ 0x2000
          ((tmp_adc_reg_is_trigger_source_sw_start != 0UL) &&
 8001b0e:	4302      	orrs	r2, r0
 8001b10:	f47f af68 	bne.w	80019e4 <HAL_ADC_IRQHandler+0xf0>
 8001b14:	e74e      	b.n	80019b4 <HAL_ADC_IRQHandler+0xc0>
 8001b16:	f240 2221 	movw	r2, #545	@ 0x221
 8001b1a:	40fa      	lsrs	r2, r7
 8001b1c:	07d0      	lsls	r0, r2, #31
 8001b1e:	f53f af13 	bmi.w	8001948 <HAL_ADC_IRQHandler+0x54>
        tmp_cfgr = READ_REG(tmpADC_Master->CFGR);
 8001b22:	4a03      	ldr	r2, [pc, #12]	@ (8001b30 <HAL_ADC_IRQHandler+0x23c>)
 8001b24:	68d2      	ldr	r2, [r2, #12]
 8001b26:	e710      	b.n	800194a <HAL_ADC_IRQHandler+0x56>
        if ((hadc->Instance->CFGR & ADC_CFGR_DMNGT) != 0UL)
 8001b28:	68da      	ldr	r2, [r3, #12]
 8001b2a:	0790      	lsls	r0, r2, #30
 8001b2c:	d0a0      	beq.n	8001a70 <HAL_ADC_IRQHandler+0x17c>
 8001b2e:	e793      	b.n	8001a58 <HAL_ADC_IRQHandler+0x164>
 8001b30:	40022000 	.word	0x40022000
 8001b34:	58026300 	.word	0x58026300
 8001b38:	40022100 	.word	0x40022100
 8001b3c:	40022300 	.word	0x40022300
            SET_BIT(hadc->State, HAL_ADC_STATE_ERROR_INTERNAL);
 8001b40:	6d63      	ldr	r3, [r4, #84]	@ 0x54
 8001b42:	f043 0310 	orr.w	r3, r3, #16
 8001b46:	6563      	str	r3, [r4, #84]	@ 0x54
            SET_BIT(hadc->ErrorCode, HAL_ADC_ERROR_INTERNAL);
 8001b48:	6da3      	ldr	r3, [r4, #88]	@ 0x58
 8001b4a:	f043 0301 	orr.w	r3, r3, #1
 8001b4e:	65a3      	str	r3, [r4, #88]	@ 0x58
 8001b50:	e713      	b.n	800197a <HAL_ADC_IRQHandler+0x86>
        if (LL_ADC_GetMultiDMATransfer(__LL_ADC_COMMON_INSTANCE(hadc->Instance)) != LL_ADC_MULTI_REG_DMA_EACH_ADC)
 8001b52:	4a05      	ldr	r2, [pc, #20]	@ (8001b68 <HAL_ADC_IRQHandler+0x274>)
 8001b54:	e77c      	b.n	8001a50 <HAL_ADC_IRQHandler+0x15c>
              SET_BIT(hadc->State, HAL_ADC_STATE_ERROR_INTERNAL);
 8001b56:	6d63      	ldr	r3, [r4, #84]	@ 0x54
 8001b58:	f043 0310 	orr.w	r3, r3, #16
 8001b5c:	6563      	str	r3, [r4, #84]	@ 0x54
              SET_BIT(hadc->ErrorCode, HAL_ADC_ERROR_INTERNAL);
 8001b5e:	6da3      	ldr	r3, [r4, #88]	@ 0x58
 8001b60:	f043 0301 	orr.w	r3, r3, #1
 8001b64:	65a3      	str	r3, [r4, #88]	@ 0x58
 8001b66:	e73d      	b.n	80019e4 <HAL_ADC_IRQHandler+0xf0>
 8001b68:	40022300 	.word	0x40022300

08001b6c <ADC_DMAConvCplt>:
  ADC_HandleTypeDef *hadc = (ADC_HandleTypeDef *)((DMA_HandleTypeDef *)hdma)->Parent;
 8001b6c:	6b83      	ldr	r3, [r0, #56]	@ 0x38
  if ((hadc->State & (HAL_ADC_STATE_ERROR_INTERNAL | HAL_ADC_STATE_ERROR_DMA)) == 0UL)
 8001b6e:	6d5a      	ldr	r2, [r3, #84]	@ 0x54
 8001b70:	f012 0f50 	tst.w	r2, #80	@ 0x50
    SET_BIT(hadc->State, HAL_ADC_STATE_REG_EOC);
 8001b74:	6d5a      	ldr	r2, [r3, #84]	@ 0x54
{
 8001b76:	b510      	push	{r4, lr}
  if ((hadc->State & (HAL_ADC_STATE_ERROR_INTERNAL | HAL_ADC_STATE_ERROR_DMA)) == 0UL)
 8001b78:	d11d      	bne.n	8001bb6 <ADC_DMAConvCplt+0x4a>
    if ((hadc->Instance->ISR & ADC_FLAG_EOS) != 0UL)
 8001b7a:	6819      	ldr	r1, [r3, #0]
    SET_BIT(hadc->State, HAL_ADC_STATE_REG_EOC);
 8001b7c:	f442 7200 	orr.w	r2, r2, #512	@ 0x200
 8001b80:	655a      	str	r2, [r3, #84]	@ 0x54
    if ((hadc->Instance->ISR & ADC_FLAG_EOS) != 0UL)
 8001b82:	680a      	ldr	r2, [r1, #0]
 8001b84:	f012 0f08 	tst.w	r2, #8
 8001b88:	68ca      	ldr	r2, [r1, #12]
 8001b8a:	d01b      	beq.n	8001bc4 <ADC_DMAConvCplt+0x58>
 8001b8c:	f412 6f40 	tst.w	r2, #3072	@ 0xc00
 8001b90:	d10d      	bne.n	8001bae <ADC_DMAConvCplt+0x42>
        if (READ_BIT(hadc->Instance->CFGR, ADC_CFGR_CONT) == 0UL)
 8001b92:	68ca      	ldr	r2, [r1, #12]
 8001b94:	0494      	lsls	r4, r2, #18
 8001b96:	d40a      	bmi.n	8001bae <ADC_DMAConvCplt+0x42>
        CLEAR_BIT(hadc->State, HAL_ADC_STATE_REG_BUSY);
 8001b98:	6d5a      	ldr	r2, [r3, #84]	@ 0x54
 8001b9a:	f422 7280 	bic.w	r2, r2, #256	@ 0x100
 8001b9e:	655a      	str	r2, [r3, #84]	@ 0x54
        if ((hadc->State & HAL_ADC_STATE_INJ_BUSY) == 0UL)
 8001ba0:	6d5a      	ldr	r2, [r3, #84]	@ 0x54
 8001ba2:	04d1      	lsls	r1, r2, #19
 8001ba4:	d403      	bmi.n	8001bae <ADC_DMAConvCplt+0x42>
          SET_BIT(hadc->State, HAL_ADC_STATE_READY);
 8001ba6:	6d5a      	ldr	r2, [r3, #84]	@ 0x54
 8001ba8:	f042 0201 	orr.w	r2, r2, #1
 8001bac:	655a      	str	r2, [r3, #84]	@ 0x54
    HAL_ADC_ConvCpltCallback(hadc);
 8001bae:	4618      	mov	r0, r3
 8001bb0:	f7fe fc86 	bl	80004c0 <HAL_ADC_ConvCpltCallback>
}
 8001bb4:	bd10      	pop	{r4, pc}
    if ((hadc->State & HAL_ADC_STATE_ERROR_INTERNAL) != 0UL)
 8001bb6:	06d2      	lsls	r2, r2, #27
 8001bb8:	d40a      	bmi.n	8001bd0 <ADC_DMAConvCplt+0x64>
      hadc->DMA_Handle->XferErrorCallback(hdma);
 8001bba:	6cdb      	ldr	r3, [r3, #76]	@ 0x4c
}
 8001bbc:	e8bd 4010 	ldmia.w	sp!, {r4, lr}
      hadc->DMA_Handle->XferErrorCallback(hdma);
 8001bc0:	6cdb      	ldr	r3, [r3, #76]	@ 0x4c
 8001bc2:	4718      	bx	r3
      if (READ_BIT(hadc->Instance->CFGR, ADC_CFGR_DMNGT) == 0UL)
 8001bc4:	0790      	lsls	r0, r2, #30
 8001bc6:	d0e7      	beq.n	8001b98 <ADC_DMAConvCplt+0x2c>
    HAL_ADC_ConvCpltCallback(hadc);
 8001bc8:	4618      	mov	r0, r3
 8001bca:	f7fe fc79 	bl	80004c0 <HAL_ADC_ConvCpltCallback>
 8001bce:	e7f1      	b.n	8001bb4 <ADC_DMAConvCplt+0x48>
      HAL_ADC_ErrorCallback(hadc);
 8001bd0:	4618      	mov	r0, r3
 8001bd2:	f7ff fe8d 	bl	80018f0 <HAL_ADC_ErrorCallback>
}
 8001bd6:	bd10      	pop	{r4, pc}

08001bd8 <ADC_DMAError>:
  * @retval None
  */
void ADC_DMAError(DMA_HandleTypeDef *hdma)
{
  /* Retrieve ADC handle corresponding to current DMA handle */
  ADC_HandleTypeDef *hadc = (ADC_HandleTypeDef *)((DMA_HandleTypeDef *)hdma)->Parent;
 8001bd8:	6b80      	ldr	r0, [r0, #56]	@ 0x38
{
 8001bda:	b508      	push	{r3, lr}

  /* Set ADC state */
  SET_BIT(hadc->State, HAL_ADC_STATE_ERROR_DMA);
 8001bdc:	6d43      	ldr	r3, [r0, #84]	@ 0x54
 8001bde:	f043 0340 	orr.w	r3, r3, #64	@ 0x40
 8001be2:	6543      	str	r3, [r0, #84]	@ 0x54

  /* Set ADC error code to DMA error */
  SET_BIT(hadc->ErrorCode, HAL_ADC_ERROR_DMA);
 8001be4:	6d83      	ldr	r3, [r0, #88]	@ 0x58
 8001be6:	f043 0304 	orr.w	r3, r3, #4
 8001bea:	6583      	str	r3, [r0, #88]	@ 0x58

  /* Error callback */
#if (USE_HAL_ADC_REGISTER_CALLBACKS == 1)
  hadc->ErrorCallback(hadc);
#else
  HAL_ADC_ErrorCallback(hadc);
 8001bec:	f7ff fe80 	bl	80018f0 <HAL_ADC_ErrorCallback>
#endif /* USE_HAL_ADC_REGISTER_CALLBACKS */
}
 8001bf0:	bd08      	pop	{r3, pc}
 8001bf2:	bf00      	nop

08001bf4 <HAL_ADC_ConfigChannel>:
{
 8001bf4:	b570      	push	{r4, r5, r6, lr}
  __IO uint32_t wait_loop_index = 0;
 8001bf6:	2200      	movs	r2, #0
{
 8001bf8:	b082      	sub	sp, #8
  __IO uint32_t wait_loop_index = 0;
 8001bfa:	9201      	str	r2, [sp, #4]
  __HAL_LOCK(hadc);
 8001bfc:	f890 2050 	ldrb.w	r2, [r0, #80]	@ 0x50
 8001c00:	2a01      	cmp	r2, #1
 8001c02:	f000 80ef 	beq.w	8001de4 <HAL_ADC_ConfigChannel+0x1f0>
 8001c06:	2401      	movs	r4, #1
  if (LL_ADC_REG_IsConversionOngoing(hadc->Instance) == 0UL)
 8001c08:	6802      	ldr	r2, [r0, #0]
 8001c0a:	4603      	mov	r3, r0
  __HAL_LOCK(hadc);
 8001c0c:	f880 4050 	strb.w	r4, [r0, #80]	@ 0x50
  return ((READ_BIT(ADCx->CR, ADC_CR_ADSTART) == (ADC_CR_ADSTART)) ? 1UL : 0UL);
 8001c10:	6890      	ldr	r0, [r2, #8]
 8001c12:	0745      	lsls	r5, r0, #29
 8001c14:	d509      	bpl.n	8001c2a <HAL_ADC_ConfigChannel+0x36>
          SET_BIT(hadc->State, HAL_ADC_STATE_ERROR_CONFIG);
 8001c16:	6d5a      	ldr	r2, [r3, #84]	@ 0x54
    tmp_hal_status = HAL_ERROR;
 8001c18:	2001      	movs	r0, #1
          SET_BIT(hadc->State, HAL_ADC_STATE_ERROR_CONFIG);
 8001c1a:	f042 0220 	orr.w	r2, r2, #32
 8001c1e:	655a      	str	r2, [r3, #84]	@ 0x54
  __HAL_UNLOCK(hadc);
 8001c20:	2200      	movs	r2, #0
 8001c22:	f883 2050 	strb.w	r2, [r3, #80]	@ 0x50
}
 8001c26:	b002      	add	sp, #8
 8001c28:	bd70      	pop	{r4, r5, r6, pc}
    if (!(__LL_ADC_IS_CHANNEL_INTERNAL(sConfig->Channel)))
 8001c2a:	680d      	ldr	r5, [r1, #0]
 8001c2c:	2d00      	cmp	r5, #0
      hadc->Instance->PCSEL |= (1UL << (__LL_ADC_CHANNEL_TO_DECIMAL_NB((uint32_t)sConfig->Channel) & 0x1FUL));
 8001c2e:	ea4f 6095 	mov.w	r0, r5, lsr #26
    if (!(__LL_ADC_IS_CHANNEL_INTERNAL(sConfig->Channel)))
 8001c32:	db0d      	blt.n	8001c50 <HAL_ADC_ConfigChannel+0x5c>
      hadc->Instance->PCSEL |= (1UL << (__LL_ADC_CHANNEL_TO_DECIMAL_NB((uint32_t)sConfig->Channel) & 0x1FUL));
 8001c34:	f3c5 0613 	ubfx	r6, r5, #0, #20
 8001c38:	2e00      	cmp	r6, #0
 8001c3a:	f000 80c1 	beq.w	8001dc0 <HAL_ADC_ConfigChannel+0x1cc>
  uint32_t result;

#if ((defined (__ARM_ARCH_7M__      ) && (__ARM_ARCH_7M__      == 1)) || \
     (defined (__ARM_ARCH_7EM__     ) && (__ARM_ARCH_7EM__     == 1)) || \
     (defined (__ARM_ARCH_8M_MAIN__ ) && (__ARM_ARCH_8M_MAIN__ == 1))    )
   __ASM volatile ("rbit %0, %1" : "=r" (result) : "r" (value) );
 8001c3e:	fa95 f5a5 	rbit	r5, r5
     optimisations using the logic "value was passed to __builtin_clz, so it
     is non-zero".
     ARM GCC 7.3 and possibly earlier will optimise this test away, leaving a
     single CLZ instruction.
   */
  if (value == 0U)
 8001c42:	b115      	cbz	r5, 8001c4a <HAL_ADC_ConfigChannel+0x56>
  {
    return 32U;
  }
  return __builtin_clz(value);
 8001c44:	fab5 f585 	clz	r5, r5
 8001c48:	40ac      	lsls	r4, r5
 8001c4a:	69d5      	ldr	r5, [r2, #28]
 8001c4c:	432c      	orrs	r4, r5
 8001c4e:	61d4      	str	r4, [r2, #28]
    LL_ADC_REG_SetSequencerRanks(hadc->Instance, sConfig->Rank, sConfig->Channel);
 8001c50:	684c      	ldr	r4, [r1, #4]
  MODIFY_REG(*preg,
 8001c52:	f04f 0c1f 	mov.w	ip, #31
  __IO uint32_t *preg = __ADC_PTR_REG_OFFSET(ADCx->SQR1, ((Rank & ADC_REG_SQRX_REGOFFSET_MASK) >> ADC_SQRX_REGOFFSET_POS));
 8001c56:	f102 0e30 	add.w	lr, r2, #48	@ 0x30
  MODIFY_REG(*preg,
 8001c5a:	f000 001f 	and.w	r0, r0, #31
  __IO uint32_t *preg = __ADC_PTR_REG_OFFSET(ADCx->SQR1, ((Rank & ADC_REG_SQRX_REGOFFSET_MASK) >> ADC_SQRX_REGOFFSET_POS));
 8001c5e:	09a5      	lsrs	r5, r4, #6
  MODIFY_REG(*preg,
 8001c60:	ea04 040c 	and.w	r4, r4, ip
  __IO uint32_t *preg = __ADC_PTR_REG_OFFSET(ADCx->SQR1, ((Rank & ADC_REG_SQRX_REGOFFSET_MASK) >> ADC_SQRX_REGOFFSET_POS));
 8001c64:	f005 050c 	and.w	r5, r5, #12
  MODIFY_REG(*preg,
 8001c68:	fa0c fc04 	lsl.w	ip, ip, r4
 8001c6c:	40a0      	lsls	r0, r4
 8001c6e:	f85e 4005 	ldr.w	r4, [lr, r5]
 8001c72:	ea24 0c0c 	bic.w	ip, r4, ip
 8001c76:	ea4c 0000 	orr.w	r0, ip, r0
 8001c7a:	f84e 0005 	str.w	r0, [lr, r5]
  return ((READ_BIT(ADCx->CR, ADC_CR_ADSTART) == (ADC_CR_ADSTART)) ? 1UL : 0UL);
 8001c7e:	6890      	ldr	r0, [r2, #8]
 8001c80:	f010 0f04 	tst.w	r0, #4
  return ((READ_BIT(ADCx->CR, ADC_CR_JADSTART) == (ADC_CR_JADSTART)) ? 1UL : 0UL);
 8001c84:	6890      	ldr	r0, [r2, #8]
  return ((READ_BIT(ADCx->CR, ADC_CR_ADSTART) == (ADC_CR_ADSTART)) ? 1UL : 0UL);
 8001c86:	d101      	bne.n	8001c8c <HAL_ADC_ConfigChannel+0x98>
  return ((READ_BIT(ADCx->CR, ADC_CR_JADSTART) == (ADC_CR_JADSTART)) ? 1UL : 0UL);
 8001c88:	0700      	lsls	r0, r0, #28
 8001c8a:	d542      	bpl.n	8001d12 <HAL_ADC_ConfigChannel+0x11e>
  return ((READ_BIT(ADCx->CR, ADC_CR_ADEN) == (ADC_CR_ADEN)) ? 1UL : 0UL);
 8001c8c:	6890      	ldr	r0, [r2, #8]
 8001c8e:	07c6      	lsls	r6, r0, #31
 8001c90:	d43d      	bmi.n	8001d0e <HAL_ADC_ConfigChannel+0x11a>
      LL_ADC_SetChannelSingleDiff(hadc->Instance, sConfig->Channel, sConfig->SingleDiff);
 8001c92:	68cd      	ldr	r5, [r1, #12]
 8001c94:	680c      	ldr	r4, [r1, #0]
  MODIFY_REG(ADCx->DIFSEL,
 8001c96:	f005 0618 	and.w	r6, r5, #24
 8001c9a:	48a9      	ldr	r0, [pc, #676]	@ (8001f40 <HAL_ADC_ConfigChannel+0x34c>)
 8001c9c:	f8d2 10c0 	ldr.w	r1, [r2, #192]	@ 0xc0
 8001ca0:	40f0      	lsrs	r0, r6
 8001ca2:	f3c4 0613 	ubfx	r6, r4, #0, #20
 8001ca6:	4020      	ands	r0, r4
 8001ca8:	ea21 0106 	bic.w	r1, r1, r6
 8001cac:	4301      	orrs	r1, r0
 8001cae:	f8c2 10c0 	str.w	r1, [r2, #192]	@ 0xc0
      if (sConfig->SingleDiff == ADC_DIFFERENTIAL_ENDED)
 8001cb2:	49a4      	ldr	r1, [pc, #656]	@ (8001f44 <HAL_ADC_ConfigChannel+0x350>)
 8001cb4:	428d      	cmp	r5, r1
 8001cb6:	f000 808a 	beq.w	8001dce <HAL_ADC_ConfigChannel+0x1da>
      if (__LL_ADC_IS_CHANNEL_INTERNAL(sConfig->Channel))
 8001cba:	2c00      	cmp	r4, #0
 8001cbc:	da27      	bge.n	8001d0e <HAL_ADC_ConfigChannel+0x11a>
        tmp_config_internal_channel = LL_ADC_GetCommonPathInternalCh(__LL_ADC_COMMON_INSTANCE(hadc->Instance));
 8001cbe:	49a2      	ldr	r1, [pc, #648]	@ (8001f48 <HAL_ADC_ConfigChannel+0x354>)
 8001cc0:	428a      	cmp	r2, r1
 8001cc2:	f000 80bd 	beq.w	8001e40 <HAL_ADC_ConfigChannel+0x24c>
 8001cc6:	f501 7180 	add.w	r1, r1, #256	@ 0x100
 8001cca:	428a      	cmp	r2, r1
 8001ccc:	f000 80b8 	beq.w	8001e40 <HAL_ADC_ConfigChannel+0x24c>
  return (uint32_t)(READ_BIT(ADCxy_COMMON->CCR, ADC_CCR_VREFEN | ADC_CCR_TSEN | ADC_CCR_VBATEN));
 8001cd0:	489e      	ldr	r0, [pc, #632]	@ (8001f4c <HAL_ADC_ConfigChannel+0x358>)
  return ((READ_BIT(ADCx->CR, ADC_CR_ADEN) == (ADC_CR_ADEN)) ? 1UL : 0UL);
 8001cd2:	499f      	ldr	r1, [pc, #636]	@ (8001f50 <HAL_ADC_ConfigChannel+0x35c>)
  return (uint32_t)(READ_BIT(ADCxy_COMMON->CCR, ADC_CCR_VREFEN | ADC_CCR_TSEN | ADC_CCR_VBATEN));
 8001cd4:	6886      	ldr	r6, [r0, #8]
  return ((READ_BIT(ADCx->CR, ADC_CR_ADEN) == (ADC_CR_ADEN)) ? 1UL : 0UL);
 8001cd6:	688d      	ldr	r5, [r1, #8]
 8001cd8:	07ed      	lsls	r5, r5, #31
 8001cda:	d49c      	bmi.n	8001c16 <HAL_ADC_ConfigChannel+0x22>
          if ((sConfig->Channel == ADC_CHANNEL_TEMPSENSOR) && ((tmp_config_internal_channel & LL_ADC_PATH_INTERNAL_TEMPSENSOR) == 0UL))
 8001cdc:	4d9d      	ldr	r5, [pc, #628]	@ (8001f54 <HAL_ADC_ConfigChannel+0x360>)
  return (uint32_t)(READ_BIT(ADCxy_COMMON->CCR, ADC_CCR_VREFEN | ADC_CCR_TSEN | ADC_CCR_VBATEN));
 8001cde:	f006 7ce0 	and.w	ip, r6, #29360128	@ 0x1c00000
 8001ce2:	42ac      	cmp	r4, r5
 8001ce4:	f000 8156 	beq.w	8001f94 <HAL_ADC_ConfigChannel+0x3a0>
          else if ((sConfig->Channel == ADC_CHANNEL_VBAT) && ((tmp_config_internal_channel & LL_ADC_PATH_INTERNAL_VBAT) == 0UL))
 8001ce8:	4d9b      	ldr	r5, [pc, #620]	@ (8001f58 <HAL_ADC_ConfigChannel+0x364>)
 8001cea:	42ac      	cmp	r4, r5
 8001cec:	f000 8118 	beq.w	8001f20 <HAL_ADC_ConfigChannel+0x32c>
          else if ((sConfig->Channel == ADC_CHANNEL_VREFINT) && ((tmp_config_internal_channel & LL_ADC_PATH_INTERNAL_VREFINT) == 0UL))
 8001cf0:	4d9a      	ldr	r5, [pc, #616]	@ (8001f5c <HAL_ADC_ConfigChannel+0x368>)
 8001cf2:	42ac      	cmp	r4, r5
 8001cf4:	d10b      	bne.n	8001d0e <HAL_ADC_ConfigChannel+0x11a>
            if (ADC_VREFINT_INSTANCE(hadc))
 8001cf6:	0274      	lsls	r4, r6, #9
 8001cf8:	d409      	bmi.n	8001d0e <HAL_ADC_ConfigChannel+0x11a>
 8001cfa:	428a      	cmp	r2, r1
 8001cfc:	d107      	bne.n	8001d0e <HAL_ADC_ConfigChannel+0x11a>
  MODIFY_REG(ADCxy_COMMON->CCR, ADC_CCR_VREFEN | ADC_CCR_TSEN | ADC_CCR_VBATEN, PathInternal);
 8001cfe:	6882      	ldr	r2, [r0, #8]
 8001d00:	f022 72e0 	bic.w	r2, r2, #29360128	@ 0x1c00000
 8001d04:	ea42 020c 	orr.w	r2, r2, ip
 8001d08:	f442 0280 	orr.w	r2, r2, #4194304	@ 0x400000
 8001d0c:	6082      	str	r2, [r0, #8]
  HAL_StatusTypeDef tmp_hal_status = HAL_OK;
 8001d0e:	2000      	movs	r0, #0
 8001d10:	e786      	b.n	8001c20 <HAL_ADC_ConfigChannel+0x2c>
      LL_ADC_SetChannelSamplingTime(hadc->Instance, sConfig->Channel, sConfig->SamplingTime);
 8001d12:	680c      	ldr	r4, [r1, #0]
  __IO uint32_t *preg = __ADC_PTR_REG_OFFSET(ADCx->SMPR1, ((Channel & ADC_CHANNEL_SMPRX_REGOFFSET_MASK) >> ADC_SMPRX_REGOFFSET_POS));
 8001d14:	f102 0c14 	add.w	ip, r2, #20
  MODIFY_REG(*preg,
 8001d18:	f04f 0e07 	mov.w	lr, #7
 8001d1c:	688e      	ldr	r6, [r1, #8]
  __IO uint32_t *preg = __ADC_PTR_REG_OFFSET(ADCx->SMPR1, ((Channel & ADC_CHANNEL_SMPRX_REGOFFSET_MASK) >> ADC_SMPRX_REGOFFSET_POS));
 8001d1e:	0de5      	lsrs	r5, r4, #23
  MODIFY_REG(*preg,
 8001d20:	f3c4 5404 	ubfx	r4, r4, #20, #5
  __IO uint32_t *preg = __ADC_PTR_REG_OFFSET(ADCx->SMPR1, ((Channel & ADC_CHANNEL_SMPRX_REGOFFSET_MASK) >> ADC_SMPRX_REGOFFSET_POS));
 8001d24:	f005 0504 	and.w	r5, r5, #4
  MODIFY_REG(*preg,
 8001d28:	fa0e fe04 	lsl.w	lr, lr, r4
 8001d2c:	fa06 f404 	lsl.w	r4, r6, r4
 8001d30:	f85c 0005 	ldr.w	r0, [ip, r5]
 8001d34:	ea20 000e 	bic.w	r0, r0, lr
 8001d38:	4320      	orrs	r0, r4
 8001d3a:	f84c 0005 	str.w	r0, [ip, r5]
        tmpOffsetShifted = ADC_OFFSET_SHIFT_RESOLUTION(hadc, (uint32_t)sConfig->Offset);
 8001d3e:	4888      	ldr	r0, [pc, #544]	@ (8001f60 <HAL_ADC_ConfigChannel+0x36c>)
 8001d40:	694d      	ldr	r5, [r1, #20]
 8001d42:	6800      	ldr	r0, [r0, #0]
 8001d44:	f000 4070 	and.w	r0, r0, #4026531840	@ 0xf0000000
 8001d48:	f1b0 5f80 	cmp.w	r0, #268435456	@ 0x10000000
 8001d4c:	68d0      	ldr	r0, [r2, #12]
 8001d4e:	d039      	beq.n	8001dc4 <HAL_ADC_ConfigChannel+0x1d0>
 8001d50:	f010 0f10 	tst.w	r0, #16
 8001d54:	68d0      	ldr	r0, [r2, #12]
 8001d56:	d035      	beq.n	8001dc4 <HAL_ADC_ConfigChannel+0x1d0>
 8001d58:	0840      	lsrs	r0, r0, #1
 8001d5a:	f000 0008 	and.w	r0, r0, #8
 8001d5e:	4085      	lsls	r5, r0
      if (sConfig->OffsetNumber != ADC_OFFSET_NONE)
 8001d60:	690e      	ldr	r6, [r1, #16]
        LL_ADC_SetOffset(hadc->Instance, sConfig->OffsetNumber, sConfig->Channel, tmpOffsetShifted);
 8001d62:	6808      	ldr	r0, [r1, #0]
      if (sConfig->OffsetNumber != ADC_OFFSET_NONE)
 8001d64:	2e04      	cmp	r6, #4
 8001d66:	d040      	beq.n	8001dea <HAL_ADC_ConfigChannel+0x1f6>
  __IO uint32_t *preg = __ADC_PTR_REG_OFFSET(ADCx->OFR1, Offsety);
 8001d68:	f102 0c60 	add.w	ip, r2, #96	@ 0x60
    MODIFY_REG(*preg,
 8001d6c:	f000 44f8 	and.w	r4, r0, #2080374784	@ 0x7c000000
 8001d70:	f85c 0026 	ldr.w	r0, [ip, r6, lsl #2]
 8001d74:	f000 4000 	and.w	r0, r0, #2147483648	@ 0x80000000
 8001d78:	4320      	orrs	r0, r4
 8001d7a:	4328      	orrs	r0, r5
 8001d7c:	f84c 0026 	str.w	r0, [ip, r6, lsl #2]
          LL_ADC_SetOffsetSignedSaturation(hadc->Instance, sConfig->OffsetNumber, (sConfig->OffsetSignedSaturation == ENABLE) ? LL_ADC_OFFSET_SIGNED_SATURATION_ENABLE : LL_ADC_OFFSET_SIGNED_SATURATION_DISABLE);
 8001d80:	7e4c      	ldrb	r4, [r1, #25]
    __IO uint32_t *preg = __ADC_PTR_REG_OFFSET(ADCx->OFR1, Offsety);
 8001d82:	690d      	ldr	r5, [r1, #16]
 8001d84:	f1a4 0401 	sub.w	r4, r4, #1
    MODIFY_REG(*preg, ADC_OFR1_SSATE, OffsetSignedSaturation);
 8001d88:	f85c 0025 	ldr.w	r0, [ip, r5, lsl #2]
 8001d8c:	fab4 f484 	clz	r4, r4
 8001d90:	f020 4000 	bic.w	r0, r0, #2147483648	@ 0x80000000
 8001d94:	0964      	lsrs	r4, r4, #5
 8001d96:	ea40 70c4 	orr.w	r0, r0, r4, lsl #31
 8001d9a:	f84c 0025 	str.w	r0, [ip, r5, lsl #2]
          LL_ADC_SetDataRightShift(hadc->Instance, sConfig->OffsetNumber, (sConfig->OffsetRightShift == ENABLE) ? LL_ADC_OFFSET_RSHIFT_ENABLE : LL_ADC_OFFSET_RSHIFT_DISABLE);
 8001d9e:	7e08      	ldrb	r0, [r1, #24]
  MODIFY_REG(ADCx->CFGR2, (ADC_CFGR2_RSHIFT1 | ADC_CFGR2_RSHIFT2 | ADC_CFGR2_RSHIFT3 | ADC_CFGR2_RSHIFT4), RigthShift << (Offsety & 0x1FUL));
 8001da0:	690d      	ldr	r5, [r1, #16]
 8001da2:	f1a0 0001 	sub.w	r0, r0, #1
 8001da6:	6914      	ldr	r4, [r2, #16]
 8001da8:	f005 051f 	and.w	r5, r5, #31
 8001dac:	fab0 f080 	clz	r0, r0
 8001db0:	f424 44f0 	bic.w	r4, r4, #30720	@ 0x7800
 8001db4:	0940      	lsrs	r0, r0, #5
 8001db6:	02c0      	lsls	r0, r0, #11
 8001db8:	40a8      	lsls	r0, r5
 8001dba:	4320      	orrs	r0, r4
 8001dbc:	6110      	str	r0, [r2, #16]
}
 8001dbe:	e765      	b.n	8001c8c <HAL_ADC_ConfigChannel+0x98>
      hadc->Instance->PCSEL |= (1UL << (__LL_ADC_CHANNEL_TO_DECIMAL_NB((uint32_t)sConfig->Channel) & 0x1FUL));
 8001dc0:	4084      	lsls	r4, r0
 8001dc2:	e742      	b.n	8001c4a <HAL_ADC_ConfigChannel+0x56>
        tmpOffsetShifted = ADC_OFFSET_SHIFT_RESOLUTION(hadc, (uint32_t)sConfig->Offset);
 8001dc4:	f3c0 0082 	ubfx	r0, r0, #2, #3
 8001dc8:	0040      	lsls	r0, r0, #1
 8001dca:	4085      	lsls	r5, r0
 8001dcc:	e7c8      	b.n	8001d60 <HAL_ADC_ConfigChannel+0x16c>
        LL_ADC_SetChannelPreselection(hadc->Instance, ADC_CHANNEL_DIFF_NEG_INPUT(hadc, sConfig->Channel));
 8001dce:	495e      	ldr	r1, [pc, #376]	@ (8001f48 <HAL_ADC_ConfigChannel+0x354>)
 8001dd0:	428a      	cmp	r2, r1
 8001dd2:	d07a      	beq.n	8001eca <HAL_ADC_ConfigChannel+0x2d6>
 8001dd4:	4963      	ldr	r1, [pc, #396]	@ (8001f64 <HAL_ADC_ConfigChannel+0x370>)
 8001dd6:	428a      	cmp	r2, r1
 8001dd8:	d040      	beq.n	8001e5c <HAL_ADC_ConfigChannel+0x268>
    ADCx->PCSEL |= (1UL << (__LL_ADC_CHANNEL_TO_DECIMAL_NB(Channel) & 0x1FUL));
 8001dda:	69d1      	ldr	r1, [r2, #28]
 8001ddc:	f041 0101 	orr.w	r1, r1, #1
 8001de0:	61d1      	str	r1, [r2, #28]
}
 8001de2:	e76a      	b.n	8001cba <HAL_ADC_ConfigChannel+0xc6>
  __HAL_LOCK(hadc);
 8001de4:	2002      	movs	r0, #2
}
 8001de6:	b002      	add	sp, #8
 8001de8:	bd70      	pop	{r4, r5, r6, pc}
          if (((hadc->Instance->OFR1) & ADC_OFR1_OFFSET1_CH) == ADC_OFR_CHANNEL(sConfig->Channel))
 8001dea:	6e15      	ldr	r5, [r2, #96]	@ 0x60
 8001dec:	0684      	lsls	r4, r0, #26
 8001dee:	f005 45f8 	and.w	r5, r5, #2080374784	@ 0x7c000000
 8001df2:	ebb5 6f80 	cmp.w	r5, r0, lsl #26
 8001df6:	d014      	beq.n	8001e22 <HAL_ADC_ConfigChannel+0x22e>
          if (((hadc->Instance->OFR2) & ADC_OFR2_OFFSET2_CH) == ADC_OFR_CHANNEL(sConfig->Channel))
 8001df8:	6e50      	ldr	r0, [r2, #100]	@ 0x64
 8001dfa:	f000 40f8 	and.w	r0, r0, #2080374784	@ 0x7c000000
 8001dfe:	4284      	cmp	r4, r0
 8001e00:	d019      	beq.n	8001e36 <HAL_ADC_ConfigChannel+0x242>
          if (((hadc->Instance->OFR3) & ADC_OFR3_OFFSET3_CH) == ADC_OFR_CHANNEL(sConfig->Channel))
 8001e02:	6e90      	ldr	r0, [r2, #104]	@ 0x68
 8001e04:	f000 40f8 	and.w	r0, r0, #2080374784	@ 0x7c000000
 8001e08:	4284      	cmp	r4, r0
 8001e0a:	d00f      	beq.n	8001e2c <HAL_ADC_ConfigChannel+0x238>
          if (((hadc->Instance->OFR4) & ADC_OFR4_OFFSET4_CH) == ADC_OFR_CHANNEL(sConfig->Channel))
 8001e0c:	6ed0      	ldr	r0, [r2, #108]	@ 0x6c
 8001e0e:	f000 40f8 	and.w	r0, r0, #2080374784	@ 0x7c000000
 8001e12:	4284      	cmp	r4, r0
 8001e14:	f47f af3a 	bne.w	8001c8c <HAL_ADC_ConfigChannel+0x98>
            CLEAR_BIT(hadc->Instance->OFR4, ADC_OFR4_SSATE);
 8001e18:	6ed0      	ldr	r0, [r2, #108]	@ 0x6c
 8001e1a:	f020 4000 	bic.w	r0, r0, #2147483648	@ 0x80000000
 8001e1e:	66d0      	str	r0, [r2, #108]	@ 0x6c
 8001e20:	e734      	b.n	8001c8c <HAL_ADC_ConfigChannel+0x98>
            CLEAR_BIT(hadc->Instance->OFR1, ADC_OFR1_SSATE);
 8001e22:	6e10      	ldr	r0, [r2, #96]	@ 0x60
 8001e24:	f020 4000 	bic.w	r0, r0, #2147483648	@ 0x80000000
 8001e28:	6610      	str	r0, [r2, #96]	@ 0x60
 8001e2a:	e7e5      	b.n	8001df8 <HAL_ADC_ConfigChannel+0x204>
            CLEAR_BIT(hadc->Instance->OFR3, ADC_OFR3_SSATE);
 8001e2c:	6e90      	ldr	r0, [r2, #104]	@ 0x68
 8001e2e:	f020 4000 	bic.w	r0, r0, #2147483648	@ 0x80000000
 8001e32:	6690      	str	r0, [r2, #104]	@ 0x68
 8001e34:	e7ea      	b.n	8001e0c <HAL_ADC_ConfigChannel+0x218>
            CLEAR_BIT(hadc->Instance->OFR2, ADC_OFR2_SSATE);
 8001e36:	6e50      	ldr	r0, [r2, #100]	@ 0x64
 8001e38:	f020 4000 	bic.w	r0, r0, #2147483648	@ 0x80000000
 8001e3c:	6650      	str	r0, [r2, #100]	@ 0x64
 8001e3e:	e7e0      	b.n	8001e02 <HAL_ADC_ConfigChannel+0x20e>
  return (uint32_t)(READ_BIT(ADCxy_COMMON->CCR, ADC_CCR_VREFEN | ADC_CCR_TSEN | ADC_CCR_VBATEN));
 8001e40:	4949      	ldr	r1, [pc, #292]	@ (8001f68 <HAL_ADC_ConfigChannel+0x374>)
  return ((READ_BIT(ADCx->CR, ADC_CR_ADEN) == (ADC_CR_ADEN)) ? 1UL : 0UL);
 8001e42:	4a41      	ldr	r2, [pc, #260]	@ (8001f48 <HAL_ADC_ConfigChannel+0x354>)
  return (uint32_t)(READ_BIT(ADCxy_COMMON->CCR, ADC_CCR_VREFEN | ADC_CCR_TSEN | ADC_CCR_VBATEN));
 8001e44:	6889      	ldr	r1, [r1, #8]
  return ((READ_BIT(ADCx->CR, ADC_CR_ADEN) == (ADC_CR_ADEN)) ? 1UL : 0UL);
 8001e46:	6892      	ldr	r2, [r2, #8]
 8001e48:	f012 0f01 	tst.w	r2, #1
 8001e4c:	4a45      	ldr	r2, [pc, #276]	@ (8001f64 <HAL_ADC_ConfigChannel+0x370>)
 8001e4e:	6892      	ldr	r2, [r2, #8]
 8001e50:	f47f aee1 	bne.w	8001c16 <HAL_ADC_ConfigChannel+0x22>
 8001e54:	07d2      	lsls	r2, r2, #31
 8001e56:	f53f aede 	bmi.w	8001c16 <HAL_ADC_ConfigChannel+0x22>
 8001e5a:	e758      	b.n	8001d0e <HAL_ADC_ConfigChannel+0x11a>
        LL_ADC_SetChannelPreselection(hadc->Instance, ADC_CHANNEL_DIFF_NEG_INPUT(hadc, sConfig->Channel));
 8001e5c:	4943      	ldr	r1, [pc, #268]	@ (8001f6c <HAL_ADC_ConfigChannel+0x378>)
 8001e5e:	428c      	cmp	r4, r1
 8001e60:	d058      	beq.n	8001f14 <HAL_ADC_ConfigChannel+0x320>
 8001e62:	4943      	ldr	r1, [pc, #268]	@ (8001f70 <HAL_ADC_ConfigChannel+0x37c>)
 8001e64:	428c      	cmp	r4, r1
 8001e66:	d057      	beq.n	8001f18 <HAL_ADC_ConfigChannel+0x324>
 8001e68:	4942      	ldr	r1, [pc, #264]	@ (8001f74 <HAL_ADC_ConfigChannel+0x380>)
 8001e6a:	428c      	cmp	r4, r1
 8001e6c:	f000 80b5 	beq.w	8001fda <HAL_ADC_ConfigChannel+0x3e6>
 8001e70:	4941      	ldr	r1, [pc, #260]	@ (8001f78 <HAL_ADC_ConfigChannel+0x384>)
 8001e72:	428c      	cmp	r4, r1
 8001e74:	f000 80b3 	beq.w	8001fde <HAL_ADC_ConfigChannel+0x3ea>
 8001e78:	f101 6186 	add.w	r1, r1, #70254592	@ 0x4300000
 8001e7c:	3110      	adds	r1, #16
 8001e7e:	428c      	cmp	r4, r1
 8001e80:	f000 80af 	beq.w	8001fe2 <HAL_ADC_ConfigChannel+0x3ee>
 8001e84:	493d      	ldr	r1, [pc, #244]	@ (8001f7c <HAL_ADC_ConfigChannel+0x388>)
 8001e86:	428c      	cmp	r4, r1
 8001e88:	f000 80ad 	beq.w	8001fe6 <HAL_ADC_ConfigChannel+0x3f2>
 8001e8c:	f101 2104 	add.w	r1, r1, #67109888	@ 0x4000400
 8001e90:	f501 1140 	add.w	r1, r1, #3145728	@ 0x300000
 8001e94:	428c      	cmp	r4, r1
 8001e96:	f000 80a8 	beq.w	8001fea <HAL_ADC_ConfigChannel+0x3f6>
 8001e9a:	f101 6186 	add.w	r1, r1, #70254592	@ 0x4300000
 8001e9e:	f501 6100 	add.w	r1, r1, #2048	@ 0x800
 8001ea2:	428c      	cmp	r4, r1
 8001ea4:	f000 80a3 	beq.w	8001fee <HAL_ADC_ConfigChannel+0x3fa>
 8001ea8:	4935      	ldr	r1, [pc, #212]	@ (8001f80 <HAL_ADC_ConfigChannel+0x38c>)
 8001eaa:	428c      	cmp	r4, r1
 8001eac:	d195      	bne.n	8001dda <HAL_ADC_ConfigChannel+0x1e6>
 8001eae:	4935      	ldr	r1, [pc, #212]	@ (8001f84 <HAL_ADC_ConfigChannel+0x390>)
   __ASM volatile ("rbit %0, %1" : "=r" (result) : "r" (value) );
 8001eb0:	fa91 f1a1 	rbit	r1, r1
  if (value == 0U)
 8001eb4:	2900      	cmp	r1, #0
 8001eb6:	d031      	beq.n	8001f1c <HAL_ADC_ConfigChannel+0x328>
  return __builtin_clz(value);
 8001eb8:	fab1 f181 	clz	r1, r1
    ADCx->PCSEL |= (1UL << (__LL_ADC_CHANNEL_TO_DECIMAL_NB(Channel) & 0x1FUL));
 8001ebc:	2001      	movs	r0, #1
 8001ebe:	fa00 f101 	lsl.w	r1, r0, r1
 8001ec2:	69d0      	ldr	r0, [r2, #28]
 8001ec4:	4301      	orrs	r1, r0
 8001ec6:	61d1      	str	r1, [r2, #28]
      if (__LL_ADC_IS_CHANNEL_INTERNAL(sConfig->Channel))
 8001ec8:	e721      	b.n	8001d0e <HAL_ADC_ConfigChannel+0x11a>
        LL_ADC_SetChannelPreselection(hadc->Instance, ADC_CHANNEL_DIFF_NEG_INPUT(hadc, sConfig->Channel));
 8001eca:	4928      	ldr	r1, [pc, #160]	@ (8001f6c <HAL_ADC_ConfigChannel+0x378>)
 8001ecc:	428c      	cmp	r4, r1
 8001ece:	d021      	beq.n	8001f14 <HAL_ADC_ConfigChannel+0x320>
 8001ed0:	4927      	ldr	r1, [pc, #156]	@ (8001f70 <HAL_ADC_ConfigChannel+0x37c>)
 8001ed2:	428c      	cmp	r4, r1
 8001ed4:	d020      	beq.n	8001f18 <HAL_ADC_ConfigChannel+0x324>
 8001ed6:	4927      	ldr	r1, [pc, #156]	@ (8001f74 <HAL_ADC_ConfigChannel+0x380>)
 8001ed8:	428c      	cmp	r4, r1
 8001eda:	d07e      	beq.n	8001fda <HAL_ADC_ConfigChannel+0x3e6>
 8001edc:	4926      	ldr	r1, [pc, #152]	@ (8001f78 <HAL_ADC_ConfigChannel+0x384>)
 8001ede:	428c      	cmp	r4, r1
 8001ee0:	d07d      	beq.n	8001fde <HAL_ADC_ConfigChannel+0x3ea>
 8001ee2:	f101 6186 	add.w	r1, r1, #70254592	@ 0x4300000
 8001ee6:	3110      	adds	r1, #16
 8001ee8:	428c      	cmp	r4, r1
 8001eea:	d07a      	beq.n	8001fe2 <HAL_ADC_ConfigChannel+0x3ee>
 8001eec:	4923      	ldr	r1, [pc, #140]	@ (8001f7c <HAL_ADC_ConfigChannel+0x388>)
 8001eee:	428c      	cmp	r4, r1
 8001ef0:	d079      	beq.n	8001fe6 <HAL_ADC_ConfigChannel+0x3f2>
 8001ef2:	f101 2104 	add.w	r1, r1, #67109888	@ 0x4000400
 8001ef6:	f501 1140 	add.w	r1, r1, #3145728	@ 0x300000
 8001efa:	428c      	cmp	r4, r1
 8001efc:	d075      	beq.n	8001fea <HAL_ADC_ConfigChannel+0x3f6>
 8001efe:	f101 6186 	add.w	r1, r1, #70254592	@ 0x4300000
 8001f02:	f501 6100 	add.w	r1, r1, #2048	@ 0x800
 8001f06:	428c      	cmp	r4, r1
 8001f08:	d071      	beq.n	8001fee <HAL_ADC_ConfigChannel+0x3fa>
 8001f0a:	491f      	ldr	r1, [pc, #124]	@ (8001f88 <HAL_ADC_ConfigChannel+0x394>)
 8001f0c:	428c      	cmp	r4, r1
 8001f0e:	d1cb      	bne.n	8001ea8 <HAL_ADC_ConfigChannel+0x2b4>
 8001f10:	491e      	ldr	r1, [pc, #120]	@ (8001f8c <HAL_ADC_ConfigChannel+0x398>)
 8001f12:	e7cd      	b.n	8001eb0 <HAL_ADC_ConfigChannel+0x2bc>
 8001f14:	2101      	movs	r1, #1
 8001f16:	e7cb      	b.n	8001eb0 <HAL_ADC_ConfigChannel+0x2bc>
 8001f18:	491d      	ldr	r1, [pc, #116]	@ (8001f90 <HAL_ADC_ConfigChannel+0x39c>)
 8001f1a:	e7c9      	b.n	8001eb0 <HAL_ADC_ConfigChannel+0x2bc>
 8001f1c:	2101      	movs	r1, #1
 8001f1e:	e7d0      	b.n	8001ec2 <HAL_ADC_ConfigChannel+0x2ce>
            if (ADC_BATTERY_VOLTAGE_INSTANCE(hadc))
 8001f20:	01f5      	lsls	r5, r6, #7
 8001f22:	f53f aef4 	bmi.w	8001d0e <HAL_ADC_ConfigChannel+0x11a>
 8001f26:	428a      	cmp	r2, r1
 8001f28:	f47f aef1 	bne.w	8001d0e <HAL_ADC_ConfigChannel+0x11a>
  MODIFY_REG(ADCxy_COMMON->CCR, ADC_CCR_VREFEN | ADC_CCR_TSEN | ADC_CCR_VBATEN, PathInternal);
 8001f2c:	6882      	ldr	r2, [r0, #8]
 8001f2e:	f022 72e0 	bic.w	r2, r2, #29360128	@ 0x1c00000
 8001f32:	ea42 020c 	orr.w	r2, r2, ip
 8001f36:	f042 7280 	orr.w	r2, r2, #16777216	@ 0x1000000
 8001f3a:	6082      	str	r2, [r0, #8]
}
 8001f3c:	e6e7      	b.n	8001d0e <HAL_ADC_ConfigChannel+0x11a>
 8001f3e:	bf00      	nop
 8001f40:	000fffff 	.word	0x000fffff
 8001f44:	47ff0000 	.word	0x47ff0000
 8001f48:	40022000 	.word	0x40022000
 8001f4c:	58026300 	.word	0x58026300
 8001f50:	58026000 	.word	0x58026000
 8001f54:	cb840000 	.word	0xcb840000
 8001f58:	c7520000 	.word	0xc7520000
 8001f5c:	cfb80000 	.word	0xcfb80000
 8001f60:	5c001000 	.word	0x5c001000
 8001f64:	40022100 	.word	0x40022100
 8001f68:	40022300 	.word	0x40022300
 8001f6c:	04300002 	.word	0x04300002
 8001f70:	08600004 	.word	0x08600004
 8001f74:	0c900008 	.word	0x0c900008
 8001f78:	10c00010 	.word	0x10c00010
 8001f7c:	2a000400 	.word	0x2a000400
 8001f80:	4b840000 	.word	0x4b840000
 8001f84:	4fb80000 	.word	0x4fb80000
 8001f88:	43210000 	.word	0x43210000
 8001f8c:	47520000 	.word	0x47520000
 8001f90:	19200040 	.word	0x19200040
          if ((sConfig->Channel == ADC_CHANNEL_TEMPSENSOR) && ((tmp_config_internal_channel & LL_ADC_PATH_INTERNAL_TEMPSENSOR) == 0UL))
 8001f94:	0236      	lsls	r6, r6, #8
 8001f96:	f53f aeba 	bmi.w	8001d0e <HAL_ADC_ConfigChannel+0x11a>
            if (ADC_TEMPERATURE_SENSOR_INSTANCE(hadc))
 8001f9a:	428a      	cmp	r2, r1
 8001f9c:	f47f aeb7 	bne.w	8001d0e <HAL_ADC_ConfigChannel+0x11a>
  MODIFY_REG(ADCxy_COMMON->CCR, ADC_CCR_VREFEN | ADC_CCR_TSEN | ADC_CCR_VBATEN, PathInternal);
 8001fa0:	6882      	ldr	r2, [r0, #8]
              wait_loop_index = ((LL_ADC_DELAY_TEMPSENSOR_STAB_US / 10UL) * ((SystemCoreClock / (100000UL * 2UL)) + 1UL));
 8001fa2:	4914      	ldr	r1, [pc, #80]	@ (8001ff4 <HAL_ADC_ConfigChannel+0x400>)
 8001fa4:	f022 72e0 	bic.w	r2, r2, #29360128	@ 0x1c00000
 8001fa8:	ea42 020c 	orr.w	r2, r2, ip
 8001fac:	f442 0200 	orr.w	r2, r2, #8388608	@ 0x800000
 8001fb0:	6082      	str	r2, [r0, #8]
 8001fb2:	680a      	ldr	r2, [r1, #0]
 8001fb4:	4910      	ldr	r1, [pc, #64]	@ (8001ff8 <HAL_ADC_ConfigChannel+0x404>)
 8001fb6:	0992      	lsrs	r2, r2, #6
 8001fb8:	fba1 1202 	umull	r1, r2, r1, r2
 8001fbc:	0992      	lsrs	r2, r2, #6
 8001fbe:	3201      	adds	r2, #1
 8001fc0:	0052      	lsls	r2, r2, #1
 8001fc2:	9201      	str	r2, [sp, #4]
              while (wait_loop_index != 0UL)
 8001fc4:	9a01      	ldr	r2, [sp, #4]
 8001fc6:	2a00      	cmp	r2, #0
 8001fc8:	f43f aea1 	beq.w	8001d0e <HAL_ADC_ConfigChannel+0x11a>
                wait_loop_index--;
 8001fcc:	9a01      	ldr	r2, [sp, #4]
 8001fce:	3a01      	subs	r2, #1
 8001fd0:	9201      	str	r2, [sp, #4]
              while (wait_loop_index != 0UL)
 8001fd2:	9a01      	ldr	r2, [sp, #4]
 8001fd4:	2a00      	cmp	r2, #0
 8001fd6:	d1f9      	bne.n	8001fcc <HAL_ADC_ConfigChannel+0x3d8>
 8001fd8:	e699      	b.n	8001d0e <HAL_ADC_ConfigChannel+0x11a>
        LL_ADC_SetChannelPreselection(hadc->Instance, ADC_CHANNEL_DIFF_NEG_INPUT(hadc, sConfig->Channel));
 8001fda:	4908      	ldr	r1, [pc, #32]	@ (8001ffc <HAL_ADC_ConfigChannel+0x408>)
 8001fdc:	e768      	b.n	8001eb0 <HAL_ADC_ConfigChannel+0x2bc>
 8001fde:	4908      	ldr	r1, [pc, #32]	@ (8002000 <HAL_ADC_ConfigChannel+0x40c>)
 8001fe0:	e766      	b.n	8001eb0 <HAL_ADC_ConfigChannel+0x2bc>
 8001fe2:	4908      	ldr	r1, [pc, #32]	@ (8002004 <HAL_ADC_ConfigChannel+0x410>)
 8001fe4:	e764      	b.n	8001eb0 <HAL_ADC_ConfigChannel+0x2bc>
 8001fe6:	4908      	ldr	r1, [pc, #32]	@ (8002008 <HAL_ADC_ConfigChannel+0x414>)
 8001fe8:	e762      	b.n	8001eb0 <HAL_ADC_ConfigChannel+0x2bc>
 8001fea:	4908      	ldr	r1, [pc, #32]	@ (800200c <HAL_ADC_ConfigChannel+0x418>)
 8001fec:	e760      	b.n	8001eb0 <HAL_ADC_ConfigChannel+0x2bc>
 8001fee:	4908      	ldr	r1, [pc, #32]	@ (8002010 <HAL_ADC_ConfigChannel+0x41c>)
 8001ff0:	e75e      	b.n	8001eb0 <HAL_ADC_ConfigChannel+0x2bc>
 8001ff2:	bf00      	nop
 8001ff4:	2400004c 	.word	0x2400004c
 8001ff8:	053e2d63 	.word	0x053e2d63
 8001ffc:	1d500080 	.word	0x1d500080
 8002000:	21800100 	.word	0x21800100
 8002004:	25b00200 	.word	0x25b00200
 8002008:	2e300800 	.word	0x2e300800
 800200c:	32601000 	.word	0x32601000
 8002010:	36902000 	.word	0x36902000

08002014 <ADC_Enable>:
  if (LL_ADC_IsEnabled(hadc->Instance) == 0UL)
 8002014:	6803      	ldr	r3, [r0, #0]
  return ((READ_BIT(ADCx->CR, ADC_CR_ADEN) == (ADC_CR_ADEN)) ? 1UL : 0UL);
 8002016:	689a      	ldr	r2, [r3, #8]
 8002018:	07d1      	lsls	r1, r2, #31
 800201a:	d501      	bpl.n	8002020 <ADC_Enable+0xc>
  return HAL_OK;
 800201c:	2000      	movs	r0, #0
}
 800201e:	4770      	bx	lr
    if ((hadc->Instance->CR & (ADC_CR_ADCAL | ADC_CR_JADSTP | ADC_CR_ADSTP | ADC_CR_JADSTART | ADC_CR_ADSTART | ADC_CR_ADDIS | ADC_CR_ADEN)) != 0UL)
 8002020:	6899      	ldr	r1, [r3, #8]
 8002022:	4a23      	ldr	r2, [pc, #140]	@ (80020b0 <ADC_Enable+0x9c>)
 8002024:	4211      	tst	r1, r2
{
 8002026:	b570      	push	{r4, r5, r6, lr}
 8002028:	4604      	mov	r4, r0
    if ((hadc->Instance->CR & (ADC_CR_ADCAL | ADC_CR_JADSTP | ADC_CR_ADSTP | ADC_CR_JADSTART | ADC_CR_ADSTART | ADC_CR_ADDIS | ADC_CR_ADEN)) != 0UL)
 800202a:	d12f      	bne.n	800208c <ADC_Enable+0x78>
  MODIFY_REG(ADCx->CR,
 800202c:	6899      	ldr	r1, [r3, #8]
 800202e:	4a21      	ldr	r2, [pc, #132]	@ (80020b4 <ADC_Enable+0xa0>)
 8002030:	400a      	ands	r2, r1
 8002032:	f042 0201 	orr.w	r2, r2, #1
 8002036:	609a      	str	r2, [r3, #8]
    tickstart = HAL_GetTick();
 8002038:	f7ff fc46 	bl	80018c8 <HAL_GetTick>
    uint32_t tmp_multimode_config = LL_ADC_GetMultimode(__LL_ADC_COMMON_INSTANCE(hadc->Instance));
 800203c:	6823      	ldr	r3, [r4, #0]
 800203e:	4a1e      	ldr	r2, [pc, #120]	@ (80020b8 <ADC_Enable+0xa4>)
    tickstart = HAL_GetTick();
 8002040:	4605      	mov	r5, r0
    uint32_t tmp_multimode_config = LL_ADC_GetMultimode(__LL_ADC_COMMON_INSTANCE(hadc->Instance));
 8002042:	4293      	cmp	r3, r2
 8002044:	d02c      	beq.n	80020a0 <ADC_Enable+0x8c>
 8002046:	f502 7280 	add.w	r2, r2, #256	@ 0x100
 800204a:	4293      	cmp	r3, r2
 800204c:	d028      	beq.n	80020a0 <ADC_Enable+0x8c>
  return (uint32_t)(READ_BIT(ADCxy_COMMON->CCR, ADC_CCR_DUAL));
 800204e:	f102 52c0 	add.w	r2, r2, #402653184	@ 0x18000000
 8002052:	f502 4284 	add.w	r2, r2, #16896	@ 0x4200
 8002056:	6892      	ldr	r2, [r2, #8]
      while (__HAL_ADC_GET_FLAG(hadc, ADC_FLAG_RDY) == 0UL)
 8002058:	681a      	ldr	r2, [r3, #0]
 800205a:	07d2      	lsls	r2, r2, #31
 800205c:	d414      	bmi.n	8002088 <ADC_Enable+0x74>
  MODIFY_REG(ADCx->CR,
 800205e:	4e15      	ldr	r6, [pc, #84]	@ (80020b4 <ADC_Enable+0xa0>)
  return ((READ_BIT(ADCx->CR, ADC_CR_ADEN) == (ADC_CR_ADEN)) ? 1UL : 0UL);
 8002060:	689a      	ldr	r2, [r3, #8]
 8002062:	07d0      	lsls	r0, r2, #31
 8002064:	d404      	bmi.n	8002070 <ADC_Enable+0x5c>
  MODIFY_REG(ADCx->CR,
 8002066:	689a      	ldr	r2, [r3, #8]
 8002068:	4032      	ands	r2, r6
 800206a:	f042 0201 	orr.w	r2, r2, #1
 800206e:	609a      	str	r2, [r3, #8]
        if ((HAL_GetTick() - tickstart) > ADC_ENABLE_TIMEOUT)
 8002070:	f7ff fc2a 	bl	80018c8 <HAL_GetTick>
 8002074:	1b43      	subs	r3, r0, r5
 8002076:	2b02      	cmp	r3, #2
          if (__HAL_ADC_GET_FLAG(hadc, ADC_FLAG_RDY) == 0UL)
 8002078:	6823      	ldr	r3, [r4, #0]
        if ((HAL_GetTick() - tickstart) > ADC_ENABLE_TIMEOUT)
 800207a:	d902      	bls.n	8002082 <ADC_Enable+0x6e>
          if (__HAL_ADC_GET_FLAG(hadc, ADC_FLAG_RDY) == 0UL)
 800207c:	681a      	ldr	r2, [r3, #0]
 800207e:	07d1      	lsls	r1, r2, #31
 8002080:	d504      	bpl.n	800208c <ADC_Enable+0x78>
      while (__HAL_ADC_GET_FLAG(hadc, ADC_FLAG_RDY) == 0UL)
 8002082:	681a      	ldr	r2, [r3, #0]
 8002084:	07d2      	lsls	r2, r2, #31
 8002086:	d5eb      	bpl.n	8002060 <ADC_Enable+0x4c>
  return HAL_OK;
 8002088:	2000      	movs	r0, #0
}
 800208a:	bd70      	pop	{r4, r5, r6, pc}
            SET_BIT(hadc->State, HAL_ADC_STATE_ERROR_INTERNAL);
 800208c:	6d63      	ldr	r3, [r4, #84]	@ 0x54
      return HAL_ERROR;
 800208e:	2001      	movs	r0, #1
            SET_BIT(hadc->State, HAL_ADC_STATE_ERROR_INTERNAL);
 8002090:	f043 0310 	orr.w	r3, r3, #16
 8002094:	6563      	str	r3, [r4, #84]	@ 0x54
            SET_BIT(hadc->ErrorCode, HAL_ADC_ERROR_INTERNAL);
 8002096:	6da3      	ldr	r3, [r4, #88]	@ 0x58
 8002098:	f043 0301 	orr.w	r3, r3, #1
 800209c:	65a3      	str	r3, [r4, #88]	@ 0x58
}
 800209e:	bd70      	pop	{r4, r5, r6, pc}
  return (uint32_t)(READ_BIT(ADCxy_COMMON->CCR, ADC_CCR_DUAL));
 80020a0:	4a06      	ldr	r2, [pc, #24]	@ (80020bc <ADC_Enable+0xa8>)
 80020a2:	6892      	ldr	r2, [r2, #8]
        || (tmp_multimode_config == LL_ADC_MULTI_INDEPENDENT)
 80020a4:	06d6      	lsls	r6, r2, #27
 80020a6:	d0d7      	beq.n	8002058 <ADC_Enable+0x44>
    if ((__LL_ADC_MULTI_INSTANCE_MASTER(hadc->Instance) == hadc->Instance)
 80020a8:	4a05      	ldr	r2, [pc, #20]	@ (80020c0 <ADC_Enable+0xac>)
        || (tmp_multimode_config == LL_ADC_MULTI_INDEPENDENT)
 80020aa:	4293      	cmp	r3, r2
 80020ac:	d1d4      	bne.n	8002058 <ADC_Enable+0x44>
 80020ae:	e7eb      	b.n	8002088 <ADC_Enable+0x74>
 80020b0:	8000003f 	.word	0x8000003f
 80020b4:	7fffffc0 	.word	0x7fffffc0
 80020b8:	40022000 	.word	0x40022000
 80020bc:	40022300 	.word	0x40022300
 80020c0:	40022100 	.word	0x40022100

080020c4 <HAL_ADC_Start_DMA>:
{
 80020c4:	e92d 41f0 	stmdb	sp!, {r4, r5, r6, r7, r8, lr}
  uint32_t tmp_multimode_config = LL_ADC_GetMultimode(__LL_ADC_COMMON_INSTANCE(hadc->Instance));
 80020c8:	4b3b      	ldr	r3, [pc, #236]	@ (80021b8 <HAL_ADC_Start_DMA+0xf4>)
{
 80020ca:	4604      	mov	r4, r0
  uint32_t tmp_multimode_config = LL_ADC_GetMultimode(__LL_ADC_COMMON_INSTANCE(hadc->Instance));
 80020cc:	6800      	ldr	r0, [r0, #0]
{
 80020ce:	460e      	mov	r6, r1
 80020d0:	4617      	mov	r7, r2
  uint32_t tmp_multimode_config = LL_ADC_GetMultimode(__LL_ADC_COMMON_INSTANCE(hadc->Instance));
 80020d2:	4298      	cmp	r0, r3
 80020d4:	d01c      	beq.n	8002110 <HAL_ADC_Start_DMA+0x4c>
 80020d6:	f503 7380 	add.w	r3, r3, #256	@ 0x100
 80020da:	4298      	cmp	r0, r3
 80020dc:	d018      	beq.n	8002110 <HAL_ADC_Start_DMA+0x4c>
 80020de:	4b37      	ldr	r3, [pc, #220]	@ (80021bc <HAL_ADC_Start_DMA+0xf8>)
 80020e0:	689b      	ldr	r3, [r3, #8]
  return ((READ_BIT(ADCx->CR, ADC_CR_ADSTART) == (ADC_CR_ADSTART)) ? 1UL : 0UL);
 80020e2:	6885      	ldr	r5, [r0, #8]
 80020e4:	f015 0504 	ands.w	r5, r5, #4
 80020e8:	d118      	bne.n	800211c <HAL_ADC_Start_DMA+0x58>
    __HAL_LOCK(hadc);
 80020ea:	f894 2050 	ldrb.w	r2, [r4, #80]	@ 0x50
 80020ee:	2a01      	cmp	r2, #1
 80020f0:	d014      	beq.n	800211c <HAL_ADC_Start_DMA+0x58>
  return (uint32_t)(READ_BIT(ADCxy_COMMON->CCR, ADC_CCR_DUAL));
 80020f2:	f003 081f 	and.w	r8, r3, #31
 80020f6:	f240 2321 	movw	r3, #545	@ 0x221
 80020fa:	2001      	movs	r0, #1
 80020fc:	fa23 f308 	lsr.w	r3, r3, r8
 8002100:	f884 0050 	strb.w	r0, [r4, #80]	@ 0x50
    if ((tmp_multimode_config == LL_ADC_MULTI_INDEPENDENT)
 8002104:	4003      	ands	r3, r0
 8002106:	d10c      	bne.n	8002122 <HAL_ADC_Start_DMA+0x5e>
      __HAL_UNLOCK(hadc);
 8002108:	f884 3050 	strb.w	r3, [r4, #80]	@ 0x50
}
 800210c:	e8bd 81f0 	ldmia.w	sp!, {r4, r5, r6, r7, r8, pc}
  uint32_t tmp_multimode_config = LL_ADC_GetMultimode(__LL_ADC_COMMON_INSTANCE(hadc->Instance));
 8002110:	4b2b      	ldr	r3, [pc, #172]	@ (80021c0 <HAL_ADC_Start_DMA+0xfc>)
 8002112:	689b      	ldr	r3, [r3, #8]
  return ((READ_BIT(ADCx->CR, ADC_CR_ADSTART) == (ADC_CR_ADSTART)) ? 1UL : 0UL);
 8002114:	6885      	ldr	r5, [r0, #8]
 8002116:	f015 0504 	ands.w	r5, r5, #4
 800211a:	d0e6      	beq.n	80020ea <HAL_ADC_Start_DMA+0x26>
    __HAL_LOCK(hadc);
 800211c:	2002      	movs	r0, #2
}
 800211e:	e8bd 81f0 	ldmia.w	sp!, {r4, r5, r6, r7, r8, pc}
      tmp_hal_status = ADC_Enable(hadc);
 8002122:	4620      	mov	r0, r4
 8002124:	f7ff ff76 	bl	8002014 <ADC_Enable>
      if (tmp_hal_status == HAL_OK)
 8002128:	2800      	cmp	r0, #0
 800212a:	d140      	bne.n	80021ae <HAL_ADC_Start_DMA+0xea>
        ADC_STATE_CLR_SET(hadc->State,
 800212c:	6d62      	ldr	r2, [r4, #84]	@ 0x54
 800212e:	4b25      	ldr	r3, [pc, #148]	@ (80021c4 <HAL_ADC_Start_DMA+0x100>)
        if ((__LL_ADC_MULTI_INSTANCE_MASTER(hadc->Instance) == hadc->Instance)
 8002130:	6821      	ldr	r1, [r4, #0]
        ADC_STATE_CLR_SET(hadc->State,
 8002132:	4013      	ands	r3, r2
 8002134:	f443 7380 	orr.w	r3, r3, #256	@ 0x100
 8002138:	6563      	str	r3, [r4, #84]	@ 0x54
            || (tmp_multimode_config == LL_ADC_MULTI_INDEPENDENT)
 800213a:	f1b8 0f00 	cmp.w	r8, #0
 800213e:	d002      	beq.n	8002146 <HAL_ADC_Start_DMA+0x82>
        if ((__LL_ADC_MULTI_INSTANCE_MASTER(hadc->Instance) == hadc->Instance)
 8002140:	4b21      	ldr	r3, [pc, #132]	@ (80021c8 <HAL_ADC_Start_DMA+0x104>)
            || (tmp_multimode_config == LL_ADC_MULTI_INDEPENDENT)
 8002142:	4299      	cmp	r1, r3
 8002144:	d003      	beq.n	800214e <HAL_ADC_Start_DMA+0x8a>
          CLEAR_BIT(hadc->State, HAL_ADC_STATE_MULTIMODE_SLAVE);
 8002146:	6d63      	ldr	r3, [r4, #84]	@ 0x54
 8002148:	f423 1380 	bic.w	r3, r3, #1048576	@ 0x100000
 800214c:	6563      	str	r3, [r4, #84]	@ 0x54
        if ((hadc->State & HAL_ADC_STATE_INJ_BUSY) != 0UL)
 800214e:	6d63      	ldr	r3, [r4, #84]	@ 0x54
 8002150:	f413 5380 	ands.w	r3, r3, #4096	@ 0x1000
 8002154:	d02e      	beq.n	80021b4 <HAL_ADC_Start_DMA+0xf0>
          CLEAR_BIT(hadc->ErrorCode, (HAL_ADC_ERROR_OVR | HAL_ADC_ERROR_DMA));
 8002156:	6da3      	ldr	r3, [r4, #88]	@ 0x58
 8002158:	f023 0306 	bic.w	r3, r3, #6
 800215c:	65a3      	str	r3, [r4, #88]	@ 0x58
        hadc->DMA_Handle->XferCpltCallback = ADC_DMAConvCplt;
 800215e:	6ce0      	ldr	r0, [r4, #76]	@ 0x4c
        tmp_hal_status = HAL_DMA_Start_IT(hadc->DMA_Handle, (uint32_t)&hadc->Instance->DR, (uint32_t)pData, Length);
 8002160:	4632      	mov	r2, r6
        hadc->DMA_Handle->XferCpltCallback = ADC_DMAConvCplt;
 8002162:	4d1a      	ldr	r5, [pc, #104]	@ (80021cc <HAL_ADC_Start_DMA+0x108>)
        tmp_hal_status = HAL_DMA_Start_IT(hadc->DMA_Handle, (uint32_t)&hadc->Instance->DR, (uint32_t)pData, Length);
 8002164:	463b      	mov	r3, r7
  MODIFY_REG(ADCx->CFGR, ADC_CFGR_DMNGT, DataTransferMode);
 8002166:	6ae6      	ldr	r6, [r4, #44]	@ 0x2c
 8002168:	3140      	adds	r1, #64	@ 0x40
        hadc->DMA_Handle->XferCpltCallback = ADC_DMAConvCplt;
 800216a:	63c5      	str	r5, [r0, #60]	@ 0x3c
        hadc->DMA_Handle->XferHalfCpltCallback = ADC_DMAHalfConvCplt;
 800216c:	4d18      	ldr	r5, [pc, #96]	@ (80021d0 <HAL_ADC_Start_DMA+0x10c>)
 800216e:	6405      	str	r5, [r0, #64]	@ 0x40
        hadc->DMA_Handle->XferErrorCallback = ADC_DMAError;
 8002170:	4d18      	ldr	r5, [pc, #96]	@ (80021d4 <HAL_ADC_Start_DMA+0x110>)
 8002172:	64c5      	str	r5, [r0, #76]	@ 0x4c
        __HAL_ADC_CLEAR_FLAG(hadc, (ADC_FLAG_EOC | ADC_FLAG_EOS | ADC_FLAG_OVR));
 8002174:	251c      	movs	r5, #28
 8002176:	f841 5c40 	str.w	r5, [r1, #-64]
        __HAL_UNLOCK(hadc);
 800217a:	2500      	movs	r5, #0
 800217c:	f884 5050 	strb.w	r5, [r4, #80]	@ 0x50
        __HAL_ADC_ENABLE_IT(hadc, ADC_IT_OVR);
 8002180:	f851 5c3c 	ldr.w	r5, [r1, #-60]
 8002184:	f045 0510 	orr.w	r5, r5, #16
 8002188:	f841 5c3c 	str.w	r5, [r1, #-60]
 800218c:	f851 5c34 	ldr.w	r5, [r1, #-52]
 8002190:	f025 0503 	bic.w	r5, r5, #3
 8002194:	4335      	orrs	r5, r6
 8002196:	f841 5c34 	str.w	r5, [r1, #-52]
        tmp_hal_status = HAL_DMA_Start_IT(hadc->DMA_Handle, (uint32_t)&hadc->Instance->DR, (uint32_t)pData, Length);
 800219a:	f001 f8bb 	bl	8003314 <HAL_DMA_Start_IT>
        LL_ADC_REG_StartConversion(hadc->Instance);
 800219e:	6822      	ldr	r2, [r4, #0]
  MODIFY_REG(ADCx->CR,
 80021a0:	4b0d      	ldr	r3, [pc, #52]	@ (80021d8 <HAL_ADC_Start_DMA+0x114>)
 80021a2:	6891      	ldr	r1, [r2, #8]
 80021a4:	400b      	ands	r3, r1
 80021a6:	f043 0304 	orr.w	r3, r3, #4
 80021aa:	6093      	str	r3, [r2, #8]
}
 80021ac:	e7b7      	b.n	800211e <HAL_ADC_Start_DMA+0x5a>
        __HAL_UNLOCK(hadc);
 80021ae:	f884 5050 	strb.w	r5, [r4, #80]	@ 0x50
 80021b2:	e7b4      	b.n	800211e <HAL_ADC_Start_DMA+0x5a>
          ADC_CLEAR_ERRORCODE(hadc);
 80021b4:	65a3      	str	r3, [r4, #88]	@ 0x58
 80021b6:	e7d2      	b.n	800215e <HAL_ADC_Start_DMA+0x9a>
 80021b8:	40022000 	.word	0x40022000
 80021bc:	58026300 	.word	0x58026300
 80021c0:	40022300 	.word	0x40022300
 80021c4:	fffff0fe 	.word	0xfffff0fe
 80021c8:	40022100 	.word	0x40022100
 80021cc:	08001b6d 	.word	0x08001b6d
 80021d0:	080018e1 	.word	0x080018e1
 80021d4:	08001bd9 	.word	0x08001bd9
 80021d8:	7fffffc0 	.word	0x7fffffc0

080021dc <ADC_Disable>:
{
 80021dc:	b538      	push	{r3, r4, r5, lr}
  const uint32_t tmp_adc_is_disable_on_going = LL_ADC_IsDisableOngoing(hadc->Instance);
 80021de:	6803      	ldr	r3, [r0, #0]
  return ((READ_BIT(ADCx->CR, ADC_CR_ADDIS) == (ADC_CR_ADDIS)) ? 1UL : 0UL);
 80021e0:	689a      	ldr	r2, [r3, #8]
 80021e2:	0795      	lsls	r5, r2, #30
 80021e4:	d502      	bpl.n	80021ec <ADC_Disable+0x10>
  return ((READ_BIT(ADCx->CR, ADC_CR_ADEN) == (ADC_CR_ADEN)) ? 1UL : 0UL);
 80021e6:	689b      	ldr	r3, [r3, #8]
  return HAL_OK;
 80021e8:	2000      	movs	r0, #0
}
 80021ea:	bd38      	pop	{r3, r4, r5, pc}
 80021ec:	689a      	ldr	r2, [r3, #8]
 80021ee:	07d4      	lsls	r4, r2, #31
 80021f0:	d5fa      	bpl.n	80021e8 <ADC_Disable+0xc>
    if ((hadc->Instance->CR & (ADC_CR_JADSTART | ADC_CR_ADSTART | ADC_CR_ADEN)) == ADC_CR_ADEN)
 80021f2:	689a      	ldr	r2, [r3, #8]
 80021f4:	4604      	mov	r4, r0
 80021f6:	f002 020d 	and.w	r2, r2, #13
 80021fa:	2a01      	cmp	r2, #1
 80021fc:	d009      	beq.n	8002212 <ADC_Disable+0x36>
          SET_BIT(hadc->State, HAL_ADC_STATE_ERROR_INTERNAL);
 80021fe:	6d63      	ldr	r3, [r4, #84]	@ 0x54
      return HAL_ERROR;
 8002200:	2001      	movs	r0, #1
          SET_BIT(hadc->State, HAL_ADC_STATE_ERROR_INTERNAL);
 8002202:	f043 0310 	orr.w	r3, r3, #16
 8002206:	6563      	str	r3, [r4, #84]	@ 0x54
          SET_BIT(hadc->ErrorCode, HAL_ADC_ERROR_INTERNAL);
 8002208:	6da3      	ldr	r3, [r4, #88]	@ 0x58
 800220a:	f043 0301 	orr.w	r3, r3, #1
 800220e:	65a3      	str	r3, [r4, #88]	@ 0x58
}
 8002210:	bd38      	pop	{r3, r4, r5, pc}
  MODIFY_REG(ADCx->CR,
 8002212:	6898      	ldr	r0, [r3, #8]
      __HAL_ADC_CLEAR_FLAG(hadc, (ADC_FLAG_EOSMP | ADC_FLAG_RDY));
 8002214:	2103      	movs	r1, #3
 8002216:	4a0d      	ldr	r2, [pc, #52]	@ (800224c <ADC_Disable+0x70>)
 8002218:	4002      	ands	r2, r0
 800221a:	f042 0202 	orr.w	r2, r2, #2
 800221e:	609a      	str	r2, [r3, #8]
 8002220:	6019      	str	r1, [r3, #0]
    tickstart = HAL_GetTick();
 8002222:	f7ff fb51 	bl	80018c8 <HAL_GetTick>
    while ((hadc->Instance->CR & ADC_CR_ADEN) != 0UL)
 8002226:	6823      	ldr	r3, [r4, #0]
    tickstart = HAL_GetTick();
 8002228:	4605      	mov	r5, r0
    while ((hadc->Instance->CR & ADC_CR_ADEN) != 0UL)
 800222a:	689b      	ldr	r3, [r3, #8]
 800222c:	07d9      	lsls	r1, r3, #31
 800222e:	d403      	bmi.n	8002238 <ADC_Disable+0x5c>
 8002230:	e7da      	b.n	80021e8 <ADC_Disable+0xc>
 8002232:	689b      	ldr	r3, [r3, #8]
 8002234:	07db      	lsls	r3, r3, #31
 8002236:	d5d7      	bpl.n	80021e8 <ADC_Disable+0xc>
      if ((HAL_GetTick() - tickstart) > ADC_DISABLE_TIMEOUT)
 8002238:	f7ff fb46 	bl	80018c8 <HAL_GetTick>
 800223c:	1b40      	subs	r0, r0, r5
        if ((hadc->Instance->CR & ADC_CR_ADEN) != 0UL)
 800223e:	6823      	ldr	r3, [r4, #0]
      if ((HAL_GetTick() - tickstart) > ADC_DISABLE_TIMEOUT)
 8002240:	2802      	cmp	r0, #2
 8002242:	d9f6      	bls.n	8002232 <ADC_Disable+0x56>
        if ((hadc->Instance->CR & ADC_CR_ADEN) != 0UL)
 8002244:	689a      	ldr	r2, [r3, #8]
 8002246:	07d2      	lsls	r2, r2, #31
 8002248:	d5f3      	bpl.n	8002232 <ADC_Disable+0x56>
 800224a:	e7d8      	b.n	80021fe <ADC_Disable+0x22>
 800224c:	7fffffc0 	.word	0x7fffffc0

08002250 <ADC_ConfigureBoostMode>:
  *         stopped.
  * @param  hadc ADC handle
  * @retval None.
  */
void ADC_ConfigureBoostMode(ADC_HandleTypeDef *hadc)
{
 8002250:	b538      	push	{r3, r4, r5, lr}
  uint32_t freq;
  if (ADC_IS_SYNCHRONOUS_CLOCK_MODE(hadc))
 8002252:	4a4f      	ldr	r2, [pc, #316]	@ (8002390 <ADC_ConfigureBoostMode+0x140>)
{
 8002254:	4604      	mov	r4, r0
  if (ADC_IS_SYNCHRONOUS_CLOCK_MODE(hadc))
 8002256:	6803      	ldr	r3, [r0, #0]
 8002258:	4293      	cmp	r3, r2
 800225a:	d024      	beq.n	80022a6 <ADC_ConfigureBoostMode+0x56>
 800225c:	f502 7280 	add.w	r2, r2, #256	@ 0x100
 8002260:	4293      	cmp	r3, r2
 8002262:	d020      	beq.n	80022a6 <ADC_ConfigureBoostMode+0x56>
 8002264:	4b4b      	ldr	r3, [pc, #300]	@ (8002394 <ADC_ConfigureBoostMode+0x144>)
 8002266:	689b      	ldr	r3, [r3, #8]
 8002268:	f413 3f40 	tst.w	r3, #196608	@ 0x30000
 800226c:	d020      	beq.n	80022b0 <ADC_ConfigureBoostMode+0x60>
  {
    freq = HAL_RCC_GetHCLKFreq();
 800226e:	f002 fcdd 	bl	8004c2c <HAL_RCC_GetHCLKFreq>
    switch (hadc->Init.ClockPrescaler)
 8002272:	6863      	ldr	r3, [r4, #4]
    freq = HAL_RCC_GetHCLKFreq();
 8002274:	4605      	mov	r5, r0
    switch (hadc->Init.ClockPrescaler)
 8002276:	f5b3 3f00 	cmp.w	r3, #131072	@ 0x20000
 800227a:	d06d      	beq.n	8002358 <ADC_ConfigureBoostMode+0x108>
 800227c:	f5b3 3f40 	cmp.w	r3, #196608	@ 0x30000
 8002280:	d072      	beq.n	8002368 <ADC_ConfigureBoostMode+0x118>
 8002282:	f5b3 3f80 	cmp.w	r3, #65536	@ 0x10000
 8002286:	d067      	beq.n	8002358 <ADC_ConfigureBoostMode+0x108>
  else /* if(freq > 25000000UL) */
  {
    MODIFY_REG(hadc->Instance->CR, ADC_CR_BOOST, ADC_CR_BOOST_1 | ADC_CR_BOOST_0);
  }
#else
  if (HAL_GetREVID() <= REV_ID_Y) /* STM32H7 silicon Rev.Y */
 8002288:	f7ff fb24 	bl	80018d4 <HAL_GetREVID>
 800228c:	f241 0303 	movw	r3, #4099	@ 0x1003
 8002290:	4298      	cmp	r0, r3
 8002292:	d82d      	bhi.n	80022f0 <ADC_ConfigureBoostMode+0xa0>
  {
    if (freq > 20000000UL)
 8002294:	4a40      	ldr	r2, [pc, #256]	@ (8002398 <ADC_ConfigureBoostMode+0x148>)
    {
      SET_BIT(hadc->Instance->CR, ADC_CR_BOOST_0);
 8002296:	6823      	ldr	r3, [r4, #0]
    if (freq > 20000000UL)
 8002298:	4295      	cmp	r5, r2
 800229a:	d947      	bls.n	800232c <ADC_ConfigureBoostMode+0xdc>
      SET_BIT(hadc->Instance->CR, ADC_CR_BOOST_0);
 800229c:	689a      	ldr	r2, [r3, #8]
 800229e:	f442 7280 	orr.w	r2, r2, #256	@ 0x100
 80022a2:	609a      	str	r2, [r3, #8]
    {
      MODIFY_REG(hadc->Instance->CR, ADC_CR_BOOST, ADC_CR_BOOST_1 | ADC_CR_BOOST_0);
    }
  }
#endif /* ADC_VER_V5_3 */
}
 80022a4:	bd38      	pop	{r3, r4, r5, pc}
  if (ADC_IS_SYNCHRONOUS_CLOCK_MODE(hadc))
 80022a6:	4b3d      	ldr	r3, [pc, #244]	@ (800239c <ADC_ConfigureBoostMode+0x14c>)
 80022a8:	689b      	ldr	r3, [r3, #8]
 80022aa:	f413 3f40 	tst.w	r3, #196608	@ 0x30000
 80022ae:	d1de      	bne.n	800226e <ADC_ConfigureBoostMode+0x1e>
    freq = HAL_RCCEx_GetPeriphCLKFreq(RCC_PERIPHCLK_ADC);
 80022b0:	f44f 2000 	mov.w	r0, #524288	@ 0x80000
 80022b4:	2100      	movs	r1, #0
 80022b6:	f003 ff33 	bl	8006120 <HAL_RCCEx_GetPeriphCLKFreq>
    switch (hadc->Init.ClockPrescaler)
 80022ba:	6863      	ldr	r3, [r4, #4]
    freq = HAL_RCCEx_GetPeriphCLKFreq(RCC_PERIPHCLK_ADC);
 80022bc:	4605      	mov	r5, r0
    switch (hadc->Init.ClockPrescaler)
 80022be:	f5b3 1f10 	cmp.w	r3, #2359296	@ 0x240000
 80022c2:	d04d      	beq.n	8002360 <ADC_ConfigureBoostMode+0x110>
 80022c4:	d825      	bhi.n	8002312 <ADC_ConfigureBoostMode+0xc2>
 80022c6:	f5b3 1fe0 	cmp.w	r3, #1835008	@ 0x1c0000
 80022ca:	d04b      	beq.n	8002364 <ADC_ConfigureBoostMode+0x114>
 80022cc:	d84e      	bhi.n	800236c <ADC_ConfigureBoostMode+0x11c>
 80022ce:	f5b3 1f80 	cmp.w	r3, #1048576	@ 0x100000
 80022d2:	d008      	beq.n	80022e6 <ADC_ConfigureBoostMode+0x96>
 80022d4:	d855      	bhi.n	8002382 <ADC_ConfigureBoostMode+0x132>
 80022d6:	f5b3 2f00 	cmp.w	r3, #524288	@ 0x80000
 80022da:	d004      	beq.n	80022e6 <ADC_ConfigureBoostMode+0x96>
 80022dc:	f423 2200 	bic.w	r2, r3, #524288	@ 0x80000
 80022e0:	f5b2 2f80 	cmp.w	r2, #262144	@ 0x40000
 80022e4:	d1d0      	bne.n	8002288 <ADC_ConfigureBoostMode+0x38>
        freq /= ((hadc->Init.ClockPrescaler >> ADC_CCR_PRESC_Pos) << 1UL);
 80022e6:	0c9b      	lsrs	r3, r3, #18
 80022e8:	005b      	lsls	r3, r3, #1
 80022ea:	fbb5 f5f3 	udiv	r5, r5, r3
        break;
 80022ee:	e7cb      	b.n	8002288 <ADC_ConfigureBoostMode+0x38>
    if (freq <= 6250000UL)
 80022f0:	4a2b      	ldr	r2, [pc, #172]	@ (80023a0 <ADC_ConfigureBoostMode+0x150>)
      SET_BIT(hadc->Instance->CR, ADC_CR_BOOST_0);
 80022f2:	6823      	ldr	r3, [r4, #0]
    if (freq <= 6250000UL)
 80022f4:	4295      	cmp	r5, r2
 80022f6:	d923      	bls.n	8002340 <ADC_ConfigureBoostMode+0xf0>
    else if (freq <= 12500000UL)
 80022f8:	4a2a      	ldr	r2, [pc, #168]	@ (80023a4 <ADC_ConfigureBoostMode+0x154>)
 80022fa:	4295      	cmp	r5, r2
 80022fc:	d925      	bls.n	800234a <ADC_ConfigureBoostMode+0xfa>
    else if (freq <= 25000000UL)
 80022fe:	4a2a      	ldr	r2, [pc, #168]	@ (80023a8 <ADC_ConfigureBoostMode+0x158>)
 8002300:	4295      	cmp	r5, r2
      MODIFY_REG(hadc->Instance->CR, ADC_CR_BOOST, ADC_CR_BOOST_1);
 8002302:	689a      	ldr	r2, [r3, #8]
    else if (freq <= 25000000UL)
 8002304:	d839      	bhi.n	800237a <ADC_ConfigureBoostMode+0x12a>
      MODIFY_REG(hadc->Instance->CR, ADC_CR_BOOST, ADC_CR_BOOST_1);
 8002306:	f422 7240 	bic.w	r2, r2, #768	@ 0x300
 800230a:	f442 7200 	orr.w	r2, r2, #512	@ 0x200
 800230e:	609a      	str	r2, [r3, #8]
}
 8002310:	bd38      	pop	{r3, r4, r5, pc}
    switch (hadc->Init.ClockPrescaler)
 8002312:	f5b3 1f20 	cmp.w	r3, #2621440	@ 0x280000
 8002316:	d02e      	beq.n	8002376 <ADC_ConfigureBoostMode+0x126>
 8002318:	f5b3 1f30 	cmp.w	r3, #2883584	@ 0x2c0000
 800231c:	d1b4      	bne.n	8002288 <ADC_ConfigureBoostMode+0x38>
  if (HAL_GetREVID() <= REV_ID_Y) /* STM32H7 silicon Rev.Y */
 800231e:	f7ff fad9 	bl	80018d4 <HAL_GetREVID>
 8002322:	f241 0303 	movw	r3, #4099	@ 0x1003
 8002326:	4298      	cmp	r0, r3
 8002328:	d805      	bhi.n	8002336 <ADC_ConfigureBoostMode+0xe6>
 800232a:	6823      	ldr	r3, [r4, #0]
      CLEAR_BIT(hadc->Instance->CR, ADC_CR_BOOST_0);
 800232c:	689a      	ldr	r2, [r3, #8]
 800232e:	f422 7280 	bic.w	r2, r2, #256	@ 0x100
 8002332:	609a      	str	r2, [r3, #8]
}
 8002334:	bd38      	pop	{r3, r4, r5, pc}
    if (freq <= 6250000UL)
 8002336:	4b1a      	ldr	r3, [pc, #104]	@ (80023a0 <ADC_ConfigureBoostMode+0x150>)
 8002338:	ebb3 2f15 	cmp.w	r3, r5, lsr #8
 800233c:	6823      	ldr	r3, [r4, #0]
 800233e:	d304      	bcc.n	800234a <ADC_ConfigureBoostMode+0xfa>
      MODIFY_REG(hadc->Instance->CR, ADC_CR_BOOST, 0UL);
 8002340:	689a      	ldr	r2, [r3, #8]
 8002342:	f422 7240 	bic.w	r2, r2, #768	@ 0x300
 8002346:	609a      	str	r2, [r3, #8]
}
 8002348:	bd38      	pop	{r3, r4, r5, pc}
      MODIFY_REG(hadc->Instance->CR, ADC_CR_BOOST, ADC_CR_BOOST_0);
 800234a:	689a      	ldr	r2, [r3, #8]
 800234c:	f422 7240 	bic.w	r2, r2, #768	@ 0x300
 8002350:	f442 7280 	orr.w	r2, r2, #256	@ 0x100
 8002354:	609a      	str	r2, [r3, #8]
}
 8002356:	bd38      	pop	{r3, r4, r5, pc}
        freq /= (hadc->Init.ClockPrescaler >> ADC_CCR_CKMODE_Pos);
 8002358:	0c1b      	lsrs	r3, r3, #16
 800235a:	fbb5 f5f3 	udiv	r5, r5, r3
        break;
 800235e:	e793      	b.n	8002288 <ADC_ConfigureBoostMode+0x38>
        freq /= 64UL;
 8002360:	0985      	lsrs	r5, r0, #6
        break;
 8002362:	e791      	b.n	8002288 <ADC_ConfigureBoostMode+0x38>
        freq /= 16UL;
 8002364:	0905      	lsrs	r5, r0, #4
        break;
 8002366:	e78f      	b.n	8002288 <ADC_ConfigureBoostMode+0x38>
        freq /= 4UL;
 8002368:	0885      	lsrs	r5, r0, #2
        break;
 800236a:	e78d      	b.n	8002288 <ADC_ConfigureBoostMode+0x38>
    switch (hadc->Init.ClockPrescaler)
 800236c:	f5b3 1f00 	cmp.w	r3, #2097152	@ 0x200000
 8002370:	d18a      	bne.n	8002288 <ADC_ConfigureBoostMode+0x38>
        freq /= 32UL;
 8002372:	0945      	lsrs	r5, r0, #5
        break;
 8002374:	e788      	b.n	8002288 <ADC_ConfigureBoostMode+0x38>
        freq /= 128UL;
 8002376:	09c5      	lsrs	r5, r0, #7
        break;
 8002378:	e786      	b.n	8002288 <ADC_ConfigureBoostMode+0x38>
      MODIFY_REG(hadc->Instance->CR, ADC_CR_BOOST, ADC_CR_BOOST_1 | ADC_CR_BOOST_0);
 800237a:	f442 7240 	orr.w	r2, r2, #768	@ 0x300
 800237e:	609a      	str	r2, [r3, #8]
}
 8002380:	bd38      	pop	{r3, r4, r5, pc}
    switch (hadc->Init.ClockPrescaler)
 8002382:	f5b3 1fa0 	cmp.w	r3, #1310720	@ 0x140000
 8002386:	d0ae      	beq.n	80022e6 <ADC_ConfigureBoostMode+0x96>
 8002388:	f5b3 1fc0 	cmp.w	r3, #1572864	@ 0x180000
 800238c:	d0ab      	beq.n	80022e6 <ADC_ConfigureBoostMode+0x96>
 800238e:	e77b      	b.n	8002288 <ADC_ConfigureBoostMode+0x38>
 8002390:	40022000 	.word	0x40022000
 8002394:	58026300 	.word	0x58026300
 8002398:	01312d00 	.word	0x01312d00
 800239c:	40022300 	.word	0x40022300
 80023a0:	00bebc21 	.word	0x00bebc21
 80023a4:	017d7841 	.word	0x017d7841
 80023a8:	02faf081 	.word	0x02faf081

080023ac <HAL_ADC_Init>:
{
 80023ac:	b570      	push	{r4, r5, r6, lr}
  __IO uint32_t wait_loop_index = 0UL;
 80023ae:	2300      	movs	r3, #0
{
 80023b0:	b082      	sub	sp, #8
  __IO uint32_t wait_loop_index = 0UL;
 80023b2:	9301      	str	r3, [sp, #4]
  if (hadc == NULL)
 80023b4:	2800      	cmp	r0, #0
 80023b6:	f000 80a9 	beq.w	800250c <HAL_ADC_Init+0x160>
  if (hadc->State == HAL_ADC_STATE_RESET)
 80023ba:	6d45      	ldr	r5, [r0, #84]	@ 0x54
 80023bc:	4604      	mov	r4, r0
 80023be:	2d00      	cmp	r5, #0
 80023c0:	f000 80aa 	beq.w	8002518 <HAL_ADC_Init+0x16c>
  if (LL_ADC_IsDeepPowerDownEnabled(hadc->Instance) != 0UL)
 80023c4:	6822      	ldr	r2, [r4, #0]
  return ((READ_BIT(ADCx->CR, ADC_CR_DEEPPWD) == (ADC_CR_DEEPPWD)) ? 1UL : 0UL);
 80023c6:	6893      	ldr	r3, [r2, #8]
 80023c8:	009d      	lsls	r5, r3, #2
 80023ca:	d503      	bpl.n	80023d4 <HAL_ADC_Init+0x28>
  CLEAR_BIT(ADCx->CR, (ADC_CR_DEEPPWD | ADC_CR_BITS_PROPERTY_RS));
 80023cc:	6891      	ldr	r1, [r2, #8]
 80023ce:	4b71      	ldr	r3, [pc, #452]	@ (8002594 <HAL_ADC_Init+0x1e8>)
 80023d0:	400b      	ands	r3, r1
 80023d2:	6093      	str	r3, [r2, #8]
  return ((READ_BIT(ADCx->CR, ADC_CR_ADVREGEN) == (ADC_CR_ADVREGEN)) ? 1UL : 0UL);
 80023d4:	6893      	ldr	r3, [r2, #8]
 80023d6:	00d8      	lsls	r0, r3, #3
 80023d8:	d416      	bmi.n	8002408 <HAL_ADC_Init+0x5c>
    wait_loop_index = ((LL_ADC_DELAY_INTERNAL_REGUL_STAB_US / 10UL) * ((SystemCoreClock / (100000UL * 2UL)) + 1UL));
 80023da:	4b6f      	ldr	r3, [pc, #444]	@ (8002598 <HAL_ADC_Init+0x1ec>)
 80023dc:	496f      	ldr	r1, [pc, #444]	@ (800259c <HAL_ADC_Init+0x1f0>)
 80023de:	681b      	ldr	r3, [r3, #0]
  MODIFY_REG(ADCx->CR,
 80023e0:	6890      	ldr	r0, [r2, #8]
 80023e2:	099b      	lsrs	r3, r3, #6
 80023e4:	fba1 1303 	umull	r1, r3, r1, r3
 80023e8:	496d      	ldr	r1, [pc, #436]	@ (80025a0 <HAL_ADC_Init+0x1f4>)
 80023ea:	099b      	lsrs	r3, r3, #6
 80023ec:	4001      	ands	r1, r0
 80023ee:	3301      	adds	r3, #1
 80023f0:	f041 5180 	orr.w	r1, r1, #268435456	@ 0x10000000
 80023f4:	6091      	str	r1, [r2, #8]
 80023f6:	9301      	str	r3, [sp, #4]
    while (wait_loop_index != 0UL)
 80023f8:	9b01      	ldr	r3, [sp, #4]
 80023fa:	b12b      	cbz	r3, 8002408 <HAL_ADC_Init+0x5c>
      wait_loop_index--;
 80023fc:	9b01      	ldr	r3, [sp, #4]
 80023fe:	3b01      	subs	r3, #1
 8002400:	9301      	str	r3, [sp, #4]
    while (wait_loop_index != 0UL)
 8002402:	9b01      	ldr	r3, [sp, #4]
 8002404:	2b00      	cmp	r3, #0
 8002406:	d1f9      	bne.n	80023fc <HAL_ADC_Init+0x50>
  return ((READ_BIT(ADCx->CR, ADC_CR_ADVREGEN) == (ADC_CR_ADVREGEN)) ? 1UL : 0UL);
 8002408:	6893      	ldr	r3, [r2, #8]
 800240a:	00d9      	lsls	r1, r3, #3
 800240c:	f100 8082 	bmi.w	8002514 <HAL_ADC_Init+0x168>
    SET_BIT(hadc->State, HAL_ADC_STATE_ERROR_INTERNAL);
 8002410:	6d63      	ldr	r3, [r4, #84]	@ 0x54
    tmp_hal_status = HAL_ERROR;
 8002412:	2501      	movs	r5, #1
    SET_BIT(hadc->State, HAL_ADC_STATE_ERROR_INTERNAL);
 8002414:	f043 0310 	orr.w	r3, r3, #16
 8002418:	6563      	str	r3, [r4, #84]	@ 0x54
    SET_BIT(hadc->ErrorCode, HAL_ADC_ERROR_INTERNAL);
 800241a:	6da3      	ldr	r3, [r4, #88]	@ 0x58
 800241c:	432b      	orrs	r3, r5
 800241e:	65a3      	str	r3, [r4, #88]	@ 0x58
  return ((READ_BIT(ADCx->CR, ADC_CR_ADSTART) == (ADC_CR_ADSTART)) ? 1UL : 0UL);
 8002420:	6893      	ldr	r3, [r2, #8]
 8002422:	f013 0f04 	tst.w	r3, #4
  if (((hadc->State & HAL_ADC_STATE_ERROR_INTERNAL) == 0UL)
 8002426:	6d63      	ldr	r3, [r4, #84]	@ 0x54
 8002428:	d16c      	bne.n	8002504 <HAL_ADC_Init+0x158>
 800242a:	06db      	lsls	r3, r3, #27
 800242c:	d46a      	bmi.n	8002504 <HAL_ADC_Init+0x158>
    ADC_STATE_CLR_SET(hadc->State,
 800242e:	6d63      	ldr	r3, [r4, #84]	@ 0x54
 8002430:	f423 7381 	bic.w	r3, r3, #258	@ 0x102
 8002434:	f043 0302 	orr.w	r3, r3, #2
 8002438:	6563      	str	r3, [r4, #84]	@ 0x54
  return ((READ_BIT(ADCx->CR, ADC_CR_ADEN) == (ADC_CR_ADEN)) ? 1UL : 0UL);
 800243a:	6893      	ldr	r3, [r2, #8]
 800243c:	07de      	lsls	r6, r3, #31
 800243e:	d40c      	bmi.n	800245a <HAL_ADC_Init+0xae>
      if (__LL_ADC_IS_ENABLED_ALL_COMMON_INSTANCE(__LL_ADC_COMMON_INSTANCE(hadc->Instance)) == 0UL)
 8002440:	4b58      	ldr	r3, [pc, #352]	@ (80025a4 <HAL_ADC_Init+0x1f8>)
 8002442:	429a      	cmp	r2, r3
 8002444:	f000 8081 	beq.w	800254a <HAL_ADC_Init+0x19e>
 8002448:	f503 7380 	add.w	r3, r3, #256	@ 0x100
 800244c:	429a      	cmp	r2, r3
 800244e:	d07c      	beq.n	800254a <HAL_ADC_Init+0x19e>
 8002450:	4b55      	ldr	r3, [pc, #340]	@ (80025a8 <HAL_ADC_Init+0x1fc>)
 8002452:	689b      	ldr	r3, [r3, #8]
 8002454:	07d9      	lsls	r1, r3, #31
 8002456:	f140 808a 	bpl.w	800256e <HAL_ADC_Init+0x1c2>
    if ((HAL_GetREVID() > REV_ID_Y) && (ADC_RESOLUTION_8B == hadc->Init.Resolution))
 800245a:	f7ff fa3b 	bl	80018d4 <HAL_GetREVID>
 800245e:	f241 0303 	movw	r3, #4099	@ 0x1003
 8002462:	68a1      	ldr	r1, [r4, #8]
 8002464:	4298      	cmp	r0, r3
                  ADC_CFGR_REG_DISCONTINUOUS((uint32_t)hadc->Init.DiscontinuousConvMode));
 8002466:	7f23      	ldrb	r3, [r4, #28]
    if ((HAL_GetREVID() > REV_ID_Y) && (ADC_RESOLUTION_8B == hadc->Init.Resolution))
 8002468:	d85c      	bhi.n	8002524 <HAL_ADC_Init+0x178>
      tmpCFGR  = (ADC_CFGR_CONTINUOUS((uint32_t)hadc->Init.ContinuousConvMode)          |
 800246a:	f894 c015 	ldrb.w	ip, [r4, #21]
                  ADC_CFGR_REG_DISCONTINUOUS((uint32_t)hadc->Init.DiscontinuousConvMode));
 800246e:	041a      	lsls	r2, r3, #16
      tmpCFGR  = (ADC_CFGR_CONTINUOUS((uint32_t)hadc->Init.ContinuousConvMode)          |
 8002470:	6b20      	ldr	r0, [r4, #48]	@ 0x30
 8002472:	ea42 324c 	orr.w	r2, r2, ip, lsl #13
 8002476:	4302      	orrs	r2, r0
 8002478:	430a      	orrs	r2, r1
    if (hadc->Init.DiscontinuousConvMode == ENABLE)
 800247a:	2b01      	cmp	r3, #1
 800247c:	d103      	bne.n	8002486 <HAL_ADC_Init+0xda>
      tmpCFGR |= ADC_CFGR_DISCONTINUOUS_NUM(hadc->Init.NbrOfDiscConversion);
 800247e:	6a23      	ldr	r3, [r4, #32]
 8002480:	3b01      	subs	r3, #1
 8002482:	ea42 4243 	orr.w	r2, r2, r3, lsl #17
    if (hadc->Init.ExternalTrigConv != ADC_SOFTWARE_START)
 8002486:	6a63      	ldr	r3, [r4, #36]	@ 0x24
 8002488:	b123      	cbz	r3, 8002494 <HAL_ADC_Init+0xe8>
      tmpCFGR |= ((hadc->Init.ExternalTrigConv & ADC_CFGR_EXTSEL)
 800248a:	f403 7378 	and.w	r3, r3, #992	@ 0x3e0
                  | hadc->Init.ExternalTrigConvEdge
 800248e:	6aa1      	ldr	r1, [r4, #40]	@ 0x28
 8002490:	430b      	orrs	r3, r1
      tmpCFGR |= ((hadc->Init.ExternalTrigConv & ADC_CFGR_EXTSEL)
 8002492:	431a      	orrs	r2, r3
    MODIFY_REG(hadc->Instance->CFGR, ADC_CFGR_FIELDS_1, tmpCFGR);
 8002494:	6823      	ldr	r3, [r4, #0]
 8002496:	4945      	ldr	r1, [pc, #276]	@ (80025ac <HAL_ADC_Init+0x200>)
 8002498:	68d8      	ldr	r0, [r3, #12]
 800249a:	4001      	ands	r1, r0
 800249c:	4311      	orrs	r1, r2
 800249e:	60d9      	str	r1, [r3, #12]
  return ((READ_BIT(ADCx->CR, ADC_CR_ADSTART) == (ADC_CR_ADSTART)) ? 1UL : 0UL);
 80024a0:	689a      	ldr	r2, [r3, #8]
 80024a2:	f012 0f04 	tst.w	r2, #4
  return ((READ_BIT(ADCx->CR, ADC_CR_JADSTART) == (ADC_CR_JADSTART)) ? 1UL : 0UL);
 80024a6:	689a      	ldr	r2, [r3, #8]
  return ((READ_BIT(ADCx->CR, ADC_CR_ADSTART) == (ADC_CR_ADSTART)) ? 1UL : 0UL);
 80024a8:	d11c      	bne.n	80024e4 <HAL_ADC_Init+0x138>
  return ((READ_BIT(ADCx->CR, ADC_CR_JADSTART) == (ADC_CR_JADSTART)) ? 1UL : 0UL);
 80024aa:	0712      	lsls	r2, r2, #28
 80024ac:	d41a      	bmi.n	80024e4 <HAL_ADC_Init+0x138>
      MODIFY_REG(hadc->Instance->CFGR, ADC_CFGR_FIELDS_2, tmpCFGR);
 80024ae:	68d8      	ldr	r0, [r3, #12]
 80024b0:	4a3f      	ldr	r2, [pc, #252]	@ (80025b0 <HAL_ADC_Init+0x204>)
                  ADC_CFGR_AUTOWAIT((uint32_t)hadc->Init.LowPowerAutoWait)        |
 80024b2:	7d21      	ldrb	r1, [r4, #20]
      MODIFY_REG(hadc->Instance->CFGR, ADC_CFGR_FIELDS_2, tmpCFGR);
 80024b4:	4002      	ands	r2, r0
 80024b6:	ea42 3281 	orr.w	r2, r2, r1, lsl #14
 80024ba:	6ae1      	ldr	r1, [r4, #44]	@ 0x2c
 80024bc:	430a      	orrs	r2, r1
 80024be:	60da      	str	r2, [r3, #12]
      if (hadc->Init.OversamplingMode == ENABLE)
 80024c0:	f894 2038 	ldrb.w	r2, [r4, #56]	@ 0x38
 80024c4:	2a01      	cmp	r2, #1
 80024c6:	d054      	beq.n	8002572 <HAL_ADC_Init+0x1c6>
        CLEAR_BIT(hadc->Instance->CFGR2, ADC_CFGR2_ROVSE);
 80024c8:	691a      	ldr	r2, [r3, #16]
 80024ca:	f022 0201 	bic.w	r2, r2, #1
 80024ce:	611a      	str	r2, [r3, #16]
      MODIFY_REG(hadc->Instance->CFGR2, ADC_CFGR2_LSHIFT, hadc->Init.LeftBitShift);
 80024d0:	691a      	ldr	r2, [r3, #16]
      ADC_ConfigureBoostMode(hadc);
 80024d2:	4620      	mov	r0, r4
      MODIFY_REG(hadc->Instance->CFGR2, ADC_CFGR2_LSHIFT, hadc->Init.LeftBitShift);
 80024d4:	6b61      	ldr	r1, [r4, #52]	@ 0x34
 80024d6:	f022 4270 	bic.w	r2, r2, #4026531840	@ 0xf0000000
 80024da:	430a      	orrs	r2, r1
 80024dc:	611a      	str	r2, [r3, #16]
      ADC_ConfigureBoostMode(hadc);
 80024de:	f7ff feb7 	bl	8002250 <ADC_ConfigureBoostMode>
      MODIFY_REG(hadc->Instance->SQR1, ADC_SQR1_L, (hadc->Init.NbrOfConversion - (uint8_t)1));
 80024e2:	6823      	ldr	r3, [r4, #0]
    if (hadc->Init.ScanConvMode == ADC_SCAN_ENABLE)
 80024e4:	68e2      	ldr	r2, [r4, #12]
 80024e6:	2a01      	cmp	r2, #1
 80024e8:	d027      	beq.n	800253a <HAL_ADC_Init+0x18e>
      CLEAR_BIT(hadc->Instance->SQR1, ADC_SQR1_L);
 80024ea:	6b1a      	ldr	r2, [r3, #48]	@ 0x30
 80024ec:	f022 020f 	bic.w	r2, r2, #15
 80024f0:	631a      	str	r2, [r3, #48]	@ 0x30
    ADC_STATE_CLR_SET(hadc->State, HAL_ADC_STATE_BUSY_INTERNAL, HAL_ADC_STATE_READY);
 80024f2:	6d63      	ldr	r3, [r4, #84]	@ 0x54
}
 80024f4:	4628      	mov	r0, r5
    ADC_STATE_CLR_SET(hadc->State, HAL_ADC_STATE_BUSY_INTERNAL, HAL_ADC_STATE_READY);
 80024f6:	f023 0303 	bic.w	r3, r3, #3
 80024fa:	f043 0301 	orr.w	r3, r3, #1
 80024fe:	6563      	str	r3, [r4, #84]	@ 0x54
}
 8002500:	b002      	add	sp, #8
 8002502:	bd70      	pop	{r4, r5, r6, pc}
    SET_BIT(hadc->State, HAL_ADC_STATE_ERROR_INTERNAL);
 8002504:	6d63      	ldr	r3, [r4, #84]	@ 0x54
 8002506:	f043 0310 	orr.w	r3, r3, #16
 800250a:	6563      	str	r3, [r4, #84]	@ 0x54
    return HAL_ERROR;
 800250c:	2501      	movs	r5, #1
}
 800250e:	4628      	mov	r0, r5
 8002510:	b002      	add	sp, #8
 8002512:	bd70      	pop	{r4, r5, r6, pc}
  HAL_StatusTypeDef tmp_hal_status = HAL_OK;
 8002514:	2500      	movs	r5, #0
 8002516:	e783      	b.n	8002420 <HAL_ADC_Init+0x74>
    HAL_ADC_MspInit(hadc);
 8002518:	f7fe fe16 	bl	8001148 <HAL_ADC_MspInit>
    ADC_CLEAR_ERRORCODE(hadc);
 800251c:	65a5      	str	r5, [r4, #88]	@ 0x58
    hadc->Lock = HAL_UNLOCKED;
 800251e:	f884 5050 	strb.w	r5, [r4, #80]	@ 0x50
 8002522:	e74f      	b.n	80023c4 <HAL_ADC_Init+0x18>
    if ((HAL_GetREVID() > REV_ID_Y) && (ADC_RESOLUTION_8B == hadc->Init.Resolution))
 8002524:	2910      	cmp	r1, #16
 8002526:	d1a0      	bne.n	800246a <HAL_ADC_Init+0xbe>
      tmpCFGR  = (ADC_CFGR_CONTINUOUS((uint32_t)hadc->Init.ContinuousConvMode)          |
 8002528:	7d61      	ldrb	r1, [r4, #21]
                  ADC_CFGR_REG_DISCONTINUOUS((uint32_t)hadc->Init.DiscontinuousConvMode));
 800252a:	041a      	lsls	r2, r3, #16
      tmpCFGR  = (ADC_CFGR_CONTINUOUS((uint32_t)hadc->Init.ContinuousConvMode)          |
 800252c:	ea42 3241 	orr.w	r2, r2, r1, lsl #13
 8002530:	6b21      	ldr	r1, [r4, #48]	@ 0x30
 8002532:	430a      	orrs	r2, r1
 8002534:	f042 021c 	orr.w	r2, r2, #28
 8002538:	e79f      	b.n	800247a <HAL_ADC_Init+0xce>
      MODIFY_REG(hadc->Instance->SQR1, ADC_SQR1_L, (hadc->Init.NbrOfConversion - (uint8_t)1));
 800253a:	6b19      	ldr	r1, [r3, #48]	@ 0x30
 800253c:	69a2      	ldr	r2, [r4, #24]
 800253e:	f021 010f 	bic.w	r1, r1, #15
 8002542:	3a01      	subs	r2, #1
 8002544:	430a      	orrs	r2, r1
 8002546:	631a      	str	r2, [r3, #48]	@ 0x30
 8002548:	e7d3      	b.n	80024f2 <HAL_ADC_Init+0x146>
  return ((READ_BIT(ADCx->CR, ADC_CR_ADEN) == (ADC_CR_ADEN)) ? 1UL : 0UL);
 800254a:	4b16      	ldr	r3, [pc, #88]	@ (80025a4 <HAL_ADC_Init+0x1f8>)
 800254c:	689b      	ldr	r3, [r3, #8]
 800254e:	f013 0f01 	tst.w	r3, #1
 8002552:	4b18      	ldr	r3, [pc, #96]	@ (80025b4 <HAL_ADC_Init+0x208>)
 8002554:	689b      	ldr	r3, [r3, #8]
 8002556:	d180      	bne.n	800245a <HAL_ADC_Init+0xae>
 8002558:	07d8      	lsls	r0, r3, #31
 800255a:	f53f af7e 	bmi.w	800245a <HAL_ADC_Init+0xae>
        LL_ADC_SetCommonClock(__LL_ADC_COMMON_INSTANCE(hadc->Instance), hadc->Init.ClockPrescaler);
 800255e:	4a16      	ldr	r2, [pc, #88]	@ (80025b8 <HAL_ADC_Init+0x20c>)
  MODIFY_REG(ADCxy_COMMON->CCR, ADC_CCR_CKMODE | ADC_CCR_PRESC, CommonClock);
 8002560:	6893      	ldr	r3, [r2, #8]
 8002562:	6861      	ldr	r1, [r4, #4]
 8002564:	f423 137c 	bic.w	r3, r3, #4128768	@ 0x3f0000
 8002568:	430b      	orrs	r3, r1
 800256a:	6093      	str	r3, [r2, #8]
}
 800256c:	e775      	b.n	800245a <HAL_ADC_Init+0xae>
 800256e:	4a13      	ldr	r2, [pc, #76]	@ (80025bc <HAL_ADC_Init+0x210>)
 8002570:	e7f6      	b.n	8002560 <HAL_ADC_Init+0x1b4>
        MODIFY_REG(hadc->Instance->CFGR2, ADC_CFGR2_FIELDS,
 8002572:	e9d4 120f 	ldrd	r1, r2, [r4, #60]	@ 0x3c
 8002576:	6c66      	ldr	r6, [r4, #68]	@ 0x44
 8002578:	3901      	subs	r1, #1
 800257a:	6918      	ldr	r0, [r3, #16]
 800257c:	4332      	orrs	r2, r6
 800257e:	ea42 4201 	orr.w	r2, r2, r1, lsl #16
 8002582:	6ca1      	ldr	r1, [r4, #72]	@ 0x48
 8002584:	430a      	orrs	r2, r1
 8002586:	490e      	ldr	r1, [pc, #56]	@ (80025c0 <HAL_ADC_Init+0x214>)
 8002588:	4001      	ands	r1, r0
 800258a:	430a      	orrs	r2, r1
 800258c:	f042 0201 	orr.w	r2, r2, #1
 8002590:	611a      	str	r2, [r3, #16]
 8002592:	e79d      	b.n	80024d0 <HAL_ADC_Init+0x124>
 8002594:	5fffffc0 	.word	0x5fffffc0
 8002598:	2400004c 	.word	0x2400004c
 800259c:	053e2d63 	.word	0x053e2d63
 80025a0:	6fffffc0 	.word	0x6fffffc0
 80025a4:	40022000 	.word	0x40022000
 80025a8:	58026000 	.word	0x58026000
 80025ac:	fff0c003 	.word	0xfff0c003
 80025b0:	ffffbffc 	.word	0xffffbffc
 80025b4:	40022100 	.word	0x40022100
 80025b8:	40022300 	.word	0x40022300
 80025bc:	58026300 	.word	0x58026300
 80025c0:	fc00f81e 	.word	0xfc00f81e

080025c4 <HAL_ADCEx_Calibration_Start>:
  *           @arg @ref ADC_SINGLE_ENDED       Channel in mode input single ended
  *           @arg @ref ADC_DIFFERENTIAL_ENDED Channel in mode input differential ended
  * @retval HAL status
  */
HAL_StatusTypeDef HAL_ADCEx_Calibration_Start(ADC_HandleTypeDef *hadc, uint32_t CalibrationMode, uint32_t SingleDiff)
{
 80025c4:	b5f0      	push	{r4, r5, r6, r7, lr}
  HAL_StatusTypeDef tmp_hal_status;
  __IO uint32_t wait_loop_index = 0UL;
 80025c6:	2300      	movs	r3, #0
{
 80025c8:	b083      	sub	sp, #12
  __IO uint32_t wait_loop_index = 0UL;
 80025ca:	9301      	str	r3, [sp, #4]
  /* Check the parameters */
  assert_param(IS_ADC_ALL_INSTANCE(hadc->Instance));
  assert_param(IS_ADC_SINGLE_DIFFERENTIAL(SingleDiff));

  /* Process locked */
  __HAL_LOCK(hadc);
 80025cc:	f890 3050 	ldrb.w	r3, [r0, #80]	@ 0x50
 80025d0:	2b01      	cmp	r3, #1
 80025d2:	d040      	beq.n	8002656 <HAL_ADCEx_Calibration_Start+0x92>
 80025d4:	2301      	movs	r3, #1
 80025d6:	4604      	mov	r4, r0
 80025d8:	460e      	mov	r6, r1
 80025da:	4615      	mov	r5, r2
 80025dc:	f880 3050 	strb.w	r3, [r0, #80]	@ 0x50

  /* Calibration prerequisite: ADC must be disabled. */

  /* Disable the ADC (if not already disabled) */
  tmp_hal_status = ADC_Disable(hadc);
 80025e0:	f7ff fdfc 	bl	80021dc <ADC_Disable>

  /* Check if ADC is effectively disabled */
  if (tmp_hal_status == HAL_OK)
 80025e4:	b9e8      	cbnz	r0, 8002622 <HAL_ADCEx_Calibration_Start+0x5e>
  {
    /* Set ADC state */
    ADC_STATE_CLR_SET(hadc->State,
 80025e6:	6d67      	ldr	r7, [r4, #84]	@ 0x54
  MODIFY_REG(ADCx->CR,
 80025e8:	f005 4280 	and.w	r2, r5, #1073741824	@ 0x40000000
 80025ec:	4b1b      	ldr	r3, [pc, #108]	@ (800265c <HAL_ADCEx_Calibration_Start+0x98>)
 80025ee:	f406 3180 	and.w	r1, r6, #65536	@ 0x10000
                      HAL_ADC_STATE_REG_BUSY | HAL_ADC_STATE_INJ_BUSY,
                      HAL_ADC_STATE_BUSY_INTERNAL);

    /* Start ADC calibration in mode single-ended or differential */
    LL_ADC_StartCalibration(hadc->Instance, CalibrationMode, SingleDiff);
 80025f2:	6825      	ldr	r5, [r4, #0]
    ADC_STATE_CLR_SET(hadc->State,
 80025f4:	403b      	ands	r3, r7
 80025f6:	f043 0302 	orr.w	r3, r3, #2
 80025fa:	6563      	str	r3, [r4, #84]	@ 0x54
 80025fc:	4b18      	ldr	r3, [pc, #96]	@ (8002660 <HAL_ADCEx_Calibration_Start+0x9c>)
 80025fe:	68ae      	ldr	r6, [r5, #8]
 8002600:	4033      	ands	r3, r6
 8002602:	4313      	orrs	r3, r2
 8002604:	430b      	orrs	r3, r1
 8002606:	f043 4300 	orr.w	r3, r3, #2147483648	@ 0x80000000
 800260a:	60ab      	str	r3, [r5, #8]
  return ((READ_BIT(ADCx->CR, ADC_CR_ADCAL) == (ADC_CR_ADCAL)) ? 1UL : 0UL);
 800260c:	68ab      	ldr	r3, [r5, #8]

    /* Wait for calibration completion */
    while (LL_ADC_IsCalibrationOnGoing(hadc->Instance) != 0UL)
    {
      wait_loop_index++;
      if (wait_loop_index >= ADC_CALIBRATION_TIMEOUT)
 800260e:	4a15      	ldr	r2, [pc, #84]	@ (8002664 <HAL_ADCEx_Calibration_Start+0xa0>)
 8002610:	2b00      	cmp	r3, #0
 8002612:	db0f      	blt.n	8002634 <HAL_ADCEx_Calibration_Start+0x70>
        return HAL_ERROR;
      }
    }

    /* Set ADC state */
    ADC_STATE_CLR_SET(hadc->State,
 8002614:	6d63      	ldr	r3, [r4, #84]	@ 0x54
 8002616:	f023 0303 	bic.w	r3, r3, #3
 800261a:	f043 0301 	orr.w	r3, r3, #1
 800261e:	6563      	str	r3, [r4, #84]	@ 0x54
 8002620:	e003      	b.n	800262a <HAL_ADCEx_Calibration_Start+0x66>
                      HAL_ADC_STATE_BUSY_INTERNAL,
                      HAL_ADC_STATE_READY);
  }
  else
  {
    SET_BIT(hadc->State, HAL_ADC_STATE_ERROR_INTERNAL);
 8002622:	6d63      	ldr	r3, [r4, #84]	@ 0x54
 8002624:	f043 0310 	orr.w	r3, r3, #16
 8002628:	6563      	str	r3, [r4, #84]	@ 0x54
    /* Note: No need to update variable "tmp_hal_status" here: already set    */
    /*       to state "HAL_ERROR" by function disabling the ADC.              */
  }

  /* Process unlocked */
  __HAL_UNLOCK(hadc);
 800262a:	2300      	movs	r3, #0
 800262c:	f884 3050 	strb.w	r3, [r4, #80]	@ 0x50

  /* Return function status */
  return tmp_hal_status;
}
 8002630:	b003      	add	sp, #12
 8002632:	bdf0      	pop	{r4, r5, r6, r7, pc}
      wait_loop_index++;
 8002634:	9b01      	ldr	r3, [sp, #4]
 8002636:	3301      	adds	r3, #1
 8002638:	9301      	str	r3, [sp, #4]
      if (wait_loop_index >= ADC_CALIBRATION_TIMEOUT)
 800263a:	9b01      	ldr	r3, [sp, #4]
 800263c:	4293      	cmp	r3, r2
 800263e:	d3e5      	bcc.n	800260c <HAL_ADCEx_Calibration_Start+0x48>
        ADC_STATE_CLR_SET(hadc->State,
 8002640:	6d63      	ldr	r3, [r4, #84]	@ 0x54
        __HAL_UNLOCK(hadc);
 8002642:	2200      	movs	r2, #0
        return HAL_ERROR;
 8002644:	2001      	movs	r0, #1
        ADC_STATE_CLR_SET(hadc->State,
 8002646:	f023 0312 	bic.w	r3, r3, #18
        __HAL_UNLOCK(hadc);
 800264a:	f884 2050 	strb.w	r2, [r4, #80]	@ 0x50
        ADC_STATE_CLR_SET(hadc->State,
 800264e:	f043 0310 	orr.w	r3, r3, #16
 8002652:	6563      	str	r3, [r4, #84]	@ 0x54
        return HAL_ERROR;
 8002654:	e7ec      	b.n	8002630 <HAL_ADCEx_Calibration_Start+0x6c>
  __HAL_LOCK(hadc);
 8002656:	2002      	movs	r0, #2
}
 8002658:	b003      	add	sp, #12
 800265a:	bdf0      	pop	{r4, r5, r6, r7, pc}
 800265c:	ffffeefd 	.word	0xffffeefd
 8002660:	3ffeffc0 	.word	0x3ffeffc0
 8002664:	25c3f800 	.word	0x25c3f800

08002668 <HAL_ADCEx_InjectedConvCpltCallback>:
  UNUSED(hadc);

  /* NOTE : This function should not be modified. When the callback is needed,
            function HAL_ADCEx_InjectedConvCpltCallback must be implemented in the user file.
  */
}
 8002668:	4770      	bx	lr
 800266a:	bf00      	nop

0800266c <HAL_ADCEx_InjectedQueueOverflowCallback>:
            and if a new injected context is set when queue is full (maximum 2
            contexts).
  * @param hadc ADC handle
  * @retval None
  */
__weak void HAL_ADCEx_InjectedQueueOverflowCallback(ADC_HandleTypeDef *hadc)
 800266c:	4770      	bx	lr
 800266e:	bf00      	nop

08002670 <HAL_ADCEx_LevelOutOfWindow2Callback>:
/**
  * @brief  Analog watchdog 2 callback in non-blocking mode.
  * @param hadc ADC handle
  * @retval None
  */
__weak void HAL_ADCEx_LevelOutOfWindow2Callback(ADC_HandleTypeDef *hadc)
 8002670:	4770      	bx	lr
 8002672:	bf00      	nop

08002674 <HAL_ADCEx_LevelOutOfWindow3Callback>:
/**
  * @brief  Analog watchdog 3 callback in non-blocking mode.
  * @param hadc ADC handle
  * @retval None
  */
__weak void HAL_ADCEx_LevelOutOfWindow3Callback(ADC_HandleTypeDef *hadc)
 8002674:	4770      	bx	lr
 8002676:	bf00      	nop

08002678 <HAL_ADCEx_EndOfSamplingCallback>:
/**
  * @brief  End Of Sampling callback in non-blocking mode.
  * @param hadc ADC handle
  * @retval None
  */
__weak void HAL_ADCEx_EndOfSamplingCallback(ADC_HandleTypeDef *hadc)
 8002678:	4770      	bx	lr
 800267a:	bf00      	nop

0800267c <HAL_ADCEx_MultiModeConfigChannel>:
    assert_param(IS_ADC_DUAL_DATA_MODE(multimode->DualModeData));
    assert_param(IS_ADC_SAMPLING_DELAY(multimode->TwoSamplingDelay));
  }

  /* Process locked */
  __HAL_LOCK(hadc);
 800267c:	f890 2050 	ldrb.w	r2, [r0, #80]	@ 0x50
 8002680:	2a01      	cmp	r2, #1
 8002682:	d035      	beq.n	80026f0 <HAL_ADCEx_MultiModeConfigChannel+0x74>
 8002684:	4603      	mov	r3, r0

  tmphadcSlave.State = HAL_ADC_STATE_RESET;
 8002686:	2200      	movs	r2, #0
  __HAL_LOCK(hadc);
 8002688:	2001      	movs	r0, #1
{
 800268a:	b4f0      	push	{r4, r5, r6, r7}
  tmphadcSlave.ErrorCode = HAL_ADC_ERROR_NONE;

  ADC_MULTI_SLAVE(hadc, &tmphadcSlave);
 800268c:	4d28      	ldr	r5, [pc, #160]	@ (8002730 <HAL_ADCEx_MultiModeConfigChannel+0xb4>)
{
 800268e:	b09a      	sub	sp, #104	@ 0x68
  ADC_MULTI_SLAVE(hadc, &tmphadcSlave);
 8002690:	681c      	ldr	r4, [r3, #0]
  tmphadcSlave.State = HAL_ADC_STATE_RESET;
 8002692:	9216      	str	r2, [sp, #88]	@ 0x58
  ADC_MULTI_SLAVE(hadc, &tmphadcSlave);
 8002694:	42ac      	cmp	r4, r5
  __HAL_LOCK(hadc);
 8002696:	f883 0050 	strb.w	r0, [r3, #80]	@ 0x50
  tmphadcSlave.ErrorCode = HAL_ADC_ERROR_NONE;
 800269a:	9217      	str	r2, [sp, #92]	@ 0x5c
  ADC_MULTI_SLAVE(hadc, &tmphadcSlave);
 800269c:	d008      	beq.n	80026b0 <HAL_ADCEx_MultiModeConfigChannel+0x34>

  if (tmphadcSlave.Instance == NULL)
  {
    /* Update ADC state machine to error */
    SET_BIT(hadc->State, HAL_ADC_STATE_ERROR_CONFIG);
 800269e:	6d59      	ldr	r1, [r3, #84]	@ 0x54

    /* Process unlocked */
    __HAL_UNLOCK(hadc);
 80026a0:	f883 2050 	strb.w	r2, [r3, #80]	@ 0x50
    SET_BIT(hadc->State, HAL_ADC_STATE_ERROR_CONFIG);
 80026a4:	f041 0120 	orr.w	r1, r1, #32
 80026a8:	6559      	str	r1, [r3, #84]	@ 0x54
  /* Process unlocked */
  __HAL_UNLOCK(hadc);

  /* Return function status */
  return tmp_hal_status;
}
 80026aa:	b01a      	add	sp, #104	@ 0x68
 80026ac:	bcf0      	pop	{r4, r5, r6, r7}
 80026ae:	4770      	bx	lr
  return ((READ_BIT(ADCx->CR, ADC_CR_ADSTART) == (ADC_CR_ADSTART)) ? 1UL : 0UL);
 80026b0:	4a20      	ldr	r2, [pc, #128]	@ (8002734 <HAL_ADCEx_MultiModeConfigChannel+0xb8>)
 80026b2:	6890      	ldr	r0, [r2, #8]
 80026b4:	0740      	lsls	r0, r0, #29
 80026b6:	d50b      	bpl.n	80026d0 <HAL_ADCEx_MultiModeConfigChannel+0x54>
 80026b8:	68a2      	ldr	r2, [r4, #8]
    SET_BIT(hadc->State, HAL_ADC_STATE_ERROR_CONFIG);
 80026ba:	6d5a      	ldr	r2, [r3, #84]	@ 0x54
    tmp_hal_status = HAL_ERROR;
 80026bc:	2001      	movs	r0, #1
    SET_BIT(hadc->State, HAL_ADC_STATE_ERROR_CONFIG);
 80026be:	f042 0220 	orr.w	r2, r2, #32
 80026c2:	655a      	str	r2, [r3, #84]	@ 0x54
  __HAL_UNLOCK(hadc);
 80026c4:	2200      	movs	r2, #0
 80026c6:	f883 2050 	strb.w	r2, [r3, #80]	@ 0x50
}
 80026ca:	b01a      	add	sp, #104	@ 0x68
 80026cc:	bcf0      	pop	{r4, r5, r6, r7}
 80026ce:	4770      	bx	lr
 80026d0:	68a0      	ldr	r0, [r4, #8]
 80026d2:	0745      	lsls	r5, r0, #29
 80026d4:	d4f1      	bmi.n	80026ba <HAL_ADCEx_MultiModeConfigChannel+0x3e>
    if (multimode->Mode != ADC_MODE_INDEPENDENT)
 80026d6:	6808      	ldr	r0, [r1, #0]
 80026d8:	b9a0      	cbnz	r0, 8002704 <HAL_ADCEx_MultiModeConfigChannel+0x88>
      CLEAR_BIT(tmpADC_Common->CCR, ADC_CCR_DAMDF);
 80026da:	4917      	ldr	r1, [pc, #92]	@ (8002738 <HAL_ADCEx_MultiModeConfigChannel+0xbc>)
 80026dc:	6888      	ldr	r0, [r1, #8]
 80026de:	f420 4040 	bic.w	r0, r0, #49152	@ 0xc000
 80026e2:	6088      	str	r0, [r1, #8]
  return ((READ_BIT(ADCx->CR, ADC_CR_ADEN) == (ADC_CR_ADEN)) ? 1UL : 0UL);
 80026e4:	68a0      	ldr	r0, [r4, #8]
 80026e6:	07c0      	lsls	r0, r0, #31
 80026e8:	d504      	bpl.n	80026f4 <HAL_ADCEx_MultiModeConfigChannel+0x78>
 80026ea:	6892      	ldr	r2, [r2, #8]
  HAL_StatusTypeDef tmp_hal_status = HAL_OK;
 80026ec:	2000      	movs	r0, #0
 80026ee:	e7e9      	b.n	80026c4 <HAL_ADCEx_MultiModeConfigChannel+0x48>
  __HAL_LOCK(hadc);
 80026f0:	2002      	movs	r0, #2
}
 80026f2:	4770      	bx	lr
 80026f4:	6892      	ldr	r2, [r2, #8]
 80026f6:	07d5      	lsls	r5, r2, #31
 80026f8:	d4f8      	bmi.n	80026ec <HAL_ADCEx_MultiModeConfigChannel+0x70>
        CLEAR_BIT(tmpADC_Common->CCR, ADC_CCR_DUAL | ADC_CCR_DELAY);
 80026fa:	6888      	ldr	r0, [r1, #8]
 80026fc:	4a0f      	ldr	r2, [pc, #60]	@ (800273c <HAL_ADCEx_MultiModeConfigChannel+0xc0>)
 80026fe:	4002      	ands	r2, r0
 8002700:	608a      	str	r2, [r1, #8]
 8002702:	e7f3      	b.n	80026ec <HAL_ADCEx_MultiModeConfigChannel+0x70>
      MODIFY_REG(tmpADC_Common->CCR, ADC_CCR_DAMDF, multimode->DualModeData);
 8002704:	4e0c      	ldr	r6, [pc, #48]	@ (8002738 <HAL_ADCEx_MultiModeConfigChannel+0xbc>)
 8002706:	684f      	ldr	r7, [r1, #4]
 8002708:	68b5      	ldr	r5, [r6, #8]
 800270a:	f425 4540 	bic.w	r5, r5, #49152	@ 0xc000
 800270e:	433d      	orrs	r5, r7
 8002710:	60b5      	str	r5, [r6, #8]
 8002712:	68a4      	ldr	r4, [r4, #8]
 8002714:	07e4      	lsls	r4, r4, #31
 8002716:	d4e8      	bmi.n	80026ea <HAL_ADCEx_MultiModeConfigChannel+0x6e>
 8002718:	6892      	ldr	r2, [r2, #8]
 800271a:	07d7      	lsls	r7, r2, #31
 800271c:	d4e6      	bmi.n	80026ec <HAL_ADCEx_MultiModeConfigChannel+0x70>
        MODIFY_REG(tmpADC_Common->CCR,
 800271e:	688a      	ldr	r2, [r1, #8]
 8002720:	68b4      	ldr	r4, [r6, #8]
 8002722:	4310      	orrs	r0, r2
 8002724:	4a05      	ldr	r2, [pc, #20]	@ (800273c <HAL_ADCEx_MultiModeConfigChannel+0xc0>)
 8002726:	4022      	ands	r2, r4
 8002728:	4310      	orrs	r0, r2
 800272a:	60b0      	str	r0, [r6, #8]
 800272c:	e7de      	b.n	80026ec <HAL_ADCEx_MultiModeConfigChannel+0x70>
 800272e:	bf00      	nop
 8002730:	40022000 	.word	0x40022000
 8002734:	40022100 	.word	0x40022100
 8002738:	40022300 	.word	0x40022300
 800273c:	fffff0e0 	.word	0xfffff0e0

08002740 <HAL_NVIC_SetPriorityGrouping>:
  reg_value  =  SCB->AIRCR;                                                   /* read old register configuration    */
 8002740:	4906      	ldr	r1, [pc, #24]	@ (800275c <HAL_NVIC_SetPriorityGrouping+0x1c>)
  reg_value &= ~((uint32_t)(SCB_AIRCR_VECTKEY_Msk | SCB_AIRCR_PRIGROUP_Msk)); /* clear bits to change               */
 8002742:	f64f 0cff 	movw	ip, #63743	@ 0xf8ff
                (PriorityGroupTmp << SCB_AIRCR_PRIGROUP_Pos)  );              /* Insert write key and priority group */
 8002746:	0200      	lsls	r0, r0, #8
  reg_value  =  (reg_value                                   |
 8002748:	4b05      	ldr	r3, [pc, #20]	@ (8002760 <HAL_NVIC_SetPriorityGrouping+0x20>)
  reg_value  =  SCB->AIRCR;                                                   /* read old register configuration    */
 800274a:	68ca      	ldr	r2, [r1, #12]
                (PriorityGroupTmp << SCB_AIRCR_PRIGROUP_Pos)  );              /* Insert write key and priority group */
 800274c:	f400 60e0 	and.w	r0, r0, #1792	@ 0x700
  reg_value &= ~((uint32_t)(SCB_AIRCR_VECTKEY_Msk | SCB_AIRCR_PRIGROUP_Msk)); /* clear bits to change               */
 8002750:	ea02 020c 	and.w	r2, r2, ip
                ((uint32_t)0x5FAUL << SCB_AIRCR_VECTKEY_Pos) |
 8002754:	4310      	orrs	r0, r2
  reg_value  =  (reg_value                                   |
 8002756:	4303      	orrs	r3, r0
  SCB->AIRCR =  reg_value;
 8002758:	60cb      	str	r3, [r1, #12]
  /* Check the parameters */
  assert_param(IS_NVIC_PRIORITY_GROUP(PriorityGroup));

  /* Set the PRIGROUP[10:8] bits according to the PriorityGroup parameter value */
  NVIC_SetPriorityGrouping(PriorityGroup);
}
 800275a:	4770      	bx	lr
 800275c:	e000ed00 	.word	0xe000ed00
 8002760:	05fa0000 	.word	0x05fa0000

08002764 <HAL_NVIC_SetPriority>:
  return ((uint32_t)((SCB->AIRCR & SCB_AIRCR_PRIGROUP_Msk) >> SCB_AIRCR_PRIGROUP_Pos));
 8002764:	4b1a      	ldr	r3, [pc, #104]	@ (80027d0 <HAL_NVIC_SetPriority+0x6c>)
 8002766:	68db      	ldr	r3, [r3, #12]
 8002768:	f3c3 2302 	ubfx	r3, r3, #8, #3
  *         This parameter can be a value between 0 and 15
  *         A lower priority value indicates a higher priority.
  * @retval None
  */
void HAL_NVIC_SetPriority(IRQn_Type IRQn, uint32_t PreemptPriority, uint32_t SubPriority)
{
 800276c:	b500      	push	{lr}
  PreemptPriorityBits = ((7UL - PriorityGroupTmp) > (uint32_t)(__NVIC_PRIO_BITS)) ? (uint32_t)(__NVIC_PRIO_BITS) : (uint32_t)(7UL - PriorityGroupTmp);
 800276e:	f1c3 0e07 	rsb	lr, r3, #7
  SubPriorityBits     = ((PriorityGroupTmp + (uint32_t)(__NVIC_PRIO_BITS)) < (uint32_t)7UL) ? (uint32_t)0UL : (uint32_t)((PriorityGroupTmp - 7UL) + (uint32_t)(__NVIC_PRIO_BITS));
 8002772:	f103 0c04 	add.w	ip, r3, #4
  PreemptPriorityBits = ((7UL - PriorityGroupTmp) > (uint32_t)(__NVIC_PRIO_BITS)) ? (uint32_t)(__NVIC_PRIO_BITS) : (uint32_t)(7UL - PriorityGroupTmp);
 8002776:	f1be 0f04 	cmp.w	lr, #4
 800277a:	bf28      	it	cs
 800277c:	f04f 0e04 	movcs.w	lr, #4
  SubPriorityBits     = ((PriorityGroupTmp + (uint32_t)(__NVIC_PRIO_BITS)) < (uint32_t)7UL) ? (uint32_t)0UL : (uint32_t)((PriorityGroupTmp - 7UL) + (uint32_t)(__NVIC_PRIO_BITS));
 8002780:	f1bc 0f06 	cmp.w	ip, #6
 8002784:	d91a      	bls.n	80027bc <HAL_NVIC_SetPriority+0x58>
 8002786:	f1a3 0c03 	sub.w	ip, r3, #3
           ((SubPriority     & (uint32_t)((1UL << (SubPriorityBits    )) - 1UL)))
 800278a:	f04f 33ff 	mov.w	r3, #4294967295
 800278e:	fa03 f30c 	lsl.w	r3, r3, ip
 8002792:	ea22 0203 	bic.w	r2, r2, r3
           ((PreemptPriority & (uint32_t)((1UL << (PreemptPriorityBits)) - 1UL)) << SubPriorityBits) |
 8002796:	f04f 33ff 	mov.w	r3, #4294967295
  if ((int32_t)(IRQn) >= 0)
 800279a:	2800      	cmp	r0, #0
           ((PreemptPriority & (uint32_t)((1UL << (PreemptPriorityBits)) - 1UL)) << SubPriorityBits) |
 800279c:	fa03 f30e 	lsl.w	r3, r3, lr
 80027a0:	ea21 0303 	bic.w	r3, r1, r3
 80027a4:	fa03 f30c 	lsl.w	r3, r3, ip
 80027a8:	ea43 0302 	orr.w	r3, r3, r2
    NVIC->IP[((uint32_t)IRQn)]                = (uint8_t)((priority << (8U - __NVIC_PRIO_BITS)) & (uint32_t)0xFFUL);
 80027ac:	ea4f 1303 	mov.w	r3, r3, lsl #4
 80027b0:	b2db      	uxtb	r3, r3
  if ((int32_t)(IRQn) >= 0)
 80027b2:	db06      	blt.n	80027c2 <HAL_NVIC_SetPriority+0x5e>
    NVIC->IP[((uint32_t)IRQn)]                = (uint8_t)((priority << (8U - __NVIC_PRIO_BITS)) & (uint32_t)0xFFUL);
 80027b4:	4a07      	ldr	r2, [pc, #28]	@ (80027d4 <HAL_NVIC_SetPriority+0x70>)
 80027b6:	5413      	strb	r3, [r2, r0]
  assert_param(IS_NVIC_PREEMPTION_PRIORITY(PreemptPriority));

  prioritygroup = NVIC_GetPriorityGrouping();

  NVIC_SetPriority(IRQn, NVIC_EncodePriority(prioritygroup, PreemptPriority, SubPriority));
}
 80027b8:	f85d fb04 	ldr.w	pc, [sp], #4
 80027bc:	2200      	movs	r2, #0
  SubPriorityBits     = ((PriorityGroupTmp + (uint32_t)(__NVIC_PRIO_BITS)) < (uint32_t)7UL) ? (uint32_t)0UL : (uint32_t)((PriorityGroupTmp - 7UL) + (uint32_t)(__NVIC_PRIO_BITS));
 80027be:	4694      	mov	ip, r2
 80027c0:	e7e9      	b.n	8002796 <HAL_NVIC_SetPriority+0x32>
    SCB->SHPR[(((uint32_t)IRQn) & 0xFUL)-4UL] = (uint8_t)((priority << (8U - __NVIC_PRIO_BITS)) & (uint32_t)0xFFUL);
 80027c2:	f000 000f 	and.w	r0, r0, #15
 80027c6:	4a04      	ldr	r2, [pc, #16]	@ (80027d8 <HAL_NVIC_SetPriority+0x74>)
 80027c8:	5413      	strb	r3, [r2, r0]
 80027ca:	f85d fb04 	ldr.w	pc, [sp], #4
 80027ce:	bf00      	nop
 80027d0:	e000ed00 	.word	0xe000ed00
 80027d4:	e000e400 	.word	0xe000e400
 80027d8:	e000ed14 	.word	0xe000ed14

080027dc <HAL_NVIC_EnableIRQ>:
  if ((int32_t)(IRQn) >= 0)
 80027dc:	2800      	cmp	r0, #0
 80027de:	db07      	blt.n	80027f0 <HAL_NVIC_EnableIRQ+0x14>
    NVIC->ISER[(((uint32_t)IRQn) >> 5UL)] = (uint32_t)(1UL << (((uint32_t)IRQn) & 0x1FUL));
 80027e0:	2301      	movs	r3, #1
 80027e2:	f000 011f 	and.w	r1, r0, #31
 80027e6:	4a03      	ldr	r2, [pc, #12]	@ (80027f4 <HAL_NVIC_EnableIRQ+0x18>)
 80027e8:	0940      	lsrs	r0, r0, #5
 80027ea:	408b      	lsls	r3, r1
 80027ec:	f842 3020 	str.w	r3, [r2, r0, lsl #2]
  /* Check the parameters */
  assert_param(IS_NVIC_DEVICE_IRQ(IRQn));

  /* Enable interrupt */
  NVIC_EnableIRQ(IRQn);
}
 80027f0:	4770      	bx	lr
 80027f2:	bf00      	nop
 80027f4:	e000e100 	.word	0xe000e100

080027f8 <HAL_SYSTICK_Config>:
           function <b>SysTick_Config</b> is not included. In this case, the file <b><i>device</i>.h</b>
           must contain a vendor-specific implementation of this function.
 */
__STATIC_INLINE uint32_t SysTick_Config(uint32_t ticks)
{
  if ((ticks - 1UL) > SysTick_LOAD_RELOAD_Msk)
 80027f8:	1e43      	subs	r3, r0, #1
 80027fa:	f1b3 7f80 	cmp.w	r3, #16777216	@ 0x1000000
 80027fe:	d301      	bcc.n	8002804 <HAL_SYSTICK_Config+0xc>
  {
    return (1UL);                                                   /* Reload value impossible */
 8002800:	2001      	movs	r0, #1
  *                  - 1  Function failed.
  */
uint32_t HAL_SYSTICK_Config(uint32_t TicksNumb)
{
   return SysTick_Config(TicksNumb);
}
 8002802:	4770      	bx	lr
  }

  SysTick->LOAD  = (uint32_t)(ticks - 1UL);                         /* set reload register */
 8002804:	f04f 22e0 	mov.w	r2, #3758153728	@ 0xe000e000
  NVIC_SetPriority (SysTick_IRQn, (1UL << __NVIC_PRIO_BITS) - 1UL); /* set Priority for Systick Interrupt */
  SysTick->VAL   = 0UL;                                             /* Load the SysTick Counter Value */
 8002808:	2000      	movs	r0, #0
    SCB->SHPR[(((uint32_t)IRQn) & 0xFUL)-4UL] = (uint8_t)((priority << (8U - __NVIC_PRIO_BITS)) & (uint32_t)0xFFUL);
 800280a:	4905      	ldr	r1, [pc, #20]	@ (8002820 <HAL_SYSTICK_Config+0x28>)
 800280c:	f04f 0cf0 	mov.w	ip, #240	@ 0xf0
  SysTick->LOAD  = (uint32_t)(ticks - 1UL);                         /* set reload register */
 8002810:	6153      	str	r3, [r2, #20]
  SysTick->CTRL  = SysTick_CTRL_CLKSOURCE_Msk |
 8002812:	2307      	movs	r3, #7
    SCB->SHPR[(((uint32_t)IRQn) & 0xFUL)-4UL] = (uint8_t)((priority << (8U - __NVIC_PRIO_BITS)) & (uint32_t)0xFFUL);
 8002814:	f881 c023 	strb.w	ip, [r1, #35]	@ 0x23
  SysTick->VAL   = 0UL;                                             /* Load the SysTick Counter Value */
 8002818:	6190      	str	r0, [r2, #24]
  SysTick->CTRL  = SysTick_CTRL_CLKSOURCE_Msk |
 800281a:	6113      	str	r3, [r2, #16]
                   SysTick_CTRL_TICKINT_Msk   |
                   SysTick_CTRL_ENABLE_Msk;                         /* Enable SysTick IRQ and SysTick Timer */
  return (0UL);                                                     /* Function successful */
 800281c:	4770      	bx	lr
 800281e:	bf00      	nop
 8002820:	e000ed00 	.word	0xe000ed00

08002824 <HAL_MPU_Disable>:
  __ASM volatile ("dmb 0xF":::"memory");
 8002824:	f3bf 8f5f 	dmb	sy
{
  /* Make sure outstanding transfers are done */
  __DMB();

  /* Disable fault exceptions */
  SCB->SHCSR &= ~SCB_SHCSR_MEMFAULTENA_Msk;
 8002828:	4b04      	ldr	r3, [pc, #16]	@ (800283c <HAL_MPU_Disable+0x18>)

  /* Disable the MPU and clear the control register*/
  MPU->CTRL = 0;
 800282a:	2100      	movs	r1, #0
  SCB->SHCSR &= ~SCB_SHCSR_MEMFAULTENA_Msk;
 800282c:	6a5a      	ldr	r2, [r3, #36]	@ 0x24
 800282e:	f422 3280 	bic.w	r2, r2, #65536	@ 0x10000
 8002832:	625a      	str	r2, [r3, #36]	@ 0x24
  MPU->CTRL = 0;
 8002834:	f8c3 1094 	str.w	r1, [r3, #148]	@ 0x94
}
 8002838:	4770      	bx	lr
 800283a:	bf00      	nop
 800283c:	e000ed00 	.word	0xe000ed00

08002840 <HAL_MPU_Enable>:
  * @retval None
  */
void HAL_MPU_Enable(uint32_t MPU_Control)
{
  /* Enable the MPU */
  MPU->CTRL = MPU_Control | MPU_CTRL_ENABLE_Msk;
 8002840:	4b06      	ldr	r3, [pc, #24]	@ (800285c <HAL_MPU_Enable+0x1c>)
 8002842:	f040 0001 	orr.w	r0, r0, #1
 8002846:	f8c3 0094 	str.w	r0, [r3, #148]	@ 0x94

  /* Enable fault exceptions */
  SCB->SHCSR |= SCB_SHCSR_MEMFAULTENA_Msk;
 800284a:	6a5a      	ldr	r2, [r3, #36]	@ 0x24
 800284c:	f442 3280 	orr.w	r2, r2, #65536	@ 0x10000
 8002850:	625a      	str	r2, [r3, #36]	@ 0x24
  __ASM volatile ("dsb 0xF":::"memory");
 8002852:	f3bf 8f4f 	dsb	sy
  __ASM volatile ("isb 0xF":::"memory");
 8002856:	f3bf 8f6f 	isb	sy

  /* Ensure MPU setting take effects */
  __DSB();
  __ISB();
}
 800285a:	4770      	bx	lr
 800285c:	e000ed00 	.word	0xe000ed00

08002860 <HAL_MPU_ConfigRegion>:
  assert_param(IS_MPU_ACCESS_BUFFERABLE(MPU_Init->IsBufferable));
  assert_param(IS_MPU_SUB_REGION_DISABLE(MPU_Init->SubRegionDisable));
  assert_param(IS_MPU_REGION_SIZE(MPU_Init->Size));

  /* Set the Region number */
  MPU->RNR = MPU_Init->Number;
 8002860:	4a16      	ldr	r2, [pc, #88]	@ (80028bc <HAL_MPU_ConfigRegion+0x5c>)
 8002862:	7843      	ldrb	r3, [r0, #1]
 8002864:	f8c2 3098 	str.w	r3, [r2, #152]	@ 0x98

  /* Disable the Region */
  CLEAR_BIT(MPU->RASR, MPU_RASR_ENABLE_Msk);
 8002868:	f8d2 30a0 	ldr.w	r3, [r2, #160]	@ 0xa0
 800286c:	f023 0301 	bic.w	r3, r3, #1
 8002870:	f8c2 30a0 	str.w	r3, [r2, #160]	@ 0xa0

  /* Apply configuration */
  MPU->RBAR = MPU_Init->BaseAddress;
 8002874:	6843      	ldr	r3, [r0, #4]
 8002876:	f8c2 309c 	str.w	r3, [r2, #156]	@ 0x9c
  MPU->RASR = ((uint32_t)MPU_Init->DisableExec             << MPU_RASR_XN_Pos)   |
              ((uint32_t)MPU_Init->AccessPermission        << MPU_RASR_AP_Pos)   |
 800287a:	7ac3      	ldrb	r3, [r0, #11]
  MPU->RASR = ((uint32_t)MPU_Init->DisableExec             << MPU_RASR_XN_Pos)   |
 800287c:	f890 c00c 	ldrb.w	ip, [r0, #12]
              ((uint32_t)MPU_Init->AccessPermission        << MPU_RASR_AP_Pos)   |
 8002880:	061b      	lsls	r3, r3, #24
              ((uint32_t)MPU_Init->IsShareable             << MPU_RASR_S_Pos)    |
              ((uint32_t)MPU_Init->IsCacheable             << MPU_RASR_C_Pos)    |
              ((uint32_t)MPU_Init->IsBufferable            << MPU_RASR_B_Pos)    |
              ((uint32_t)MPU_Init->SubRegionDisable        << MPU_RASR_SRD_Pos)  |
              ((uint32_t)MPU_Init->Size                    << MPU_RASR_SIZE_Pos) |
              ((uint32_t)MPU_Init->Enable                  << MPU_RASR_ENABLE_Pos);
 8002882:	7801      	ldrb	r1, [r0, #0]
  MPU->RASR = ((uint32_t)MPU_Init->DisableExec             << MPU_RASR_XN_Pos)   |
 8002884:	ea43 730c 	orr.w	r3, r3, ip, lsl #28
              ((uint32_t)MPU_Init->TypeExtField            << MPU_RASR_TEX_Pos)  |
 8002888:	f890 c00a 	ldrb.w	ip, [r0, #10]
              ((uint32_t)MPU_Init->Size                    << MPU_RASR_SIZE_Pos) |
 800288c:	430b      	orrs	r3, r1
              ((uint32_t)MPU_Init->IsShareable             << MPU_RASR_S_Pos)    |
 800288e:	7b41      	ldrb	r1, [r0, #13]
              ((uint32_t)MPU_Init->Size                    << MPU_RASR_SIZE_Pos) |
 8002890:	ea43 43cc 	orr.w	r3, r3, ip, lsl #19
              ((uint32_t)MPU_Init->IsCacheable             << MPU_RASR_C_Pos)    |
 8002894:	f890 c00e 	ldrb.w	ip, [r0, #14]
              ((uint32_t)MPU_Init->Size                    << MPU_RASR_SIZE_Pos) |
 8002898:	ea43 4381 	orr.w	r3, r3, r1, lsl #18
              ((uint32_t)MPU_Init->IsBufferable            << MPU_RASR_B_Pos)    |
 800289c:	7bc1      	ldrb	r1, [r0, #15]
              ((uint32_t)MPU_Init->Size                    << MPU_RASR_SIZE_Pos) |
 800289e:	ea43 434c 	orr.w	r3, r3, ip, lsl #17
              ((uint32_t)MPU_Init->SubRegionDisable        << MPU_RASR_SRD_Pos)  |
 80028a2:	f890 c009 	ldrb.w	ip, [r0, #9]
              ((uint32_t)MPU_Init->Size                    << MPU_RASR_SIZE_Pos) |
 80028a6:	ea43 4301 	orr.w	r3, r3, r1, lsl #16
 80028aa:	7a01      	ldrb	r1, [r0, #8]
 80028ac:	ea43 230c 	orr.w	r3, r3, ip, lsl #8
 80028b0:	ea43 0341 	orr.w	r3, r3, r1, lsl #1
  MPU->RASR = ((uint32_t)MPU_Init->DisableExec             << MPU_RASR_XN_Pos)   |
 80028b4:	f8c2 30a0 	str.w	r3, [r2, #160]	@ 0xa0
}
 80028b8:	4770      	bx	lr
 80028ba:	bf00      	nop
 80028bc:	e000ed00 	.word	0xe000ed00

080028c0 <HAL_DAC_Init>:
  * @retval HAL status
  */
HAL_StatusTypeDef HAL_DAC_Init(DAC_HandleTypeDef *hdac)
{
  /* Check the DAC peripheral handle */
  if (hdac == NULL)
 80028c0:	b188      	cbz	r0, 80028e6 <HAL_DAC_Init+0x26>
{
 80028c2:	b510      	push	{r4, lr}
    return HAL_ERROR;
  }
  /* Check the parameters */
  assert_param(IS_DAC_ALL_INSTANCE(hdac->Instance));

  if (hdac->State == HAL_DAC_STATE_RESET)
 80028c4:	7903      	ldrb	r3, [r0, #4]
 80028c6:	4604      	mov	r4, r0
 80028c8:	f003 02ff 	and.w	r2, r3, #255	@ 0xff
 80028cc:	b13b      	cbz	r3, 80028de <HAL_DAC_Init+0x1e>

  /* Initialize the DAC state*/
  hdac->State = HAL_DAC_STATE_BUSY;

  /* Set DAC error code to none */
  hdac->ErrorCode = HAL_DAC_ERROR_NONE;
 80028ce:	2300      	movs	r3, #0
  hdac->State = HAL_DAC_STATE_BUSY;
 80028d0:	2102      	movs	r1, #2

  /* Initialize the DAC state*/
  hdac->State = HAL_DAC_STATE_READY;
 80028d2:	2201      	movs	r2, #1
  hdac->State = HAL_DAC_STATE_BUSY;
 80028d4:	7121      	strb	r1, [r4, #4]

  /* Return function status */
  return HAL_OK;
 80028d6:	4618      	mov	r0, r3
  hdac->ErrorCode = HAL_DAC_ERROR_NONE;
 80028d8:	6123      	str	r3, [r4, #16]
  hdac->State = HAL_DAC_STATE_READY;
 80028da:	7122      	strb	r2, [r4, #4]
}
 80028dc:	bd10      	pop	{r4, pc}
    hdac->Lock = HAL_UNLOCKED;
 80028de:	7142      	strb	r2, [r0, #5]
    HAL_DAC_MspInit(hdac);
 80028e0:	f7fe fcac 	bl	800123c <HAL_DAC_MspInit>
 80028e4:	e7f3      	b.n	80028ce <HAL_DAC_Init+0xe>
    return HAL_ERROR;
 80028e6:	2001      	movs	r0, #1
}
 80028e8:	4770      	bx	lr
 80028ea:	bf00      	nop

080028ec <HAL_DAC_Start_DMA>:
  *            @arg DAC_ALIGN_12B_R: 12bit right data alignment selected
  * @retval HAL status
  */
HAL_StatusTypeDef HAL_DAC_Start_DMA(DAC_HandleTypeDef *hdac, uint32_t Channel, const uint32_t *pData, uint32_t Length,
                                    uint32_t Alignment)
{
 80028ec:	b5f8      	push	{r3, r4, r5, r6, r7, lr}
 80028ee:	9f06      	ldr	r7, [sp, #24]
  HAL_StatusTypeDef status;
  uint32_t tmpreg;

  /* Check the DAC peripheral handle */
  if (hdac == NULL)
 80028f0:	2800      	cmp	r0, #0
 80028f2:	d05e      	beq.n	80029b2 <HAL_DAC_Start_DMA+0xc6>
 80028f4:	460e      	mov	r6, r1
 80028f6:	4611      	mov	r1, r2
  /* Check the parameters */
  assert_param(IS_DAC_CHANNEL(Channel));
  assert_param(IS_DAC_ALIGN(Alignment));

  /* Process locked */
  __HAL_LOCK(hdac);
 80028f8:	7942      	ldrb	r2, [r0, #5]
 80028fa:	4604      	mov	r4, r0
 80028fc:	2a01      	cmp	r2, #1
 80028fe:	d060      	beq.n	80029c2 <HAL_DAC_Start_DMA+0xd6>
 8002900:	2201      	movs	r2, #1

    /* Set the DMA error callback for channel1 */
    hdac->DMA_Handle1->XferErrorCallback = DAC_DMAErrorCh1;

    /* Enable the selected DAC channel1 DMA request */
    SET_BIT(hdac->Instance->CR, DAC_CR_DMAEN1);
 8002902:	6805      	ldr	r5, [r0, #0]
  __HAL_LOCK(hdac);
 8002904:	7142      	strb	r2, [r0, #5]
  hdac->State = HAL_DAC_STATE_BUSY;
 8002906:	2202      	movs	r2, #2
 8002908:	7102      	strb	r2, [r0, #4]
    SET_BIT(hdac->Instance->CR, DAC_CR_DMAEN1);
 800290a:	682a      	ldr	r2, [r5, #0]
  if (Channel == DAC_CHANNEL_1)
 800290c:	bb3e      	cbnz	r6, 800295e <HAL_DAC_Start_DMA+0x72>
    hdac->DMA_Handle1->XferCpltCallback = DAC_DMAConvCpltCh1;
 800290e:	6880      	ldr	r0, [r0, #8]
    SET_BIT(hdac->Instance->CR, DAC_CR_DMAEN1);
 8002910:	f442 5280 	orr.w	r2, r2, #4096	@ 0x1000
    hdac->DMA_Handle1->XferCpltCallback = DAC_DMAConvCpltCh1;
 8002914:	f8df c0b0 	ldr.w	ip, [pc, #176]	@ 80029c8 <HAL_DAC_Start_DMA+0xdc>
 8002918:	f8c0 c03c 	str.w	ip, [r0, #60]	@ 0x3c
    hdac->DMA_Handle1->XferHalfCpltCallback = DAC_DMAHalfConvCpltCh1;
 800291c:	f8df c0ac 	ldr.w	ip, [pc, #172]	@ 80029cc <HAL_DAC_Start_DMA+0xe0>
 8002920:	f8c0 c040 	str.w	ip, [r0, #64]	@ 0x40
    hdac->DMA_Handle1->XferErrorCallback = DAC_DMAErrorCh1;
 8002924:	f8df c0a8 	ldr.w	ip, [pc, #168]	@ 80029d0 <HAL_DAC_Start_DMA+0xe4>
 8002928:	f8c0 c04c 	str.w	ip, [r0, #76]	@ 0x4c
    SET_BIT(hdac->Instance->CR, DAC_CR_DMAEN1);
 800292c:	602a      	str	r2, [r5, #0]

    /* Case of use of channel 1 */
    switch (Alignment)
 800292e:	2f00      	cmp	r7, #0
 8002930:	d044      	beq.n	80029bc <HAL_DAC_Start_DMA+0xd0>
 8002932:	2f04      	cmp	r7, #4
 8002934:	d137      	bne.n	80029a6 <HAL_DAC_Start_DMA+0xba>
        /* Get DHR12R1 address */
        tmpreg = (uint32_t)&hdac->Instance->DHR12R1;
        break;
      case DAC_ALIGN_12B_L:
        /* Get DHR12L1 address */
        tmpreg = (uint32_t)&hdac->Instance->DHR12L1;
 8002936:	f105 020c 	add.w	r2, r5, #12
  }

  if (Channel == DAC_CHANNEL_1)
  {
    /* Enable the DAC DMA underrun interrupt */
    __HAL_DAC_ENABLE_IT(hdac, DAC_IT_DMAUDR1);
 800293a:	682f      	ldr	r7, [r5, #0]
 800293c:	f447 5700 	orr.w	r7, r7, #8192	@ 0x2000
 8002940:	602f      	str	r7, [r5, #0]

    /* Enable the DMA Stream */
    status = HAL_DMA_Start_IT(hdac->DMA_Handle1, (uint32_t)pData, tmpreg, Length);
 8002942:	f000 fce7 	bl	8003314 <HAL_DMA_Start_IT>
    status = HAL_DMA_Start_IT(hdac->DMA_Handle2, (uint32_t)pData, tmpreg, Length);
  }


  /* Process Unlocked */
  __HAL_UNLOCK(hdac);
 8002946:	2300      	movs	r3, #0
 8002948:	7163      	strb	r3, [r4, #5]

  if (status == HAL_OK)
 800294a:	bb38      	cbnz	r0, 800299c <HAL_DAC_Start_DMA+0xb0>
  {
    /* Enable the Peripheral */
    __HAL_DAC_ENABLE(hdac, Channel);
 800294c:	6822      	ldr	r2, [r4, #0]
 800294e:	f006 0110 	and.w	r1, r6, #16
 8002952:	2301      	movs	r3, #1
 8002954:	6814      	ldr	r4, [r2, #0]
 8002956:	408b      	lsls	r3, r1
 8002958:	4323      	orrs	r3, r4
 800295a:	6013      	str	r3, [r2, #0]
    hdac->ErrorCode |= HAL_DAC_ERROR_DMA;
  }

  /* Return function status */
  return status;
}
 800295c:	bdf8      	pop	{r3, r4, r5, r6, r7, pc}
    hdac->DMA_Handle2->XferCpltCallback = DAC_DMAConvCpltCh2;
 800295e:	68c0      	ldr	r0, [r0, #12]
    SET_BIT(hdac->Instance->CR, DAC_CR_DMAEN2);
 8002960:	f042 5280 	orr.w	r2, r2, #268435456	@ 0x10000000
    hdac->DMA_Handle2->XferCpltCallback = DAC_DMAConvCpltCh2;
 8002964:	f8df c06c 	ldr.w	ip, [pc, #108]	@ 80029d4 <HAL_DAC_Start_DMA+0xe8>
 8002968:	f8c0 c03c 	str.w	ip, [r0, #60]	@ 0x3c
    hdac->DMA_Handle2->XferHalfCpltCallback = DAC_DMAHalfConvCpltCh2;
 800296c:	f8df c068 	ldr.w	ip, [pc, #104]	@ 80029d8 <HAL_DAC_Start_DMA+0xec>
 8002970:	f8c0 c040 	str.w	ip, [r0, #64]	@ 0x40
    hdac->DMA_Handle2->XferErrorCallback = DAC_DMAErrorCh2;
 8002974:	f8df c064 	ldr.w	ip, [pc, #100]	@ 80029dc <HAL_DAC_Start_DMA+0xf0>
 8002978:	f8c0 c04c 	str.w	ip, [r0, #76]	@ 0x4c
    SET_BIT(hdac->Instance->CR, DAC_CR_DMAEN2);
 800297c:	602a      	str	r2, [r5, #0]
    switch (Alignment)
 800297e:	b1d7      	cbz	r7, 80029b6 <HAL_DAC_Start_DMA+0xca>
 8002980:	2f04      	cmp	r7, #4
 8002982:	d113      	bne.n	80029ac <HAL_DAC_Start_DMA+0xc0>
        tmpreg = (uint32_t)&hdac->Instance->DHR12L2;
 8002984:	f105 0218 	add.w	r2, r5, #24
    __HAL_DAC_ENABLE_IT(hdac, DAC_IT_DMAUDR2);
 8002988:	682f      	ldr	r7, [r5, #0]
 800298a:	f047 5700 	orr.w	r7, r7, #536870912	@ 0x20000000
 800298e:	602f      	str	r7, [r5, #0]
    status = HAL_DMA_Start_IT(hdac->DMA_Handle2, (uint32_t)pData, tmpreg, Length);
 8002990:	f000 fcc0 	bl	8003314 <HAL_DMA_Start_IT>
  __HAL_UNLOCK(hdac);
 8002994:	2300      	movs	r3, #0
 8002996:	7163      	strb	r3, [r4, #5]
  if (status == HAL_OK)
 8002998:	2800      	cmp	r0, #0
 800299a:	d0d7      	beq.n	800294c <HAL_DAC_Start_DMA+0x60>
    hdac->ErrorCode |= HAL_DAC_ERROR_DMA;
 800299c:	6923      	ldr	r3, [r4, #16]
 800299e:	f043 0304 	orr.w	r3, r3, #4
 80029a2:	6123      	str	r3, [r4, #16]
}
 80029a4:	bdf8      	pop	{r3, r4, r5, r6, r7, pc}
        tmpreg = (uint32_t)&hdac->Instance->DHR8R1;
 80029a6:	f105 0210 	add.w	r2, r5, #16
  if (Channel == DAC_CHANNEL_1)
 80029aa:	e7c6      	b.n	800293a <HAL_DAC_Start_DMA+0x4e>
        tmpreg = (uint32_t)&hdac->Instance->DHR8R2;
 80029ac:	f105 021c 	add.w	r2, r5, #28
  if (Channel == DAC_CHANNEL_1)
 80029b0:	e7ea      	b.n	8002988 <HAL_DAC_Start_DMA+0x9c>
    return HAL_ERROR;
 80029b2:	2001      	movs	r0, #1
}
 80029b4:	bdf8      	pop	{r3, r4, r5, r6, r7, pc}
        tmpreg = (uint32_t)&hdac->Instance->DHR12R2;
 80029b6:	f105 0214 	add.w	r2, r5, #20
  if (Channel == DAC_CHANNEL_1)
 80029ba:	e7e5      	b.n	8002988 <HAL_DAC_Start_DMA+0x9c>
        tmpreg = (uint32_t)&hdac->Instance->DHR12R1;
 80029bc:	f105 0208 	add.w	r2, r5, #8
  if (Channel == DAC_CHANNEL_1)
 80029c0:	e7bb      	b.n	800293a <HAL_DAC_Start_DMA+0x4e>
  __HAL_LOCK(hdac);
 80029c2:	2002      	movs	r0, #2
}
 80029c4:	bdf8      	pop	{r3, r4, r5, r6, r7, pc}
 80029c6:	bf00      	nop
 80029c8:	080029e5 	.word	0x080029e5
 80029cc:	080029f9 	.word	0x080029f9
 80029d0:	08002a09 	.word	0x08002a09
 80029d4:	08002be1 	.word	0x08002be1
 80029d8:	08002bf5 	.word	0x08002bf5
 80029dc:	08002c05 	.word	0x08002c05

080029e0 <HAL_DAC_ConvCpltCallbackCh1>:
  * @brief  Conversion complete callback in non-blocking mode for Channel1
  * @param  hdac pointer to a DAC_HandleTypeDef structure that contains
  *         the configuration information for the specified DAC.
  * @retval None
  */
__weak void HAL_DAC_ConvCpltCallbackCh1(DAC_HandleTypeDef *hdac)
 80029e0:	4770      	bx	lr
 80029e2:	bf00      	nop

080029e4 <DAC_DMAConvCpltCh1>:
  * @param  hdma pointer to a DMA_HandleTypeDef structure that contains
  *                the configuration information for the specified DMA module.
  * @retval None
  */
void DAC_DMAConvCpltCh1(DMA_HandleTypeDef *hdma)
{
 80029e4:	b510      	push	{r4, lr}
  DAC_HandleTypeDef *hdac = (DAC_HandleTypeDef *)((DMA_HandleTypeDef *)hdma)->Parent;
 80029e6:	6b84      	ldr	r4, [r0, #56]	@ 0x38

#if (USE_HAL_DAC_REGISTER_CALLBACKS == 1)
  hdac->ConvCpltCallbackCh1(hdac);
#else
  HAL_DAC_ConvCpltCallbackCh1(hdac);
 80029e8:	4620      	mov	r0, r4
 80029ea:	f7ff fff9 	bl	80029e0 <HAL_DAC_ConvCpltCallbackCh1>
#endif /* USE_HAL_DAC_REGISTER_CALLBACKS */

  hdac->State = HAL_DAC_STATE_READY;
 80029ee:	2301      	movs	r3, #1
 80029f0:	7123      	strb	r3, [r4, #4]
}
 80029f2:	bd10      	pop	{r4, pc}

080029f4 <HAL_DAC_ConvHalfCpltCallbackCh1>:
__weak void HAL_DAC_ConvHalfCpltCallbackCh1(DAC_HandleTypeDef *hdac)
 80029f4:	4770      	bx	lr
 80029f6:	bf00      	nop

080029f8 <DAC_DMAHalfConvCpltCh1>:
  DAC_HandleTypeDef *hdac = (DAC_HandleTypeDef *)((DMA_HandleTypeDef *)hdma)->Parent;
  /* Conversion complete callback */
#if (USE_HAL_DAC_REGISTER_CALLBACKS == 1)
  hdac->ConvHalfCpltCallbackCh1(hdac);
#else
  HAL_DAC_ConvHalfCpltCallbackCh1(hdac);
 80029f8:	6b80      	ldr	r0, [r0, #56]	@ 0x38
{
 80029fa:	b508      	push	{r3, lr}
  HAL_DAC_ConvHalfCpltCallbackCh1(hdac);
 80029fc:	f7ff fffa 	bl	80029f4 <HAL_DAC_ConvHalfCpltCallbackCh1>
#endif  /* USE_HAL_DAC_REGISTER_CALLBACKS */
}
 8002a00:	bd08      	pop	{r3, pc}
 8002a02:	bf00      	nop

08002a04 <HAL_DAC_ErrorCallbackCh1>:
__weak void HAL_DAC_ErrorCallbackCh1(DAC_HandleTypeDef *hdac)
 8002a04:	4770      	bx	lr
 8002a06:	bf00      	nop

08002a08 <DAC_DMAErrorCh1>:
  * @param  hdma pointer to a DMA_HandleTypeDef structure that contains
  *                the configuration information for the specified DMA module.
  * @retval None
  */
void DAC_DMAErrorCh1(DMA_HandleTypeDef *hdma)
{
 8002a08:	b510      	push	{r4, lr}
  DAC_HandleTypeDef *hdac = (DAC_HandleTypeDef *)((DMA_HandleTypeDef *)hdma)->Parent;
 8002a0a:	6b84      	ldr	r4, [r0, #56]	@ 0x38

  /* Set DAC error code to DMA error */
  hdac->ErrorCode |= HAL_DAC_ERROR_DMA;
 8002a0c:	6923      	ldr	r3, [r4, #16]

#if (USE_HAL_DAC_REGISTER_CALLBACKS == 1)
  hdac->ErrorCallbackCh1(hdac);
#else
  HAL_DAC_ErrorCallbackCh1(hdac);
 8002a0e:	4620      	mov	r0, r4
  hdac->ErrorCode |= HAL_DAC_ERROR_DMA;
 8002a10:	f043 0304 	orr.w	r3, r3, #4
 8002a14:	6123      	str	r3, [r4, #16]
  HAL_DAC_ErrorCallbackCh1(hdac);
 8002a16:	f7ff fff5 	bl	8002a04 <HAL_DAC_ErrorCallbackCh1>
#endif /* USE_HAL_DAC_REGISTER_CALLBACKS */

  hdac->State = HAL_DAC_STATE_READY;
 8002a1a:	2301      	movs	r3, #1
 8002a1c:	7123      	strb	r3, [r4, #4]
}
 8002a1e:	bd10      	pop	{r4, pc}

08002a20 <HAL_DAC_DMAUnderrunCallbackCh1>:
__weak void HAL_DAC_DMAUnderrunCallbackCh1(DAC_HandleTypeDef *hdac)
 8002a20:	4770      	bx	lr
 8002a22:	bf00      	nop

08002a24 <HAL_DAC_IRQHandler>:
  uint32_t itsource = hdac->Instance->CR;
 8002a24:	6803      	ldr	r3, [r0, #0]
{
 8002a26:	b570      	push	{r4, r5, r6, lr}
  uint32_t itsource = hdac->Instance->CR;
 8002a28:	681d      	ldr	r5, [r3, #0]
{
 8002a2a:	4604      	mov	r4, r0
  uint32_t itflag   = hdac->Instance->SR;
 8002a2c:	6b5e      	ldr	r6, [r3, #52]	@ 0x34
  if ((itsource & DAC_IT_DMAUDR1) == DAC_IT_DMAUDR1)
 8002a2e:	04aa      	lsls	r2, r5, #18
 8002a30:	d501      	bpl.n	8002a36 <HAL_DAC_IRQHandler+0x12>
    if ((itflag & DAC_FLAG_DMAUDR1) == DAC_FLAG_DMAUDR1)
 8002a32:	04b1      	lsls	r1, r6, #18
 8002a34:	d417      	bmi.n	8002a66 <HAL_DAC_IRQHandler+0x42>
  if ((itsource & DAC_IT_DMAUDR2) == DAC_IT_DMAUDR2)
 8002a36:	00aa      	lsls	r2, r5, #2
 8002a38:	d501      	bpl.n	8002a3e <HAL_DAC_IRQHandler+0x1a>
    if ((itflag & DAC_FLAG_DMAUDR2) == DAC_FLAG_DMAUDR2)
 8002a3a:	00b3      	lsls	r3, r6, #2
 8002a3c:	d400      	bmi.n	8002a40 <HAL_DAC_IRQHandler+0x1c>
}
 8002a3e:	bd70      	pop	{r4, r5, r6, pc}
      hdac->State = HAL_DAC_STATE_ERROR;
 8002a40:	2204      	movs	r2, #4
      __HAL_DAC_CLEAR_FLAG(hdac, DAC_FLAG_DMAUDR2);
 8002a42:	6823      	ldr	r3, [r4, #0]
 8002a44:	f04f 5100 	mov.w	r1, #536870912	@ 0x20000000
      HAL_DACEx_DMAUnderrunCallbackCh2(hdac);
 8002a48:	4620      	mov	r0, r4
      hdac->State = HAL_DAC_STATE_ERROR;
 8002a4a:	7122      	strb	r2, [r4, #4]
      SET_BIT(hdac->ErrorCode, HAL_DAC_ERROR_DMAUNDERRUNCH2);
 8002a4c:	6922      	ldr	r2, [r4, #16]
 8002a4e:	f042 0202 	orr.w	r2, r2, #2
 8002a52:	6122      	str	r2, [r4, #16]
      __HAL_DAC_CLEAR_FLAG(hdac, DAC_FLAG_DMAUDR2);
 8002a54:	6359      	str	r1, [r3, #52]	@ 0x34
      __HAL_DAC_DISABLE_IT(hdac, DAC_CR_DMAEN2);
 8002a56:	681a      	ldr	r2, [r3, #0]
 8002a58:	f022 5280 	bic.w	r2, r2, #268435456	@ 0x10000000
}
 8002a5c:	e8bd 4070 	ldmia.w	sp!, {r4, r5, r6, lr}
      __HAL_DAC_DISABLE_IT(hdac, DAC_CR_DMAEN2);
 8002a60:	601a      	str	r2, [r3, #0]
      HAL_DACEx_DMAUnderrunCallbackCh2(hdac);
 8002a62:	f000 b8db 	b.w	8002c1c <HAL_DACEx_DMAUnderrunCallbackCh2>
      hdac->State = HAL_DAC_STATE_ERROR;
 8002a66:	2204      	movs	r2, #4
 8002a68:	7102      	strb	r2, [r0, #4]
      SET_BIT(hdac->ErrorCode, HAL_DAC_ERROR_DMAUNDERRUNCH1);
 8002a6a:	6902      	ldr	r2, [r0, #16]
 8002a6c:	f042 0201 	orr.w	r2, r2, #1
 8002a70:	6102      	str	r2, [r0, #16]
      __HAL_DAC_CLEAR_FLAG(hdac, DAC_FLAG_DMAUDR1);
 8002a72:	f44f 5200 	mov.w	r2, #8192	@ 0x2000
 8002a76:	635a      	str	r2, [r3, #52]	@ 0x34
      __HAL_DAC_DISABLE_IT(hdac, DAC_CR_DMAEN1);
 8002a78:	681a      	ldr	r2, [r3, #0]
 8002a7a:	f422 5280 	bic.w	r2, r2, #4096	@ 0x1000
 8002a7e:	601a      	str	r2, [r3, #0]
      HAL_DAC_DMAUnderrunCallbackCh1(hdac);
 8002a80:	f7ff ffce 	bl	8002a20 <HAL_DAC_DMAUnderrunCallbackCh1>
 8002a84:	e7d7      	b.n	8002a36 <HAL_DAC_IRQHandler+0x12>
 8002a86:	bf00      	nop

08002a88 <HAL_DAC_ConfigChannel>:
  if ((hdac == NULL) || (sConfig == NULL))
 8002a88:	2800      	cmp	r0, #0
 8002a8a:	f000 8086 	beq.w	8002b9a <HAL_DAC_ConfigChannel+0x112>
{
 8002a8e:	e92d 41f0 	stmdb	sp!, {r4, r5, r6, r7, r8, lr}
 8002a92:	460d      	mov	r5, r1
  if ((hdac == NULL) || (sConfig == NULL))
 8002a94:	2900      	cmp	r1, #0
 8002a96:	d04d      	beq.n	8002b34 <HAL_DAC_ConfigChannel+0xac>
  __HAL_LOCK(hdac);
 8002a98:	7943      	ldrb	r3, [r0, #5]
 8002a9a:	4604      	mov	r4, r0
  if ((sConfig->DAC_SampleAndHold) == DAC_SAMPLEANDHOLD_ENABLE)
 8002a9c:	6809      	ldr	r1, [r1, #0]
  __HAL_LOCK(hdac);
 8002a9e:	2b01      	cmp	r3, #1
 8002aa0:	d079      	beq.n	8002b96 <HAL_DAC_ConfigChannel+0x10e>
 8002aa2:	2301      	movs	r3, #1
  if (sConfig->DAC_SampleAndHold == DAC_SAMPLEANDHOLD_ENABLE)
 8002aa4:	2904      	cmp	r1, #4
 8002aa6:	4616      	mov	r6, r2
  __HAL_LOCK(hdac);
 8002aa8:	7143      	strb	r3, [r0, #5]
  hdac->State = HAL_DAC_STATE_BUSY;
 8002aaa:	f04f 0302 	mov.w	r3, #2
 8002aae:	7103      	strb	r3, [r0, #4]
  if (sConfig->DAC_SampleAndHold == DAC_SAMPLEANDHOLD_ENABLE)
 8002ab0:	d043      	beq.n	8002b3a <HAL_DAC_ConfigChannel+0xb2>
    MODIFY_REG(hdac->Instance->SHHR, DAC_SHHR_THOLD1 << (Channel & 0x10UL),
 8002ab2:	f002 0210 	and.w	r2, r2, #16
    tmpreg1 = hdac->Instance->CCR;
 8002ab6:	6803      	ldr	r3, [r0, #0]
  if (sConfig->DAC_UserTrimming == DAC_TRIMMING_USER)
 8002ab8:	6928      	ldr	r0, [r5, #16]
 8002aba:	2801      	cmp	r0, #1
 8002abc:	d108      	bne.n	8002ad0 <HAL_DAC_ConfigChannel+0x48>
    tmpreg1 &= ~(((uint32_t)(DAC_CCR_OTRIM1)) << (Channel & 0x10UL));
 8002abe:	201f      	movs	r0, #31
    tmpreg1 = hdac->Instance->CCR;
 8002ac0:	6b9e      	ldr	r6, [r3, #56]	@ 0x38
    tmpreg1 &= ~(((uint32_t)(DAC_CCR_OTRIM1)) << (Channel & 0x10UL));
 8002ac2:	4090      	lsls	r0, r2
 8002ac4:	ea26 0600 	bic.w	r6, r6, r0
    tmpreg1 |= tmpreg2 << (Channel & 0x10UL);
 8002ac8:	6968      	ldr	r0, [r5, #20]
 8002aca:	4090      	lsls	r0, r2
 8002acc:	4330      	orrs	r0, r6
    hdac->Instance->CCR = tmpreg1;
 8002ace:	6398      	str	r0, [r3, #56]	@ 0x38
  tmpreg1 &= ~(((uint32_t)(DAC_MCR_MODE1)) << (Channel & 0x10UL));
 8002ad0:	2007      	movs	r0, #7
  tmpreg1 = hdac->Instance->MCR;
 8002ad2:	6bde      	ldr	r6, [r3, #60]	@ 0x3c
  tmpreg1 &= ~(((uint32_t)(DAC_MCR_MODE1)) << (Channel & 0x10UL));
 8002ad4:	4090      	lsls	r0, r2
 8002ad6:	ea26 0600 	bic.w	r6, r6, r0
    if (sConfig->DAC_OutputBuffer == DAC_OUTPUTBUFFER_ENABLE)
 8002ada:	e9d5 7002 	ldrd	r7, r0, [r5, #8]
  if (sConfig->DAC_ConnectOnChipPeripheral == DAC_CHIPCONNECT_EXTERNAL)
 8002ade:	2801      	cmp	r0, #1
 8002ae0:	d055      	beq.n	8002b8e <HAL_DAC_ConfigChannel+0x106>
  else if (sConfig->DAC_ConnectOnChipPeripheral == DAC_CHIPCONNECT_INTERNAL)
 8002ae2:	2802      	cmp	r0, #2
 8002ae4:	d055      	beq.n	8002b92 <HAL_DAC_ConfigChannel+0x10a>
    if (sConfig->DAC_OutputBuffer == DAC_OUTPUTBUFFER_ENABLE)
 8002ae6:	fab7 f087 	clz	r0, r7
 8002aea:	0940      	lsrs	r0, r0, #5
  tmpreg2 = (sConfig->DAC_SampleAndHold | sConfig->DAC_OutputBuffer | connectOnChip);
 8002aec:	4339      	orrs	r1, r7
 8002aee:	4301      	orrs	r1, r0
  tmpreg1 |= tmpreg2 << (Channel & 0x10UL);
 8002af0:	6868      	ldr	r0, [r5, #4]
  CLEAR_BIT(hdac->Instance->CR, DAC_CR_CEN1 << (Channel & 0x10UL));
 8002af2:	f44f 4580 	mov.w	r5, #16384	@ 0x4000
  tmpreg1 |= tmpreg2 << (Channel & 0x10UL);
 8002af6:	4091      	lsls	r1, r2
  tmpreg1 |= tmpreg2 << (Channel & 0x10UL);
 8002af8:	4090      	lsls	r0, r2
  CLEAR_BIT(hdac->Instance->CR, DAC_CR_CEN1 << (Channel & 0x10UL));
 8002afa:	4095      	lsls	r5, r2
  tmpreg1 |= tmpreg2 << (Channel & 0x10UL);
 8002afc:	4331      	orrs	r1, r6
  hdac->State = HAL_DAC_STATE_READY;
 8002afe:	2601      	movs	r6, #1
  hdac->Instance->MCR = tmpreg1;
 8002b00:	63d9      	str	r1, [r3, #60]	@ 0x3c
  CLEAR_BIT(hdac->Instance->CR, DAC_CR_CEN1 << (Channel & 0x10UL));
 8002b02:	6819      	ldr	r1, [r3, #0]
 8002b04:	ea21 0105 	bic.w	r1, r1, r5
  tmpreg1 &= ~(((uint32_t)(DAC_CR_MAMP1 | DAC_CR_WAVE1 | DAC_CR_TSEL1 | DAC_CR_TEN1)) << (Channel & 0x10UL));
 8002b08:	f640 75fe 	movw	r5, #4094	@ 0xffe
  CLEAR_BIT(hdac->Instance->CR, DAC_CR_CEN1 << (Channel & 0x10UL));
 8002b0c:	6019      	str	r1, [r3, #0]
  tmpreg1 &= ~(((uint32_t)(DAC_CR_MAMP1 | DAC_CR_WAVE1 | DAC_CR_TSEL1 | DAC_CR_TEN1)) << (Channel & 0x10UL));
 8002b0e:	4095      	lsls	r5, r2
  tmpreg1 = hdac->Instance->CR;
 8002b10:	6819      	ldr	r1, [r3, #0]
  tmpreg1 &= ~(((uint32_t)(DAC_CR_MAMP1 | DAC_CR_WAVE1 | DAC_CR_TSEL1 | DAC_CR_TEN1)) << (Channel & 0x10UL));
 8002b12:	ea21 0105 	bic.w	r1, r1, r5
  __HAL_UNLOCK(hdac);
 8002b16:	2500      	movs	r5, #0
  tmpreg1 |= tmpreg2 << (Channel & 0x10UL);
 8002b18:	4301      	orrs	r1, r0
  CLEAR_BIT(hdac->Instance->CR, (DAC_CR_WAVE1 << (Channel & 0x10UL)));
 8002b1a:	20c0      	movs	r0, #192	@ 0xc0
  hdac->Instance->CR = tmpreg1;
 8002b1c:	6019      	str	r1, [r3, #0]
  CLEAR_BIT(hdac->Instance->CR, (DAC_CR_WAVE1 << (Channel & 0x10UL)));
 8002b1e:	fa00 f102 	lsl.w	r1, r0, r2
 8002b22:	681a      	ldr	r2, [r3, #0]
  return status;
 8002b24:	4628      	mov	r0, r5
  CLEAR_BIT(hdac->Instance->CR, (DAC_CR_WAVE1 << (Channel & 0x10UL)));
 8002b26:	ea22 0201 	bic.w	r2, r2, r1
 8002b2a:	601a      	str	r2, [r3, #0]
  hdac->State = HAL_DAC_STATE_READY;
 8002b2c:	7126      	strb	r6, [r4, #4]
  __HAL_UNLOCK(hdac);
 8002b2e:	7165      	strb	r5, [r4, #5]
}
 8002b30:	e8bd 81f0 	ldmia.w	sp!, {r4, r5, r6, r7, r8, pc}
    return HAL_ERROR;
 8002b34:	2001      	movs	r0, #1
}
 8002b36:	e8bd 81f0 	ldmia.w	sp!, {r4, r5, r6, r7, r8, pc}
    tickstart = HAL_GetTick();
 8002b3a:	f7fe fec5 	bl	80018c8 <HAL_GetTick>
      while (((hdac->Instance->SR) & DAC_SR_BWST1) != 0UL)
 8002b3e:	6823      	ldr	r3, [r4, #0]
    tickstart = HAL_GetTick();
 8002b40:	4607      	mov	r7, r0
    if (Channel == DAC_CHANNEL_1)
 8002b42:	b9be      	cbnz	r6, 8002b74 <HAL_DAC_ConfigChannel+0xec>
      while (((hdac->Instance->SR) & DAC_SR_BWST1) != 0UL)
 8002b44:	f8df 8090 	ldr.w	r8, [pc, #144]	@ 8002bd8 <HAL_DAC_ConfigChannel+0x150>
 8002b48:	6b5a      	ldr	r2, [r3, #52]	@ 0x34
 8002b4a:	ea12 0f08 	tst.w	r2, r8
 8002b4e:	d026      	beq.n	8002b9e <HAL_DAC_ConfigChannel+0x116>
        if ((HAL_GetTick() - tickstart) > TIMEOUT_DAC_CALIBCONFIG)
 8002b50:	f7fe feba 	bl	80018c8 <HAL_GetTick>
 8002b54:	1bc0      	subs	r0, r0, r7
          if (((hdac->Instance->SR) & DAC_SR_BWST1) != 0UL)
 8002b56:	6823      	ldr	r3, [r4, #0]
        if ((HAL_GetTick() - tickstart) > TIMEOUT_DAC_CALIBCONFIG)
 8002b58:	2801      	cmp	r0, #1
 8002b5a:	d9f5      	bls.n	8002b48 <HAL_DAC_ConfigChannel+0xc0>
          if (((hdac->Instance->SR) & DAC_SR_BWST1) != 0UL)
 8002b5c:	6b5a      	ldr	r2, [r3, #52]	@ 0x34
 8002b5e:	ea12 0f08 	tst.w	r2, r8
 8002b62:	d0f1      	beq.n	8002b48 <HAL_DAC_ConfigChannel+0xc0>
            SET_BIT(hdac->ErrorCode, HAL_DAC_ERROR_TIMEOUT);
 8002b64:	6923      	ldr	r3, [r4, #16]
            hdac->State = HAL_DAC_STATE_TIMEOUT;
 8002b66:	2203      	movs	r2, #3
            return HAL_TIMEOUT;
 8002b68:	2003      	movs	r0, #3
            SET_BIT(hdac->ErrorCode, HAL_DAC_ERROR_TIMEOUT);
 8002b6a:	f043 0308 	orr.w	r3, r3, #8
 8002b6e:	6123      	str	r3, [r4, #16]
            hdac->State = HAL_DAC_STATE_TIMEOUT;
 8002b70:	7122      	strb	r2, [r4, #4]
            return HAL_TIMEOUT;
 8002b72:	e7dd      	b.n	8002b30 <HAL_DAC_ConfigChannel+0xa8>
      while (((hdac->Instance->SR) & DAC_SR_BWST2) != 0UL)
 8002b74:	6b5a      	ldr	r2, [r3, #52]	@ 0x34
 8002b76:	2a00      	cmp	r2, #0
 8002b78:	da2a      	bge.n	8002bd0 <HAL_DAC_ConfigChannel+0x148>
        if ((HAL_GetTick() - tickstart) > TIMEOUT_DAC_CALIBCONFIG)
 8002b7a:	f7fe fea5 	bl	80018c8 <HAL_GetTick>
 8002b7e:	1bc0      	subs	r0, r0, r7
          if (((hdac->Instance->SR) & DAC_SR_BWST2) != 0UL)
 8002b80:	6823      	ldr	r3, [r4, #0]
        if ((HAL_GetTick() - tickstart) > TIMEOUT_DAC_CALIBCONFIG)
 8002b82:	2801      	cmp	r0, #1
 8002b84:	d9f6      	bls.n	8002b74 <HAL_DAC_ConfigChannel+0xec>
          if (((hdac->Instance->SR) & DAC_SR_BWST2) != 0UL)
 8002b86:	6b5a      	ldr	r2, [r3, #52]	@ 0x34
 8002b88:	2a00      	cmp	r2, #0
 8002b8a:	daf3      	bge.n	8002b74 <HAL_DAC_ConfigChannel+0xec>
 8002b8c:	e7ea      	b.n	8002b64 <HAL_DAC_ConfigChannel+0xdc>
    connectOnChip = 0x00000000UL;
 8002b8e:	2000      	movs	r0, #0
 8002b90:	e7ac      	b.n	8002aec <HAL_DAC_ConfigChannel+0x64>
    connectOnChip = DAC_MCR_MODE1_0;
 8002b92:	2001      	movs	r0, #1
 8002b94:	e7aa      	b.n	8002aec <HAL_DAC_ConfigChannel+0x64>
  __HAL_LOCK(hdac);
 8002b96:	2002      	movs	r0, #2
 8002b98:	e7ca      	b.n	8002b30 <HAL_DAC_ConfigChannel+0xa8>
    return HAL_ERROR;
 8002b9a:	2001      	movs	r0, #1
}
 8002b9c:	4770      	bx	lr
      hdac->Instance->SHSR1 = sConfig->DAC_SampleAndHoldConfig.DAC_SampleTime;
 8002b9e:	69aa      	ldr	r2, [r5, #24]
 8002ba0:	641a      	str	r2, [r3, #64]	@ 0x40
    MODIFY_REG(hdac->Instance->SHHR, DAC_SHHR_THOLD1 << (Channel & 0x10UL),
 8002ba2:	f006 0210 	and.w	r2, r6, #16
 8002ba6:	f240 30ff 	movw	r0, #1023	@ 0x3ff
 8002baa:	6c99      	ldr	r1, [r3, #72]	@ 0x48
 8002bac:	4090      	lsls	r0, r2
 8002bae:	ea21 0100 	bic.w	r1, r1, r0
 8002bb2:	69e8      	ldr	r0, [r5, #28]
 8002bb4:	4090      	lsls	r0, r2
 8002bb6:	4301      	orrs	r1, r0
    MODIFY_REG(hdac->Instance->SHRR, DAC_SHRR_TREFRESH1 << (Channel & 0x10UL),
 8002bb8:	20ff      	movs	r0, #255	@ 0xff
    MODIFY_REG(hdac->Instance->SHHR, DAC_SHHR_THOLD1 << (Channel & 0x10UL),
 8002bba:	6499      	str	r1, [r3, #72]	@ 0x48
    MODIFY_REG(hdac->Instance->SHRR, DAC_SHRR_TREFRESH1 << (Channel & 0x10UL),
 8002bbc:	4090      	lsls	r0, r2
 8002bbe:	6cd9      	ldr	r1, [r3, #76]	@ 0x4c
 8002bc0:	ea21 0100 	bic.w	r1, r1, r0
 8002bc4:	6a28      	ldr	r0, [r5, #32]
 8002bc6:	4090      	lsls	r0, r2
 8002bc8:	4301      	orrs	r1, r0
 8002bca:	64d9      	str	r1, [r3, #76]	@ 0x4c
  tmpreg2 = (sConfig->DAC_SampleAndHold | sConfig->DAC_OutputBuffer | connectOnChip);
 8002bcc:	6829      	ldr	r1, [r5, #0]
 8002bce:	e773      	b.n	8002ab8 <HAL_DAC_ConfigChannel+0x30>
      hdac->Instance->SHSR2 = sConfig->DAC_SampleAndHoldConfig.DAC_SampleTime;
 8002bd0:	69aa      	ldr	r2, [r5, #24]
 8002bd2:	645a      	str	r2, [r3, #68]	@ 0x44
 8002bd4:	e7e5      	b.n	8002ba2 <HAL_DAC_ConfigChannel+0x11a>
 8002bd6:	bf00      	nop
 8002bd8:	20008000 	.word	0x20008000

08002bdc <HAL_DACEx_ConvCpltCallbackCh2>:
  UNUSED(hdac);

  /* NOTE : This function should not be modified, when the callback is needed,
            the HAL_DACEx_ConvCpltCallbackCh2 could be implemented in the user file
   */
}
 8002bdc:	4770      	bx	lr
 8002bde:	bf00      	nop

08002be0 <DAC_DMAConvCpltCh2>:
  * @param  hdma pointer to a DMA_HandleTypeDef structure that contains
  *                the configuration information for the specified DMA module.
  * @retval None
  */
void DAC_DMAConvCpltCh2(DMA_HandleTypeDef *hdma)
{
 8002be0:	b510      	push	{r4, lr}
  DAC_HandleTypeDef *hdac = (DAC_HandleTypeDef *)((DMA_HandleTypeDef *)hdma)->Parent;
 8002be2:	6b84      	ldr	r4, [r0, #56]	@ 0x38

#if (USE_HAL_DAC_REGISTER_CALLBACKS == 1)
  hdac->ConvCpltCallbackCh2(hdac);
#else
  HAL_DACEx_ConvCpltCallbackCh2(hdac);
 8002be4:	4620      	mov	r0, r4
 8002be6:	f7ff fff9 	bl	8002bdc <HAL_DACEx_ConvCpltCallbackCh2>
#endif /* USE_HAL_DAC_REGISTER_CALLBACKS */

  hdac->State = HAL_DAC_STATE_READY;
 8002bea:	2301      	movs	r3, #1
 8002bec:	7123      	strb	r3, [r4, #4]
}
 8002bee:	bd10      	pop	{r4, pc}

08002bf0 <HAL_DACEx_ConvHalfCpltCallbackCh2>:
__weak void HAL_DACEx_ConvHalfCpltCallbackCh2(DAC_HandleTypeDef *hdac)
 8002bf0:	4770      	bx	lr
 8002bf2:	bf00      	nop

08002bf4 <DAC_DMAHalfConvCpltCh2>:
  DAC_HandleTypeDef *hdac = (DAC_HandleTypeDef *)((DMA_HandleTypeDef *)hdma)->Parent;
  /* Conversion complete callback */
#if (USE_HAL_DAC_REGISTER_CALLBACKS == 1)
  hdac->ConvHalfCpltCallbackCh2(hdac);
#else
  HAL_DACEx_ConvHalfCpltCallbackCh2(hdac);
 8002bf4:	6b80      	ldr	r0, [r0, #56]	@ 0x38
{
 8002bf6:	b508      	push	{r3, lr}
  HAL_DACEx_ConvHalfCpltCallbackCh2(hdac);
 8002bf8:	f7ff fffa 	bl	8002bf0 <HAL_DACEx_ConvHalfCpltCallbackCh2>
#endif /* USE_HAL_DAC_REGISTER_CALLBACKS */
}
 8002bfc:	bd08      	pop	{r3, pc}
 8002bfe:	bf00      	nop

08002c00 <HAL_DACEx_ErrorCallbackCh2>:
__weak void HAL_DACEx_ErrorCallbackCh2(DAC_HandleTypeDef *hdac)
 8002c00:	4770      	bx	lr
 8002c02:	bf00      	nop

08002c04 <DAC_DMAErrorCh2>:
  * @param  hdma pointer to a DMA_HandleTypeDef structure that contains
  *                the configuration information for the specified DMA module.
  * @retval None
  */
void DAC_DMAErrorCh2(DMA_HandleTypeDef *hdma)
{
 8002c04:	b510      	push	{r4, lr}
  DAC_HandleTypeDef *hdac = (DAC_HandleTypeDef *)((DMA_HandleTypeDef *)hdma)->Parent;
 8002c06:	6b84      	ldr	r4, [r0, #56]	@ 0x38

  /* Set DAC error code to DMA error */
  hdac->ErrorCode |= HAL_DAC_ERROR_DMA;
 8002c08:	6923      	ldr	r3, [r4, #16]

#if (USE_HAL_DAC_REGISTER_CALLBACKS == 1)
  hdac->ErrorCallbackCh2(hdac);
#else
  HAL_DACEx_ErrorCallbackCh2(hdac);
 8002c0a:	4620      	mov	r0, r4
  hdac->ErrorCode |= HAL_DAC_ERROR_DMA;
 8002c0c:	f043 0304 	orr.w	r3, r3, #4
 8002c10:	6123      	str	r3, [r4, #16]
  HAL_DACEx_ErrorCallbackCh2(hdac);
 8002c12:	f7ff fff5 	bl	8002c00 <HAL_DACEx_ErrorCallbackCh2>
#endif /* USE_HAL_DAC_REGISTER_CALLBACKS */

  hdac->State = HAL_DAC_STATE_READY;
 8002c16:	2301      	movs	r3, #1
 8002c18:	7123      	strb	r3, [r4, #4]
}
 8002c1a:	bd10      	pop	{r4, pc}

08002c1c <HAL_DACEx_DMAUnderrunCallbackCh2>:
__weak void HAL_DACEx_DMAUnderrunCallbackCh2(DAC_HandleTypeDef *hdac)
 8002c1c:	4770      	bx	lr
 8002c1e:	bf00      	nop

08002c20 <DMA_CalcBaseAndBitshift>:
  *                     the configuration information for the specified DMA Stream.
  * @retval Stream base address
  */
static uint32_t DMA_CalcBaseAndBitshift(DMA_HandleTypeDef *hdma)
{
  if(IS_DMA_STREAM_INSTANCE(hdma->Instance) != 0U) /* DMA1 or DMA2 instance */
 8002c20:	4936      	ldr	r1, [pc, #216]	@ (8002cfc <DMA_CalcBaseAndBitshift+0xdc>)
{
 8002c22:	4602      	mov	r2, r0
  if(IS_DMA_STREAM_INSTANCE(hdma->Instance) != 0U) /* DMA1 or DMA2 instance */
 8002c24:	6803      	ldr	r3, [r0, #0]
 8002c26:	428b      	cmp	r3, r1
 8002c28:	d033      	beq.n	8002c92 <DMA_CalcBaseAndBitshift+0x72>
 8002c2a:	3118      	adds	r1, #24
 8002c2c:	1a59      	subs	r1, r3, r1
 8002c2e:	fab1 f181 	clz	r1, r1
 8002c32:	0949      	lsrs	r1, r1, #5
 8002c34:	bb69      	cbnz	r1, 8002c92 <DMA_CalcBaseAndBitshift+0x72>
 8002c36:	4832      	ldr	r0, [pc, #200]	@ (8002d00 <DMA_CalcBaseAndBitshift+0xe0>)
 8002c38:	4283      	cmp	r3, r0
 8002c3a:	d03e      	beq.n	8002cba <DMA_CalcBaseAndBitshift+0x9a>
 8002c3c:	3018      	adds	r0, #24
 8002c3e:	4283      	cmp	r3, r0
 8002c40:	d03e      	beq.n	8002cc0 <DMA_CalcBaseAndBitshift+0xa0>
 8002c42:	3018      	adds	r0, #24
 8002c44:	4283      	cmp	r3, r0
 8002c46:	d034      	beq.n	8002cb2 <DMA_CalcBaseAndBitshift+0x92>
 8002c48:	3018      	adds	r0, #24
 8002c4a:	4283      	cmp	r3, r0
 8002c4c:	d03b      	beq.n	8002cc6 <DMA_CalcBaseAndBitshift+0xa6>
 8002c4e:	3018      	adds	r0, #24
 8002c50:	4283      	cmp	r3, r0
 8002c52:	d03e      	beq.n	8002cd2 <DMA_CalcBaseAndBitshift+0xb2>
 8002c54:	3018      	adds	r0, #24
 8002c56:	4283      	cmp	r3, r0
 8002c58:	d02a      	beq.n	8002cb0 <DMA_CalcBaseAndBitshift+0x90>
 8002c5a:	f500 7056 	add.w	r0, r0, #856	@ 0x358
 8002c5e:	4283      	cmp	r3, r0
 8002c60:	d035      	beq.n	8002cce <DMA_CalcBaseAndBitshift+0xae>
 8002c62:	4928      	ldr	r1, [pc, #160]	@ (8002d04 <DMA_CalcBaseAndBitshift+0xe4>)
 8002c64:	428b      	cmp	r3, r1
 8002c66:	d031      	beq.n	8002ccc <DMA_CalcBaseAndBitshift+0xac>
 8002c68:	3118      	adds	r1, #24
 8002c6a:	428b      	cmp	r3, r1
 8002c6c:	d034      	beq.n	8002cd8 <DMA_CalcBaseAndBitshift+0xb8>
 8002c6e:	3118      	adds	r1, #24
 8002c70:	428b      	cmp	r3, r1
 8002c72:	d034      	beq.n	8002cde <DMA_CalcBaseAndBitshift+0xbe>
 8002c74:	3118      	adds	r1, #24
 8002c76:	428b      	cmp	r3, r1
 8002c78:	d034      	beq.n	8002ce4 <DMA_CalcBaseAndBitshift+0xc4>
 8002c7a:	3118      	adds	r1, #24
 8002c7c:	428b      	cmp	r3, r1
 8002c7e:	d034      	beq.n	8002cea <DMA_CalcBaseAndBitshift+0xca>
 8002c80:	3118      	adds	r1, #24
 8002c82:	428b      	cmp	r3, r1
 8002c84:	d034      	beq.n	8002cf0 <DMA_CalcBaseAndBitshift+0xd0>
 8002c86:	3118      	adds	r1, #24
 8002c88:	428b      	cmp	r3, r1
 8002c8a:	d034      	beq.n	8002cf6 <DMA_CalcBaseAndBitshift+0xd6>
    }
  }
  else /* BDMA instance(s) */
  {
    /* return pointer to ISR and IFCR */
    hdma->StreamBaseAddress = ((uint32_t)((uint32_t*)hdma->Instance) & (uint32_t)(~0xFFU));
 8002c8c:	f023 00ff 	bic.w	r0, r3, #255	@ 0xff
 8002c90:	e011      	b.n	8002cb6 <DMA_CalcBaseAndBitshift+0x96>
    uint32_t stream_number = (((uint32_t)((uint32_t*)hdma->Instance) & 0xFFU) - 16U) / 24U;
 8002c92:	b2db      	uxtb	r3, r3
 8002c94:	491c      	ldr	r1, [pc, #112]	@ (8002d08 <DMA_CalcBaseAndBitshift+0xe8>)
    hdma->StreamIndex = flagBitshiftOffset[stream_number & 0x7U];
 8002c96:	481d      	ldr	r0, [pc, #116]	@ (8002d0c <DMA_CalcBaseAndBitshift+0xec>)
    uint32_t stream_number = (((uint32_t)((uint32_t*)hdma->Instance) & 0xFFU) - 16U) / 24U;
 8002c98:	3b10      	subs	r3, #16
 8002c9a:	fba1 1303 	umull	r1, r3, r1, r3
{
 8002c9e:	b410      	push	{r4}
    uint32_t stream_number = (((uint32_t)((uint32_t*)hdma->Instance) & 0xFFU) - 16U) / 24U;
 8002ca0:	091b      	lsrs	r3, r3, #4
    hdma->StreamIndex = flagBitshiftOffset[stream_number & 0x7U];
 8002ca2:	4c1b      	ldr	r4, [pc, #108]	@ (8002d10 <DMA_CalcBaseAndBitshift+0xf0>)
 8002ca4:	5ce1      	ldrb	r1, [r4, r3]
  }

  return hdma->StreamBaseAddress;
}
 8002ca6:	f85d 4b04 	ldr.w	r4, [sp], #4
      hdma->StreamBaseAddress = ((uint32_t)((uint32_t*)hdma->Instance) & (uint32_t)(~0x3FFU));
 8002caa:	e9c2 0116 	strd	r0, r1, [r2, #88]	@ 0x58
}
 8002cae:	4770      	bx	lr
 8002cb0:	2116      	movs	r1, #22
 8002cb2:	4818      	ldr	r0, [pc, #96]	@ (8002d14 <DMA_CalcBaseAndBitshift+0xf4>)
    hdma->StreamIndex = flagBitshiftOffset[stream_number & 0x7U];
 8002cb4:	65d1      	str	r1, [r2, #92]	@ 0x5c
      hdma->StreamBaseAddress = ((uint32_t)((uint32_t*)hdma->Instance) & (uint32_t)(~0x3FFU));
 8002cb6:	6590      	str	r0, [r2, #88]	@ 0x58
}
 8002cb8:	4770      	bx	lr
 8002cba:	2110      	movs	r1, #16
 8002cbc:	4813      	ldr	r0, [pc, #76]	@ (8002d0c <DMA_CalcBaseAndBitshift+0xec>)
 8002cbe:	e7f9      	b.n	8002cb4 <DMA_CalcBaseAndBitshift+0x94>
 8002cc0:	2116      	movs	r1, #22
 8002cc2:	4812      	ldr	r0, [pc, #72]	@ (8002d0c <DMA_CalcBaseAndBitshift+0xec>)
 8002cc4:	e7f6      	b.n	8002cb4 <DMA_CalcBaseAndBitshift+0x94>
 8002cc6:	2106      	movs	r1, #6
 8002cc8:	4812      	ldr	r0, [pc, #72]	@ (8002d14 <DMA_CalcBaseAndBitshift+0xf4>)
 8002cca:	e7f3      	b.n	8002cb4 <DMA_CalcBaseAndBitshift+0x94>
 8002ccc:	2106      	movs	r1, #6
 8002cce:	4812      	ldr	r0, [pc, #72]	@ (8002d18 <DMA_CalcBaseAndBitshift+0xf8>)
 8002cd0:	e7f0      	b.n	8002cb4 <DMA_CalcBaseAndBitshift+0x94>
 8002cd2:	2110      	movs	r1, #16
 8002cd4:	480f      	ldr	r0, [pc, #60]	@ (8002d14 <DMA_CalcBaseAndBitshift+0xf4>)
 8002cd6:	e7ed      	b.n	8002cb4 <DMA_CalcBaseAndBitshift+0x94>
 8002cd8:	2110      	movs	r1, #16
 8002cda:	480f      	ldr	r0, [pc, #60]	@ (8002d18 <DMA_CalcBaseAndBitshift+0xf8>)
 8002cdc:	e7ea      	b.n	8002cb4 <DMA_CalcBaseAndBitshift+0x94>
 8002cde:	2116      	movs	r1, #22
 8002ce0:	480d      	ldr	r0, [pc, #52]	@ (8002d18 <DMA_CalcBaseAndBitshift+0xf8>)
 8002ce2:	e7e7      	b.n	8002cb4 <DMA_CalcBaseAndBitshift+0x94>
 8002ce4:	2100      	movs	r1, #0
 8002ce6:	480d      	ldr	r0, [pc, #52]	@ (8002d1c <DMA_CalcBaseAndBitshift+0xfc>)
 8002ce8:	e7e4      	b.n	8002cb4 <DMA_CalcBaseAndBitshift+0x94>
 8002cea:	2106      	movs	r1, #6
 8002cec:	480b      	ldr	r0, [pc, #44]	@ (8002d1c <DMA_CalcBaseAndBitshift+0xfc>)
 8002cee:	e7e1      	b.n	8002cb4 <DMA_CalcBaseAndBitshift+0x94>
 8002cf0:	2110      	movs	r1, #16
 8002cf2:	480a      	ldr	r0, [pc, #40]	@ (8002d1c <DMA_CalcBaseAndBitshift+0xfc>)
 8002cf4:	e7de      	b.n	8002cb4 <DMA_CalcBaseAndBitshift+0x94>
 8002cf6:	2116      	movs	r1, #22
 8002cf8:	4808      	ldr	r0, [pc, #32]	@ (8002d1c <DMA_CalcBaseAndBitshift+0xfc>)
 8002cfa:	e7db      	b.n	8002cb4 <DMA_CalcBaseAndBitshift+0x94>
 8002cfc:	40020010 	.word	0x40020010
 8002d00:	40020040 	.word	0x40020040
 8002d04:	40020428 	.word	0x40020428
 8002d08:	aaaaaaab 	.word	0xaaaaaaab
 8002d0c:	40020000 	.word	0x40020000
 8002d10:	0806b734 	.word	0x0806b734
 8002d14:	40020004 	.word	0x40020004
 8002d18:	40020400 	.word	0x40020400
 8002d1c:	40020404 	.word	0x40020404

08002d20 <DMA_CalcDMAMUXChannelBaseAndMask>:
  * @retval HAL status
  */
static void DMA_CalcDMAMUXChannelBaseAndMask(DMA_HandleTypeDef *hdma)
{
  uint32_t stream_number;
  uint32_t stream_baseaddress = (uint32_t)((uint32_t*)hdma->Instance);
 8002d20:	6802      	ldr	r2, [r0, #0]

  if(IS_BDMA_CHANNEL_DMAMUX_INSTANCE(hdma->Instance) != 0U)
 8002d22:	4b28      	ldr	r3, [pc, #160]	@ (8002dc4 <DMA_CalcDMAMUXChannelBaseAndMask+0xa4>)
 8002d24:	4928      	ldr	r1, [pc, #160]	@ (8002dc8 <DMA_CalcDMAMUXChannelBaseAndMask+0xa8>)
{
 8002d26:	b430      	push	{r4, r5}
  if(IS_BDMA_CHANNEL_DMAMUX_INSTANCE(hdma->Instance) != 0U)
 8002d28:	4d28      	ldr	r5, [pc, #160]	@ (8002dcc <DMA_CalcDMAMUXChannelBaseAndMask+0xac>)
 8002d2a:	4c29      	ldr	r4, [pc, #164]	@ (8002dd0 <DMA_CalcDMAMUXChannelBaseAndMask+0xb0>)
 8002d2c:	42aa      	cmp	r2, r5
 8002d2e:	bf18      	it	ne
 8002d30:	429a      	cmpne	r2, r3
 8002d32:	bf0c      	ite	eq
 8002d34:	2301      	moveq	r3, #1
 8002d36:	2300      	movne	r3, #0
 8002d38:	428a      	cmp	r2, r1
 8002d3a:	bf08      	it	eq
 8002d3c:	f043 0301 	orreq.w	r3, r3, #1
 8002d40:	3128      	adds	r1, #40	@ 0x28
 8002d42:	42a2      	cmp	r2, r4
 8002d44:	bf08      	it	eq
 8002d46:	f043 0301 	orreq.w	r3, r3, #1
 8002d4a:	3428      	adds	r4, #40	@ 0x28
 8002d4c:	428a      	cmp	r2, r1
 8002d4e:	bf08      	it	eq
 8002d50:	f043 0301 	orreq.w	r3, r3, #1
 8002d54:	3128      	adds	r1, #40	@ 0x28
 8002d56:	42a2      	cmp	r2, r4
 8002d58:	bf08      	it	eq
 8002d5a:	f043 0301 	orreq.w	r3, r3, #1
 8002d5e:	428a      	cmp	r2, r1
 8002d60:	bf08      	it	eq
 8002d62:	f043 0301 	orreq.w	r3, r3, #1
    hdma->DMAmuxChannelStatusMask = 1UL << (stream_number & 0x1FU);
  }
  else
  {
    /* DMA1/DMA2 Streams are connected to DMAMUX1 channels */
    stream_number = (((uint32_t)((uint32_t*)hdma->Instance) & 0xFFU) - 16U) / 24U;
 8002d66:	b2d1      	uxtb	r1, r2
  if(IS_BDMA_CHANNEL_DMAMUX_INSTANCE(hdma->Instance) != 0U)
 8002d68:	b913      	cbnz	r3, 8002d70 <DMA_CalcDMAMUXChannelBaseAndMask+0x50>
 8002d6a:	4b1a      	ldr	r3, [pc, #104]	@ (8002dd4 <DMA_CalcDMAMUXChannelBaseAndMask+0xb4>)
 8002d6c:	429a      	cmp	r2, r3
 8002d6e:	d111      	bne.n	8002d94 <DMA_CalcDMAMUXChannelBaseAndMask+0x74>
    stream_number = (((uint32_t)((uint32_t*)hdma->Instance) & 0xFFU) - 8U) / 20U;
 8002d70:	f1a1 0308 	sub.w	r3, r1, #8
 8002d74:	4c18      	ldr	r4, [pc, #96]	@ (8002dd8 <DMA_CalcDMAMUXChannelBaseAndMask+0xb8>)
    hdma->DMAmuxChannel = (DMAMUX_Channel_TypeDef *)((uint32_t)(((uint32_t)DMAMUX2_Channel0) + (stream_number * 4U)));
 8002d76:	4a19      	ldr	r2, [pc, #100]	@ (8002ddc <DMA_CalcDMAMUXChannelBaseAndMask+0xbc>)
    hdma->DMAmuxChannelStatusMask = 1UL << (stream_number & 0x1FU);
 8002d78:	2101      	movs	r1, #1
    stream_number = (((uint32_t)((uint32_t*)hdma->Instance) & 0xFFU) - 8U) / 20U;
 8002d7a:	fba4 4303 	umull	r4, r3, r4, r3
 8002d7e:	4c18      	ldr	r4, [pc, #96]	@ (8002de0 <DMA_CalcDMAMUXChannelBaseAndMask+0xc0>)
 8002d80:	091d      	lsrs	r5, r3, #4
    hdma->DMAmuxChannel = (DMAMUX_Channel_TypeDef *)((uint32_t)(((uint32_t)DMAMUX2_Channel0) + (stream_number * 4U)));
 8002d82:	eb02 1313 	add.w	r3, r2, r3, lsr #4
    hdma->DMAmuxChannelStatusMask = 1UL << (stream_number & 0x1FU);
 8002d86:	40a9      	lsls	r1, r5
    hdma->DMAmuxChannel = (DMAMUX_Channel_TypeDef *)((uint32_t)(((uint32_t)DMAMUX2_Channel0) + (stream_number * 4U)));
 8002d88:	009b      	lsls	r3, r3, #2
    hdma->DMAmuxChannelStatusMask = 1UL << (stream_number & 0x1FU);
 8002d8a:	6681      	str	r1, [r0, #104]	@ 0x68
    hdma->DMAmuxChannelStatus = DMAMUX2_ChannelStatus;
 8002d8c:	e9c0 3418 	strd	r3, r4, [r0, #96]	@ 0x60
    }
    hdma->DMAmuxChannel = (DMAMUX_Channel_TypeDef *)((uint32_t)(((uint32_t)DMAMUX1_Channel0) + (stream_number * 4U)));
    hdma->DMAmuxChannelStatus = DMAMUX1_ChannelStatus;
    hdma->DMAmuxChannelStatusMask = 1UL << (stream_number & 0x1FU);
  }
}
 8002d90:	bc30      	pop	{r4, r5}
 8002d92:	4770      	bx	lr
    stream_number = (((uint32_t)((uint32_t*)hdma->Instance) & 0xFFU) - 16U) / 24U;
 8002d94:	f1a1 0310 	sub.w	r3, r1, #16
    if((stream_baseaddress <= ((uint32_t)DMA2_Stream7) ) && \
 8002d98:	4912      	ldr	r1, [pc, #72]	@ (8002de4 <DMA_CalcDMAMUXChannelBaseAndMask+0xc4>)
    stream_number = (((uint32_t)((uint32_t*)hdma->Instance) & 0xFFU) - 16U) / 24U;
 8002d9a:	4c13      	ldr	r4, [pc, #76]	@ (8002de8 <DMA_CalcDMAMUXChannelBaseAndMask+0xc8>)
    if((stream_baseaddress <= ((uint32_t)DMA2_Stream7) ) && \
 8002d9c:	4411      	add	r1, r2
    stream_number = (((uint32_t)((uint32_t*)hdma->Instance) & 0xFFU) - 16U) / 24U;
 8002d9e:	fba4 4303 	umull	r4, r3, r4, r3
    if((stream_baseaddress <= ((uint32_t)DMA2_Stream7) ) && \
 8002da2:	29a8      	cmp	r1, #168	@ 0xa8
    stream_number = (((uint32_t)((uint32_t*)hdma->Instance) & 0xFFU) - 16U) / 24U;
 8002da4:	ea4f 1313 	mov.w	r3, r3, lsr #4
    if((stream_baseaddress <= ((uint32_t)DMA2_Stream7) ) && \
 8002da8:	d908      	bls.n	8002dbc <DMA_CalcDMAMUXChannelBaseAndMask+0x9c>
    hdma->DMAmuxChannelStatusMask = 1UL << (stream_number & 0x1FU);
 8002daa:	f003 041f 	and.w	r4, r3, #31
    hdma->DMAmuxChannel = (DMAMUX_Channel_TypeDef *)((uint32_t)(((uint32_t)DMAMUX1_Channel0) + (stream_number * 4U)));
 8002dae:	4a0f      	ldr	r2, [pc, #60]	@ (8002dec <DMA_CalcDMAMUXChannelBaseAndMask+0xcc>)
    hdma->DMAmuxChannelStatusMask = 1UL << (stream_number & 0x1FU);
 8002db0:	2101      	movs	r1, #1
    hdma->DMAmuxChannel = (DMAMUX_Channel_TypeDef *)((uint32_t)(((uint32_t)DMAMUX1_Channel0) + (stream_number * 4U)));
 8002db2:	441a      	add	r2, r3
    hdma->DMAmuxChannelStatusMask = 1UL << (stream_number & 0x1FU);
 8002db4:	40a1      	lsls	r1, r4
 8002db6:	4c0e      	ldr	r4, [pc, #56]	@ (8002df0 <DMA_CalcDMAMUXChannelBaseAndMask+0xd0>)
    hdma->DMAmuxChannel = (DMAMUX_Channel_TypeDef *)((uint32_t)(((uint32_t)DMAMUX1_Channel0) + (stream_number * 4U)));
 8002db8:	0093      	lsls	r3, r2, #2
    hdma->DMAmuxChannelStatusMask = 1UL << (stream_number & 0x1FU);
 8002dba:	e7e6      	b.n	8002d8a <DMA_CalcDMAMUXChannelBaseAndMask+0x6a>
      stream_number += 8U;
 8002dbc:	3308      	adds	r3, #8
 8002dbe:	461c      	mov	r4, r3
 8002dc0:	e7f5      	b.n	8002dae <DMA_CalcDMAMUXChannelBaseAndMask+0x8e>
 8002dc2:	bf00      	nop
 8002dc4:	58025408 	.word	0x58025408
 8002dc8:	58025430 	.word	0x58025430
 8002dcc:	5802541c 	.word	0x5802541c
 8002dd0:	58025444 	.word	0x58025444
 8002dd4:	58025494 	.word	0x58025494
 8002dd8:	cccccccd 	.word	0xcccccccd
 8002ddc:	16009600 	.word	0x16009600
 8002de0:	58025880 	.word	0x58025880
 8002de4:	bffdfbf0 	.word	0xbffdfbf0
 8002de8:	aaaaaaab 	.word	0xaaaaaaab
 8002dec:	10008200 	.word	0x10008200
 8002df0:	40020880 	.word	0x40020880

08002df4 <HAL_DMA_Init>:
{
 8002df4:	e92d 4ff0 	stmdb	sp!, {r4, r5, r6, r7, r8, r9, sl, fp, lr}
 8002df8:	4605      	mov	r5, r0
 8002dfa:	b083      	sub	sp, #12
  uint32_t tickstart = HAL_GetTick();
 8002dfc:	f7fe fd64 	bl	80018c8 <HAL_GetTick>
  if(hdma == NULL)
 8002e00:	2d00      	cmp	r5, #0
 8002e02:	f000 81a1 	beq.w	8003148 <HAL_DMA_Init+0x354>
  if(IS_DMA_STREAM_INSTANCE(hdma->Instance) != 0U) /* DMA1 or DMA2 instance */
 8002e06:	682c      	ldr	r4, [r5, #0]
 8002e08:	4606      	mov	r6, r0
 8002e0a:	4bac      	ldr	r3, [pc, #688]	@ (80030bc <HAL_DMA_Init+0x2c8>)
 8002e0c:	4aac      	ldr	r2, [pc, #688]	@ (80030c0 <HAL_DMA_Init+0x2cc>)
 8002e0e:	4294      	cmp	r4, r2
 8002e10:	bf18      	it	ne
 8002e12:	429c      	cmpne	r4, r3
 8002e14:	f102 0218 	add.w	r2, r2, #24
 8002e18:	bf0c      	ite	eq
 8002e1a:	2301      	moveq	r3, #1
 8002e1c:	2300      	movne	r3, #0
 8002e1e:	4294      	cmp	r4, r2
 8002e20:	bf08      	it	eq
 8002e22:	f043 0301 	orreq.w	r3, r3, #1
 8002e26:	3218      	adds	r2, #24
 8002e28:	4294      	cmp	r4, r2
 8002e2a:	bf08      	it	eq
 8002e2c:	f043 0301 	orreq.w	r3, r3, #1
 8002e30:	3218      	adds	r2, #24
 8002e32:	4294      	cmp	r4, r2
 8002e34:	bf08      	it	eq
 8002e36:	f043 0301 	orreq.w	r3, r3, #1
 8002e3a:	3218      	adds	r2, #24
 8002e3c:	4294      	cmp	r4, r2
 8002e3e:	bf08      	it	eq
 8002e40:	f043 0301 	orreq.w	r3, r3, #1
 8002e44:	3218      	adds	r2, #24
 8002e46:	4294      	cmp	r4, r2
 8002e48:	bf08      	it	eq
 8002e4a:	f043 0301 	orreq.w	r3, r3, #1
 8002e4e:	3218      	adds	r2, #24
 8002e50:	4294      	cmp	r4, r2
 8002e52:	bf08      	it	eq
 8002e54:	f043 0301 	orreq.w	r3, r3, #1
 8002e58:	f502 7256 	add.w	r2, r2, #856	@ 0x358
 8002e5c:	4294      	cmp	r4, r2
 8002e5e:	bf08      	it	eq
 8002e60:	f043 0301 	orreq.w	r3, r3, #1
 8002e64:	3218      	adds	r2, #24
 8002e66:	4294      	cmp	r4, r2
 8002e68:	bf08      	it	eq
 8002e6a:	f043 0301 	orreq.w	r3, r3, #1
 8002e6e:	3218      	adds	r2, #24
 8002e70:	4294      	cmp	r4, r2
 8002e72:	bf08      	it	eq
 8002e74:	f043 0301 	orreq.w	r3, r3, #1
 8002e78:	3218      	adds	r2, #24
 8002e7a:	4294      	cmp	r4, r2
 8002e7c:	bf08      	it	eq
 8002e7e:	f043 0301 	orreq.w	r3, r3, #1
 8002e82:	3218      	adds	r2, #24
 8002e84:	4294      	cmp	r4, r2
 8002e86:	bf08      	it	eq
 8002e88:	f043 0301 	orreq.w	r3, r3, #1
 8002e8c:	3218      	adds	r2, #24
 8002e8e:	4294      	cmp	r4, r2
 8002e90:	bf08      	it	eq
 8002e92:	f043 0301 	orreq.w	r3, r3, #1
 8002e96:	3218      	adds	r2, #24
 8002e98:	4294      	cmp	r4, r2
 8002e9a:	bf08      	it	eq
 8002e9c:	f043 0301 	orreq.w	r3, r3, #1
 8002ea0:	b91b      	cbnz	r3, 8002eaa <HAL_DMA_Init+0xb6>
 8002ea2:	4b88      	ldr	r3, [pc, #544]	@ (80030c4 <HAL_DMA_Init+0x2d0>)
 8002ea4:	429c      	cmp	r4, r3
 8002ea6:	f040 8196 	bne.w	80031d6 <HAL_DMA_Init+0x3e2>
    __HAL_UNLOCK(hdma);
 8002eaa:	2300      	movs	r3, #0
    hdma->State = HAL_DMA_STATE_BUSY;
 8002eac:	2202      	movs	r2, #2
    __HAL_UNLOCK(hdma);
 8002eae:	f885 3034 	strb.w	r3, [r5, #52]	@ 0x34
    hdma->State = HAL_DMA_STATE_BUSY;
 8002eb2:	f885 2035 	strb.w	r2, [r5, #53]	@ 0x35
    __HAL_DMA_DISABLE(hdma);
 8002eb6:	6823      	ldr	r3, [r4, #0]
 8002eb8:	f023 0301 	bic.w	r3, r3, #1
 8002ebc:	6023      	str	r3, [r4, #0]
 8002ebe:	e006      	b.n	8002ece <HAL_DMA_Init+0xda>
      if((HAL_GetTick() - tickstart ) > HAL_TIMEOUT_DMA_ABORT)
 8002ec0:	f7fe fd02 	bl	80018c8 <HAL_GetTick>
 8002ec4:	1b80      	subs	r0, r0, r6
 8002ec6:	2805      	cmp	r0, #5
 8002ec8:	f200 8142 	bhi.w	8003150 <HAL_DMA_Init+0x35c>
    while((((DMA_Stream_TypeDef   *)hdma->Instance)->CR & DMA_SxCR_EN) != 0U)
 8002ecc:	682c      	ldr	r4, [r5, #0]
 8002ece:	6823      	ldr	r3, [r4, #0]
 8002ed0:	07df      	lsls	r7, r3, #31
 8002ed2:	d4f5      	bmi.n	8002ec0 <HAL_DMA_Init+0xcc>
    registerValue |=  hdma->Init.Direction           |
 8002ed4:	e9d5 3002 	ldrd	r3, r0, [r5, #8]
            hdma->Init.PeriphInc           | hdma->Init.MemInc           |
 8002ed8:	6929      	ldr	r1, [r5, #16]
    registerValue |=  hdma->Init.Direction           |
 8002eda:	4303      	orrs	r3, r0
            hdma->Init.PeriphDataAlignment | hdma->Init.MemDataAlignment |
 8002edc:	69aa      	ldr	r2, [r5, #24]
    registerValue = ((DMA_Stream_TypeDef   *)hdma->Instance)->CR;
 8002ede:	6820      	ldr	r0, [r4, #0]
            hdma->Init.PeriphInc           | hdma->Init.MemInc           |
 8002ee0:	430b      	orrs	r3, r1
 8002ee2:	6969      	ldr	r1, [r5, #20]
 8002ee4:	430b      	orrs	r3, r1
            hdma->Init.PeriphDataAlignment | hdma->Init.MemDataAlignment |
 8002ee6:	69e9      	ldr	r1, [r5, #28]
 8002ee8:	4313      	orrs	r3, r2
 8002eea:	430b      	orrs	r3, r1
    registerValue &= ((uint32_t)~(DMA_SxCR_MBURST | DMA_SxCR_PBURST | \
 8002eec:	4976      	ldr	r1, [pc, #472]	@ (80030c8 <HAL_DMA_Init+0x2d4>)
 8002eee:	4001      	ands	r1, r0
            hdma->Init.Mode                | hdma->Init.Priority;
 8002ef0:	6a28      	ldr	r0, [r5, #32]
 8002ef2:	4303      	orrs	r3, r0
    if((DBGMCU->IDCODE & 0xFFFF0000U) >= 0x20000000U)
 8002ef4:	4875      	ldr	r0, [pc, #468]	@ (80030cc <HAL_DMA_Init+0x2d8>)
    registerValue |=  hdma->Init.Direction           |
 8002ef6:	430b      	orrs	r3, r1
    if(hdma->Init.FIFOMode == DMA_FIFOMODE_ENABLE)
 8002ef8:	6a69      	ldr	r1, [r5, #36]	@ 0x24
 8002efa:	2904      	cmp	r1, #4
 8002efc:	f000 813d 	beq.w	800317a <HAL_DMA_Init+0x386>
    if((DBGMCU->IDCODE & 0xFFFF0000U) >= 0x20000000U)
 8002f00:	6800      	ldr	r0, [r0, #0]
 8002f02:	f36f 000f 	bfc	r0, #0, #16
 8002f06:	f1b0 5f00 	cmp.w	r0, #536870912	@ 0x20000000
 8002f0a:	f080 80f1 	bcs.w	80030f0 <HAL_DMA_Init+0x2fc>
    ((DMA_Stream_TypeDef   *)hdma->Instance)->CR = registerValue;
 8002f0e:	6023      	str	r3, [r4, #0]
    registerValue = ((DMA_Stream_TypeDef   *)hdma->Instance)->FCR;
 8002f10:	6963      	ldr	r3, [r4, #20]
    registerValue &= (uint32_t)~(DMA_SxFCR_DMDIS | DMA_SxFCR_FTH);
 8002f12:	f023 0307 	bic.w	r3, r3, #7
    registerValue |= hdma->Init.FIFOMode;
 8002f16:	430b      	orrs	r3, r1
    ((DMA_Stream_TypeDef   *)hdma->Instance)->FCR = registerValue;
 8002f18:	6163      	str	r3, [r4, #20]
    regs_dma = (DMA_Base_Registers *)DMA_CalcBaseAndBitshift(hdma);
 8002f1a:	4628      	mov	r0, r5
 8002f1c:	f7ff fe80 	bl	8002c20 <DMA_CalcBaseAndBitshift>
    regs_dma->IFCR = 0x3FUL << (hdma->StreamIndex & 0x1FU);
 8002f20:	6dea      	ldr	r2, [r5, #92]	@ 0x5c
 8002f22:	233f      	movs	r3, #63	@ 0x3f
  if(IS_DMA_DMAMUX_ALL_INSTANCE(hdma->Instance) != 0U) /* No DMAMUX available for BDMA1 */
 8002f24:	496a      	ldr	r1, [pc, #424]	@ (80030d0 <HAL_DMA_Init+0x2dc>)
    regs_dma->IFCR = 0x3FUL << (hdma->StreamIndex & 0x1FU);
 8002f26:	f002 021f 	and.w	r2, r2, #31
  if(IS_DMA_DMAMUX_ALL_INSTANCE(hdma->Instance) != 0U) /* No DMAMUX available for BDMA1 */
 8002f2a:	4f6a      	ldr	r7, [pc, #424]	@ (80030d4 <HAL_DMA_Init+0x2e0>)
 8002f2c:	1a61      	subs	r1, r4, r1
 8002f2e:	4e6a      	ldr	r6, [pc, #424]	@ (80030d8 <HAL_DMA_Init+0x2e4>)
    regs_dma->IFCR = 0x3FUL << (hdma->StreamIndex & 0x1FU);
 8002f30:	4093      	lsls	r3, r2
  if(IS_DMA_DMAMUX_ALL_INSTANCE(hdma->Instance) != 0U) /* No DMAMUX available for BDMA1 */
 8002f32:	4a6a      	ldr	r2, [pc, #424]	@ (80030dc <HAL_DMA_Init+0x2e8>)
 8002f34:	fab1 f181 	clz	r1, r1
 8002f38:	1be7      	subs	r7, r4, r7
    regs_dma->IFCR = 0x3FUL << (hdma->StreamIndex & 0x1FU);
 8002f3a:	6083      	str	r3, [r0, #8]
  if(IS_DMA_DMAMUX_ALL_INSTANCE(hdma->Instance) != 0U) /* No DMAMUX available for BDMA1 */
 8002f3c:	eba4 0a02 	sub.w	sl, r4, r2
 8002f40:	4b67      	ldr	r3, [pc, #412]	@ (80030e0 <HAL_DMA_Init+0x2ec>)
 8002f42:	0949      	lsrs	r1, r1, #5
 8002f44:	4a5e      	ldr	r2, [pc, #376]	@ (80030c0 <HAL_DMA_Init+0x2cc>)
 8002f46:	faba fa8a 	clz	sl, sl
 8002f4a:	eba4 0903 	sub.w	r9, r4, r3
 8002f4e:	4b5b      	ldr	r3, [pc, #364]	@ (80030bc <HAL_DMA_Init+0x2c8>)
 8002f50:	ea4f 1a5a 	mov.w	sl, sl, lsr #5
 8002f54:	fab7 f787 	clz	r7, r7
 8002f58:	4294      	cmp	r4, r2
 8002f5a:	bf18      	it	ne
 8002f5c:	429c      	cmpne	r4, r3
 8002f5e:	f102 0218 	add.w	r2, r2, #24
 8002f62:	fab9 f989 	clz	r9, r9
 8002f66:	eba4 0606 	sub.w	r6, r4, r6
 8002f6a:	bf0c      	ite	eq
 8002f6c:	2301      	moveq	r3, #1
 8002f6e:	2300      	movne	r3, #0
 8002f70:	ea4f 1959 	mov.w	r9, r9, lsr #5
 8002f74:	fab6 f686 	clz	r6, r6
 8002f78:	4294      	cmp	r4, r2
 8002f7a:	bf08      	it	eq
 8002f7c:	f043 0301 	orreq.w	r3, r3, #1
 8002f80:	3218      	adds	r2, #24
 8002f82:	097f      	lsrs	r7, r7, #5
 8002f84:	4294      	cmp	r4, r2
 8002f86:	bf08      	it	eq
 8002f88:	f043 0301 	orreq.w	r3, r3, #1
 8002f8c:	3218      	adds	r2, #24
 8002f8e:	0976      	lsrs	r6, r6, #5
 8002f90:	4294      	cmp	r4, r2
 8002f92:	bf08      	it	eq
 8002f94:	f043 0301 	orreq.w	r3, r3, #1
 8002f98:	3218      	adds	r2, #24
 8002f9a:	4294      	cmp	r4, r2
 8002f9c:	bf08      	it	eq
 8002f9e:	f043 0301 	orreq.w	r3, r3, #1
 8002fa2:	3218      	adds	r2, #24
 8002fa4:	4294      	cmp	r4, r2
 8002fa6:	bf08      	it	eq
 8002fa8:	f043 0301 	orreq.w	r3, r3, #1
 8002fac:	3218      	adds	r2, #24
 8002fae:	4294      	cmp	r4, r2
 8002fb0:	bf08      	it	eq
 8002fb2:	f043 0301 	orreq.w	r3, r3, #1
 8002fb6:	f502 7256 	add.w	r2, r2, #856	@ 0x358
 8002fba:	4294      	cmp	r4, r2
 8002fbc:	bf08      	it	eq
 8002fbe:	f043 0301 	orreq.w	r3, r3, #1
 8002fc2:	3218      	adds	r2, #24
 8002fc4:	4294      	cmp	r4, r2
 8002fc6:	bf08      	it	eq
 8002fc8:	f043 0301 	orreq.w	r3, r3, #1
 8002fcc:	3218      	adds	r2, #24
 8002fce:	4294      	cmp	r4, r2
 8002fd0:	bf08      	it	eq
 8002fd2:	f043 0301 	orreq.w	r3, r3, #1
 8002fd6:	3218      	adds	r2, #24
 8002fd8:	4294      	cmp	r4, r2
 8002fda:	bf08      	it	eq
 8002fdc:	f043 0301 	orreq.w	r3, r3, #1
 8002fe0:	3218      	adds	r2, #24
 8002fe2:	4294      	cmp	r4, r2
 8002fe4:	bf08      	it	eq
 8002fe6:	f043 0301 	orreq.w	r3, r3, #1
 8002fea:	3218      	adds	r2, #24
 8002fec:	4294      	cmp	r4, r2
 8002fee:	bf08      	it	eq
 8002ff0:	f043 0301 	orreq.w	r3, r3, #1
 8002ff4:	3218      	adds	r2, #24
 8002ff6:	4294      	cmp	r4, r2
 8002ff8:	bf08      	it	eq
 8002ffa:	f043 0301 	orreq.w	r3, r3, #1
 8002ffe:	3218      	adds	r2, #24
 8003000:	4294      	cmp	r4, r2
 8003002:	bf08      	it	eq
 8003004:	f043 0301 	orreq.w	r3, r3, #1
 8003008:	4a36      	ldr	r2, [pc, #216]	@ (80030e4 <HAL_DMA_Init+0x2f0>)
 800300a:	ea4a 0303 	orr.w	r3, sl, r3
 800300e:	eba4 0802 	sub.w	r8, r4, r2
 8003012:	323c      	adds	r2, #60	@ 0x3c
 8003014:	430b      	orrs	r3, r1
 8003016:	fab8 f888 	clz	r8, r8
 800301a:	eba4 0b02 	sub.w	fp, r4, r2
 800301e:	3214      	adds	r2, #20
 8003020:	ea49 0303 	orr.w	r3, r9, r3
 8003024:	ea4f 1858 	mov.w	r8, r8, lsr #5
 8003028:	fabb fb8b 	clz	fp, fp
 800302c:	1aa2      	subs	r2, r4, r2
 800302e:	ea48 0303 	orr.w	r3, r8, r3
 8003032:	ea4f 1b5b 	mov.w	fp, fp, lsr #5
 8003036:	fab2 f282 	clz	r2, r2
 800303a:	433b      	orrs	r3, r7
 800303c:	0952      	lsrs	r2, r2, #5
 800303e:	4333      	orrs	r3, r6
 8003040:	9201      	str	r2, [sp, #4]
 8003042:	ea5b 0303 	orrs.w	r3, fp, r3
 8003046:	d100      	bne.n	800304a <HAL_DMA_Init+0x256>
 8003048:	b382      	cbz	r2, 80030ac <HAL_DMA_Init+0x2b8>
    DMA_CalcDMAMUXChannelBaseAndMask(hdma);
 800304a:	4628      	mov	r0, r5
 800304c:	9100      	str	r1, [sp, #0]
 800304e:	f7ff fe67 	bl	8002d20 <DMA_CalcDMAMUXChannelBaseAndMask>
    if(hdma->Init.Direction == DMA_MEMORY_TO_MEMORY)
 8003052:	68ab      	ldr	r3, [r5, #8]
 8003054:	9900      	ldr	r1, [sp, #0]
 8003056:	2b80      	cmp	r3, #128	@ 0x80
 8003058:	f000 8083 	beq.w	8003162 <HAL_DMA_Init+0x36e>
    hdma->DMAmuxChannel->CCR = (hdma->Init.Request & DMAMUX_CxCR_DMAREQ_ID);
 800305c:	686a      	ldr	r2, [r5, #4]
 800305e:	6e2b      	ldr	r3, [r5, #96]	@ 0x60
 8003060:	b2d0      	uxtb	r0, r2
    if((hdma->Init.Request >= DMA_REQUEST_GENERATOR0) && (hdma->Init.Request <= DMA_REQUEST_GENERATOR7))
 8003062:	3a01      	subs	r2, #1
    hdma->DMAmuxChannelStatus->CFR = hdma->DMAmuxChannelStatusMask;
 8003064:	e9d5 4c19 	ldrd	r4, ip, [r5, #100]	@ 0x64
    if((hdma->Init.Request >= DMA_REQUEST_GENERATOR0) && (hdma->Init.Request <= DMA_REQUEST_GENERATOR7))
 8003068:	2a07      	cmp	r2, #7
    hdma->DMAmuxChannel->CCR = (hdma->Init.Request & DMAMUX_CxCR_DMAREQ_ID);
 800306a:	6018      	str	r0, [r3, #0]
    hdma->DMAmuxChannelStatus->CFR = hdma->DMAmuxChannelStatusMask;
 800306c:	f8c4 c004 	str.w	ip, [r4, #4]
    if((hdma->Init.Request >= DMA_REQUEST_GENERATOR0) && (hdma->Init.Request <= DMA_REQUEST_GENERATOR7))
 8003070:	d87e      	bhi.n	8003170 <HAL_DMA_Init+0x37c>
{
  uint32_t request =  hdma->Init.Request & DMAMUX_CxCR_DMAREQ_ID;

  if((request >= DMA_REQUEST_GENERATOR0) && (request <= DMA_REQUEST_GENERATOR7))
  {
    if(IS_BDMA_CHANNEL_DMAMUX_INSTANCE(hdma->Instance) != 0U)
 8003072:	ea4a 0a01 	orr.w	sl, sl, r1
  if((request >= DMA_REQUEST_GENERATOR0) && (request <= DMA_REQUEST_GENERATOR7))
 8003076:	1e44      	subs	r4, r0, #1
    if(IS_BDMA_CHANNEL_DMAMUX_INSTANCE(hdma->Instance) != 0U)
 8003078:	ea49 090a 	orr.w	r9, r9, sl
 800307c:	ea48 0809 	orr.w	r8, r8, r9
 8003080:	ea47 0708 	orr.w	r7, r7, r8
 8003084:	433e      	orrs	r6, r7
 8003086:	ea5b 0606 	orrs.w	r6, fp, r6
 800308a:	d103      	bne.n	8003094 <HAL_DMA_Init+0x2a0>
 800308c:	9b01      	ldr	r3, [sp, #4]
 800308e:	2b00      	cmp	r3, #0
 8003090:	f000 811d 	beq.w	80032ce <HAL_DMA_Init+0x4da>
    {
      /* BDMA Channels are connected to DMAMUX2 request generator blocks */
      hdma->DMAmuxRequestGen = (DMAMUX_RequestGen_TypeDef *)((uint32_t)(((uint32_t)DMAMUX2_RequestGenerator0) + ((request - 1U) * 4U)));
 8003094:	4a14      	ldr	r2, [pc, #80]	@ (80030e8 <HAL_DMA_Init+0x2f4>)

      hdma->DMAmuxRequestGenStatus = DMAMUX2_RequestGenStatus;
 8003096:	4915      	ldr	r1, [pc, #84]	@ (80030ec <HAL_DMA_Init+0x2f8>)
      hdma->DMAmuxRequestGen = (DMAMUX_RequestGen_TypeDef *)((uint32_t)(((uint32_t)DMAMUX2_RequestGenerator0) + ((request - 1U) * 4U)));
 8003098:	4402      	add	r2, r0
 800309a:	0092      	lsls	r2, r2, #2
      hdma->DMAmuxRequestGen = (DMAMUX_RequestGen_TypeDef *)((uint32_t)(((uint32_t)DMAMUX1_RequestGenerator0) + ((request - 1U) * 4U)));

      hdma->DMAmuxRequestGenStatus = DMAMUX1_RequestGenStatus;
    }

    hdma->DMAmuxRequestGenStatusMask = 1UL << (request - 1U);
 800309c:	2301      	movs	r3, #1
      hdma->DMAmuxRequestGen->RGCR = 0U;
 800309e:	2000      	movs	r0, #0
    hdma->DMAmuxRequestGenStatusMask = 1UL << (request - 1U);
 80030a0:	40a3      	lsls	r3, r4
 80030a2:	e9c5 211b 	strd	r2, r1, [r5, #108]	@ 0x6c
 80030a6:	676b      	str	r3, [r5, #116]	@ 0x74
      hdma->DMAmuxRequestGen->RGCR = 0U;
 80030a8:	6010      	str	r0, [r2, #0]
      hdma->DMAmuxRequestGenStatus->RGCFR = hdma->DMAmuxRequestGenStatusMask;
 80030aa:	604b      	str	r3, [r1, #4]
  hdma->ErrorCode = HAL_DMA_ERROR_NONE;
 80030ac:	2000      	movs	r0, #0
  hdma->State = HAL_DMA_STATE_READY;
 80030ae:	2301      	movs	r3, #1
  hdma->ErrorCode = HAL_DMA_ERROR_NONE;
 80030b0:	6568      	str	r0, [r5, #84]	@ 0x54
  hdma->State = HAL_DMA_STATE_READY;
 80030b2:	f885 3035 	strb.w	r3, [r5, #53]	@ 0x35
}
 80030b6:	b003      	add	sp, #12
 80030b8:	e8bd 8ff0 	ldmia.w	sp!, {r4, r5, r6, r7, r8, r9, sl, fp, pc}
 80030bc:	40020010 	.word	0x40020010
 80030c0:	40020028 	.word	0x40020028
 80030c4:	400204b8 	.word	0x400204b8
 80030c8:	fe10803f 	.word	0xfe10803f
 80030cc:	5c001000 	.word	0x5c001000
 80030d0:	5802541c 	.word	0x5802541c
 80030d4:	58025458 	.word	0x58025458
 80030d8:	5802546c 	.word	0x5802546c
 80030dc:	58025408 	.word	0x58025408
 80030e0:	58025430 	.word	0x58025430
 80030e4:	58025444 	.word	0x58025444
 80030e8:	1600963f 	.word	0x1600963f
 80030ec:	58025940 	.word	0x58025940
      if(IS_DMA_UART_USART_REQUEST(hdma->Init.Request) != 0U)
 80030f0:	6868      	ldr	r0, [r5, #4]
 80030f2:	282e      	cmp	r0, #46	@ 0x2e
 80030f4:	d932      	bls.n	800315c <HAL_DMA_Init+0x368>
 80030f6:	383f      	subs	r0, #63	@ 0x3f
 80030f8:	2813      	cmp	r0, #19
 80030fa:	d806      	bhi.n	800310a <HAL_DMA_Init+0x316>
 80030fc:	4e7a      	ldr	r6, [pc, #488]	@ (80032e8 <HAL_DMA_Init+0x4f4>)
 80030fe:	fa26 f000 	lsr.w	r0, r6, r0
 8003102:	07c0      	lsls	r0, r0, #31
 8003104:	d501      	bpl.n	800310a <HAL_DMA_Init+0x316>
        registerValue |= DMA_SxCR_TRBUFF;
 8003106:	f443 1380 	orr.w	r3, r3, #1048576	@ 0x100000
    ((DMA_Stream_TypeDef   *)hdma->Instance)->CR = registerValue;
 800310a:	6023      	str	r3, [r4, #0]
    if(hdma->Init.FIFOMode == DMA_FIFOMODE_ENABLE)
 800310c:	2904      	cmp	r1, #4
    registerValue = ((DMA_Stream_TypeDef   *)hdma->Instance)->FCR;
 800310e:	6963      	ldr	r3, [r4, #20]
    registerValue &= (uint32_t)~(DMA_SxFCR_DMDIS | DMA_SxFCR_FTH);
 8003110:	f023 0307 	bic.w	r3, r3, #7
    registerValue |= hdma->Init.FIFOMode;
 8003114:	ea43 0301 	orr.w	r3, r3, r1
    if(hdma->Init.FIFOMode == DMA_FIFOMODE_ENABLE)
 8003118:	f47f aefe 	bne.w	8002f18 <HAL_DMA_Init+0x124>
      registerValue |=  hdma->Init.MemBurst | hdma->Init.PeriphBurst;
 800311c:	6ae8      	ldr	r0, [r5, #44]	@ 0x2c
      registerValue |= hdma->Init.FIFOThreshold;
 800311e:	6aa9      	ldr	r1, [r5, #40]	@ 0x28
 8003120:	430b      	orrs	r3, r1
      if(hdma->Init.MemBurst != DMA_MBURST_SINGLE)
 8003122:	2800      	cmp	r0, #0
 8003124:	f43f aef8 	beq.w	8002f18 <HAL_DMA_Init+0x124>
  if (hdma->Init.MemDataAlignment == DMA_MDATAALIGN_BYTE)
 8003128:	2a00      	cmp	r2, #0
 800312a:	d138      	bne.n	800319e <HAL_DMA_Init+0x3aa>
    switch (hdma->Init.FIFOThreshold)
 800312c:	2901      	cmp	r1, #1
 800312e:	d04d      	beq.n	80031cc <HAL_DMA_Init+0x3d8>
 8003130:	f031 0202 	bics.w	r2, r1, #2
 8003134:	f47f aef0 	bne.w	8002f18 <HAL_DMA_Init+0x124>
        if ((hdma->Init.MemBurst & DMA_SxCR_MBURST_1) == DMA_SxCR_MBURST_1)
 8003138:	01c2      	lsls	r2, r0, #7
 800313a:	f57f aeed 	bpl.w	8002f18 <HAL_DMA_Init+0x124>
          hdma->ErrorCode = HAL_DMA_ERROR_PARAM;
 800313e:	2240      	movs	r2, #64	@ 0x40
          hdma->State = HAL_DMA_STATE_READY;
 8003140:	2301      	movs	r3, #1
          hdma->ErrorCode = HAL_DMA_ERROR_PARAM;
 8003142:	656a      	str	r2, [r5, #84]	@ 0x54
          hdma->State = HAL_DMA_STATE_READY;
 8003144:	f885 3035 	strb.w	r3, [r5, #53]	@ 0x35
    return HAL_ERROR;
 8003148:	2001      	movs	r0, #1
}
 800314a:	b003      	add	sp, #12
 800314c:	e8bd 8ff0 	ldmia.w	sp!, {r4, r5, r6, r7, r8, r9, sl, fp, pc}
        hdma->ErrorCode = HAL_DMA_ERROR_TIMEOUT;
 8003150:	2220      	movs	r2, #32
        hdma->State = HAL_DMA_STATE_ERROR;
 8003152:	2303      	movs	r3, #3
        hdma->ErrorCode = HAL_DMA_ERROR_TIMEOUT;
 8003154:	656a      	str	r2, [r5, #84]	@ 0x54
        hdma->State = HAL_DMA_STATE_ERROR;
 8003156:	f885 3035 	strb.w	r3, [r5, #53]	@ 0x35
        return HAL_ERROR;
 800315a:	e7f5      	b.n	8003148 <HAL_DMA_Init+0x354>
 800315c:	2828      	cmp	r0, #40	@ 0x28
 800315e:	d9d4      	bls.n	800310a <HAL_DMA_Init+0x316>
 8003160:	e7d1      	b.n	8003106 <HAL_DMA_Init+0x312>
      hdma->Init.Request = DMA_REQUEST_MEM2MEM;
 8003162:	2300      	movs	r3, #0
    hdma->DMAmuxChannelStatus->CFR = hdma->DMAmuxChannelStatusMask;
 8003164:	6ea9      	ldr	r1, [r5, #104]	@ 0x68
 8003166:	e9d5 0218 	ldrd	r0, r2, [r5, #96]	@ 0x60
      hdma->Init.Request = DMA_REQUEST_MEM2MEM;
 800316a:	606b      	str	r3, [r5, #4]
    hdma->DMAmuxChannel->CCR = (hdma->Init.Request & DMAMUX_CxCR_DMAREQ_ID);
 800316c:	6003      	str	r3, [r0, #0]
    hdma->DMAmuxChannelStatus->CFR = hdma->DMAmuxChannelStatusMask;
 800316e:	6051      	str	r1, [r2, #4]
      hdma->DMAmuxRequestGen = 0U;
 8003170:	2300      	movs	r3, #0
 8003172:	e9c5 331b 	strd	r3, r3, [r5, #108]	@ 0x6c
      hdma->DMAmuxRequestGenStatusMask = 0U;
 8003176:	676b      	str	r3, [r5, #116]	@ 0x74
 8003178:	e798      	b.n	80030ac <HAL_DMA_Init+0x2b8>
    if((DBGMCU->IDCODE & 0xFFFF0000U) >= 0x20000000U)
 800317a:	6806      	ldr	r6, [r0, #0]
      registerValue |=  hdma->Init.MemBurst | hdma->Init.PeriphBurst;
 800317c:	e9d5 070b 	ldrd	r0, r7, [r5, #44]	@ 0x2c
    if((DBGMCU->IDCODE & 0xFFFF0000U) >= 0x20000000U)
 8003180:	f36f 060f 	bfc	r6, #0, #16
      registerValue |=  hdma->Init.MemBurst | hdma->Init.PeriphBurst;
 8003184:	4307      	orrs	r7, r0
    if((DBGMCU->IDCODE & 0xFFFF0000U) >= 0x20000000U)
 8003186:	f1b6 5f00 	cmp.w	r6, #536870912	@ 0x20000000
      registerValue |=  hdma->Init.MemBurst | hdma->Init.PeriphBurst;
 800318a:	ea43 0307 	orr.w	r3, r3, r7
    if((DBGMCU->IDCODE & 0xFFFF0000U) >= 0x20000000U)
 800318e:	d2af      	bcs.n	80030f0 <HAL_DMA_Init+0x2fc>
    ((DMA_Stream_TypeDef   *)hdma->Instance)->CR = registerValue;
 8003190:	6023      	str	r3, [r4, #0]
    registerValue = ((DMA_Stream_TypeDef   *)hdma->Instance)->FCR;
 8003192:	6963      	ldr	r3, [r4, #20]
    registerValue &= (uint32_t)~(DMA_SxFCR_DMDIS | DMA_SxFCR_FTH);
 8003194:	f023 0307 	bic.w	r3, r3, #7
    registerValue |= hdma->Init.FIFOMode;
 8003198:	f043 0304 	orr.w	r3, r3, #4
    if(hdma->Init.FIFOMode == DMA_FIFOMODE_ENABLE)
 800319c:	e7bf      	b.n	800311e <HAL_DMA_Init+0x32a>
  else if (hdma->Init.MemDataAlignment == DMA_MDATAALIGN_HALFWORD)
 800319e:	f5b2 5f00 	cmp.w	r2, #8192	@ 0x2000
 80031a2:	d004      	beq.n	80031ae <HAL_DMA_Init+0x3ba>
    switch (hdma->Init.FIFOThreshold)
 80031a4:	2902      	cmp	r1, #2
 80031a6:	d9ca      	bls.n	800313e <HAL_DMA_Init+0x34a>
 80031a8:	2903      	cmp	r1, #3
 80031aa:	d0c5      	beq.n	8003138 <HAL_DMA_Init+0x344>
 80031ac:	e6b4      	b.n	8002f18 <HAL_DMA_Init+0x124>
    switch (hdma->Init.FIFOThreshold)
 80031ae:	2903      	cmp	r1, #3
 80031b0:	f63f aeb2 	bhi.w	8002f18 <HAL_DMA_Init+0x124>
 80031b4:	a201      	add	r2, pc, #4	@ (adr r2, 80031bc <HAL_DMA_Init+0x3c8>)
 80031b6:	f852 f021 	ldr.w	pc, [r2, r1, lsl #2]
 80031ba:	bf00      	nop
 80031bc:	0800313f 	.word	0x0800313f
 80031c0:	08003139 	.word	0x08003139
 80031c4:	0800313f 	.word	0x0800313f
 80031c8:	080031cd 	.word	0x080031cd
        if (hdma->Init.MemBurst == DMA_MBURST_INC16)
 80031cc:	f1b0 7fc0 	cmp.w	r0, #25165824	@ 0x1800000
 80031d0:	f47f aea2 	bne.w	8002f18 <HAL_DMA_Init+0x124>
 80031d4:	e7b3      	b.n	800313e <HAL_DMA_Init+0x34a>
  else if(IS_BDMA_CHANNEL_INSTANCE(hdma->Instance) != 0U) /* BDMA instance(s) */
 80031d6:	4a45      	ldr	r2, [pc, #276]	@ (80032ec <HAL_DMA_Init+0x4f8>)
 80031d8:	4945      	ldr	r1, [pc, #276]	@ (80032f0 <HAL_DMA_Init+0x4fc>)
 80031da:	4b46      	ldr	r3, [pc, #280]	@ (80032f4 <HAL_DMA_Init+0x500>)
 80031dc:	eba4 0a02 	sub.w	sl, r4, r2
 80031e0:	1a61      	subs	r1, r4, r1
 80031e2:	4f45      	ldr	r7, [pc, #276]	@ (80032f8 <HAL_DMA_Init+0x504>)
 80031e4:	eba4 0903 	sub.w	r9, r4, r3
 80031e8:	faba fa8a 	clz	sl, sl
 80031ec:	3314      	adds	r3, #20
 80031ee:	fab1 f181 	clz	r1, r1
 80031f2:	ea4f 1a5a 	mov.w	sl, sl, lsr #5
 80031f6:	fab9 f989 	clz	r9, r9
 80031fa:	eba4 0803 	sub.w	r8, r4, r3
 80031fe:	0949      	lsrs	r1, r1, #5
 8003200:	ea4f 1959 	mov.w	r9, r9, lsr #5
 8003204:	1be7      	subs	r7, r4, r7
 8003206:	fab8 f888 	clz	r8, r8
 800320a:	ea4a 0301 	orr.w	r3, sl, r1
 800320e:	4e3b      	ldr	r6, [pc, #236]	@ (80032fc <HAL_DMA_Init+0x508>)
 8003210:	3278      	adds	r2, #120	@ 0x78
 8003212:	ea4f 1858 	mov.w	r8, r8, lsr #5
 8003216:	ea49 0303 	orr.w	r3, r9, r3
 800321a:	fab7 f787 	clz	r7, r7
 800321e:	1ba6      	subs	r6, r4, r6
 8003220:	eba4 0b02 	sub.w	fp, r4, r2
 8003224:	ea48 0303 	orr.w	r3, r8, r3
 8003228:	097f      	lsrs	r7, r7, #5
 800322a:	fab6 f686 	clz	r6, r6
 800322e:	3214      	adds	r2, #20
 8003230:	fabb fb8b 	clz	fp, fp
 8003234:	433b      	orrs	r3, r7
 8003236:	0976      	lsrs	r6, r6, #5
 8003238:	1aa2      	subs	r2, r4, r2
 800323a:	ea4f 1b5b 	mov.w	fp, fp, lsr #5
 800323e:	4333      	orrs	r3, r6
 8003240:	fab2 f282 	clz	r2, r2
 8003244:	ea5b 0303 	orrs.w	r3, fp, r3
 8003248:	ea4f 1252 	mov.w	r2, r2, lsr #5
 800324c:	9201      	str	r2, [sp, #4]
 800324e:	d101      	bne.n	8003254 <HAL_DMA_Init+0x460>
 8003250:	2a00      	cmp	r2, #0
 8003252:	d043      	beq.n	80032dc <HAL_DMA_Init+0x4e8>
    hdma->State = HAL_DMA_STATE_BUSY;
 8003254:	2302      	movs	r3, #2
    registerValue &= ((uint32_t)~(BDMA_CCR_PL    | BDMA_CCR_MSIZE   | BDMA_CCR_PSIZE  | \
 8003256:	f8df e0b8 	ldr.w	lr, [pc, #184]	@ 8003310 <HAL_DMA_Init+0x51c>
    hdma->State = HAL_DMA_STATE_BUSY;
 800325a:	f885 3035 	strb.w	r3, [r5, #53]	@ 0x35
    __HAL_UNLOCK(hdma);
 800325e:	2300      	movs	r3, #0
 8003260:	f885 3034 	strb.w	r3, [r5, #52]	@ 0x34
    registerValue |=  DMA_TO_BDMA_DIRECTION(hdma->Init.Direction)            |
 8003264:	68ab      	ldr	r3, [r5, #8]
    registerValue = ((BDMA_Channel_TypeDef *)hdma->Instance)->CCR;
 8003266:	6822      	ldr	r2, [r4, #0]
    registerValue |=  DMA_TO_BDMA_DIRECTION(hdma->Init.Direction)            |
 8003268:	2b40      	cmp	r3, #64	@ 0x40
    registerValue &= ((uint32_t)~(BDMA_CCR_PL    | BDMA_CCR_MSIZE   | BDMA_CCR_PSIZE  | \
 800326a:	ea02 0e0e 	and.w	lr, r2, lr
    registerValue |=  DMA_TO_BDMA_DIRECTION(hdma->Init.Direction)            |
 800326e:	d033      	beq.n	80032d8 <HAL_DMA_Init+0x4e4>
 8003270:	f1a3 0380 	sub.w	r3, r3, #128	@ 0x80
 8003274:	fab3 f383 	clz	r3, r3
 8003278:	095b      	lsrs	r3, r3, #5
 800327a:	0398      	lsls	r0, r3, #14
 800327c:	9100      	str	r1, [sp, #0]
 800327e:	e9d5 3203 	ldrd	r3, r2, [r5, #12]
 8003282:	ea43 0c02 	orr.w	ip, r3, r2
 8003286:	696a      	ldr	r2, [r5, #20]
 8003288:	69ab      	ldr	r3, [r5, #24]
 800328a:	ea4c 0c02 	orr.w	ip, ip, r2
    hdma->StreamIndex = (((uint32_t)((uint32_t*)hdma->Instance) - (uint32_t)BDMA_Channel0) / ((uint32_t)BDMA_Channel1 - (uint32_t)BDMA_Channel0)) << 2U;
 800328e:	4a1c      	ldr	r2, [pc, #112]	@ (8003300 <HAL_DMA_Init+0x50c>)
 8003290:	ea4c 0c03 	orr.w	ip, ip, r3
 8003294:	69eb      	ldr	r3, [r5, #28]
 8003296:	4422      	add	r2, r4
 8003298:	ea4c 0c03 	orr.w	ip, ip, r3
                      DMA_TO_BDMA_PRIORITY(hdma->Init.Priority);
 800329c:	6a2b      	ldr	r3, [r5, #32]
 800329e:	ea4e 1313 	orr.w	r3, lr, r3, lsr #4
 80032a2:	ea43 03dc 	orr.w	r3, r3, ip, lsr #3
    registerValue |=  DMA_TO_BDMA_DIRECTION(hdma->Init.Direction)            |
 80032a6:	4318      	orrs	r0, r3
    hdma->StreamIndex = (((uint32_t)((uint32_t*)hdma->Instance) - (uint32_t)BDMA_Channel0) / ((uint32_t)BDMA_Channel1 - (uint32_t)BDMA_Channel0)) << 2U;
 80032a8:	4b16      	ldr	r3, [pc, #88]	@ (8003304 <HAL_DMA_Init+0x510>)
 80032aa:	fba3 2302 	umull	r2, r3, r3, r2
    ((BDMA_Channel_TypeDef *)hdma->Instance)->CCR = registerValue;
 80032ae:	6020      	str	r0, [r4, #0]
    regs_bdma = (BDMA_Base_Registers *)DMA_CalcBaseAndBitshift(hdma);
 80032b0:	4628      	mov	r0, r5
    hdma->StreamIndex = (((uint32_t)((uint32_t*)hdma->Instance) - (uint32_t)BDMA_Channel0) / ((uint32_t)BDMA_Channel1 - (uint32_t)BDMA_Channel0)) << 2U;
 80032b2:	091b      	lsrs	r3, r3, #4
 80032b4:	009b      	lsls	r3, r3, #2
 80032b6:	65eb      	str	r3, [r5, #92]	@ 0x5c
    regs_bdma = (BDMA_Base_Registers *)DMA_CalcBaseAndBitshift(hdma);
 80032b8:	f7ff fcb2 	bl	8002c20 <DMA_CalcBaseAndBitshift>
    regs_bdma->IFCR = ((BDMA_IFCR_CGIF0) << (hdma->StreamIndex & 0x1FU));
 80032bc:	6deb      	ldr	r3, [r5, #92]	@ 0x5c
    regs_bdma = (BDMA_Base_Registers *)DMA_CalcBaseAndBitshift(hdma);
 80032be:	4602      	mov	r2, r0
    regs_bdma->IFCR = ((BDMA_IFCR_CGIF0) << (hdma->StreamIndex & 0x1FU));
 80032c0:	9900      	ldr	r1, [sp, #0]
 80032c2:	f003 001f 	and.w	r0, r3, #31
 80032c6:	2301      	movs	r3, #1
 80032c8:	4083      	lsls	r3, r0
 80032ca:	6053      	str	r3, [r2, #4]
 80032cc:	e6bd      	b.n	800304a <HAL_DMA_Init+0x256>
      hdma->DMAmuxRequestGen = (DMAMUX_RequestGen_TypeDef *)((uint32_t)(((uint32_t)DMAMUX1_RequestGenerator0) + ((request - 1U) * 4U)));
 80032ce:	4a0e      	ldr	r2, [pc, #56]	@ (8003308 <HAL_DMA_Init+0x514>)
      hdma->DMAmuxRequestGenStatus = DMAMUX1_RequestGenStatus;
 80032d0:	490e      	ldr	r1, [pc, #56]	@ (800330c <HAL_DMA_Init+0x518>)
      hdma->DMAmuxRequestGen = (DMAMUX_RequestGen_TypeDef *)((uint32_t)(((uint32_t)DMAMUX1_RequestGenerator0) + ((request - 1U) * 4U)));
 80032d2:	4402      	add	r2, r0
 80032d4:	0092      	lsls	r2, r2, #2
      hdma->DMAmuxRequestGenStatus = DMAMUX1_RequestGenStatus;
 80032d6:	e6e1      	b.n	800309c <HAL_DMA_Init+0x2a8>
    registerValue |=  DMA_TO_BDMA_DIRECTION(hdma->Init.Direction)            |
 80032d8:	2010      	movs	r0, #16
 80032da:	e7cf      	b.n	800327c <HAL_DMA_Init+0x488>
    hdma->ErrorCode = HAL_DMA_ERROR_PARAM;
 80032dc:	2240      	movs	r2, #64	@ 0x40
    hdma->State     = HAL_DMA_STATE_ERROR;
 80032de:	2303      	movs	r3, #3
    hdma->ErrorCode = HAL_DMA_ERROR_PARAM;
 80032e0:	656a      	str	r2, [r5, #84]	@ 0x54
    hdma->State     = HAL_DMA_STATE_ERROR;
 80032e2:	f885 3035 	strb.w	r3, [r5, #53]	@ 0x35
    return HAL_ERROR;
 80032e6:	e72f      	b.n	8003148 <HAL_DMA_Init+0x354>
 80032e8:	000f030f 	.word	0x000f030f
 80032ec:	58025408 	.word	0x58025408
 80032f0:	5802541c 	.word	0x5802541c
 80032f4:	58025430 	.word	0x58025430
 80032f8:	58025458 	.word	0x58025458
 80032fc:	5802546c 	.word	0x5802546c
 8003300:	a7fdabf8 	.word	0xa7fdabf8
 8003304:	cccccccd 	.word	0xcccccccd
 8003308:	1000823f 	.word	0x1000823f
 800330c:	40020940 	.word	0x40020940
 8003310:	fffe000f 	.word	0xfffe000f

08003314 <HAL_DMA_Start_IT>:
  if(hdma == NULL)
 8003314:	2800      	cmp	r0, #0
 8003316:	f000 8221 	beq.w	800375c <HAL_DMA_Start_IT+0x448>
{
 800331a:	e92d 47f0 	stmdb	sp!, {r4, r5, r6, r7, r8, r9, sl, lr}
  __HAL_LOCK(hdma);
 800331e:	f890 4034 	ldrb.w	r4, [r0, #52]	@ 0x34
 8003322:	2c01      	cmp	r4, #1
 8003324:	f000 8217 	beq.w	8003756 <HAL_DMA_Start_IT+0x442>
 8003328:	2401      	movs	r4, #1
 800332a:	f880 4034 	strb.w	r4, [r0, #52]	@ 0x34
  if(HAL_DMA_STATE_READY == hdma->State)
 800332e:	f890 4035 	ldrb.w	r4, [r0, #53]	@ 0x35
 8003332:	2c01      	cmp	r4, #1
 8003334:	d008      	beq.n	8003348 <HAL_DMA_Start_IT+0x34>
    hdma->ErrorCode = HAL_DMA_ERROR_BUSY;
 8003336:	f44f 6200 	mov.w	r2, #2048	@ 0x800
    __HAL_UNLOCK(hdma);
 800333a:	2300      	movs	r3, #0
    hdma->ErrorCode = HAL_DMA_ERROR_BUSY;
 800333c:	6542      	str	r2, [r0, #84]	@ 0x54
    __HAL_UNLOCK(hdma);
 800333e:	f880 3034 	strb.w	r3, [r0, #52]	@ 0x34
    return HAL_ERROR;
 8003342:	2001      	movs	r0, #1
}
 8003344:	e8bd 87f0 	ldmia.w	sp!, {r4, r5, r6, r7, r8, r9, sl, pc}
    hdma->State = HAL_DMA_STATE_BUSY;
 8003348:	2402      	movs	r4, #2
  if(IS_DMA_DMAMUX_ALL_INSTANCE(hdma->Instance) != 0U) /* No DMAMUX available for BDMA1 */
 800334a:	4e69      	ldr	r6, [pc, #420]	@ (80034f0 <HAL_DMA_Start_IT+0x1dc>)
  if(IS_DMA_STREAM_INSTANCE(hdma->Instance) != 0U) /* DMA1 or DMA2 instance */
 800334c:	f8df e1a8 	ldr.w	lr, [pc, #424]	@ 80034f8 <HAL_DMA_Start_IT+0x1e4>
    hdma->State = HAL_DMA_STATE_BUSY;
 8003350:	f880 4035 	strb.w	r4, [r0, #53]	@ 0x35
    hdma->ErrorCode = HAL_DMA_ERROR_NONE;
 8003354:	2400      	movs	r4, #0
    __HAL_DMA_DISABLE(hdma);
 8003356:	4d67      	ldr	r5, [pc, #412]	@ (80034f4 <HAL_DMA_Start_IT+0x1e0>)
    hdma->ErrorCode = HAL_DMA_ERROR_NONE;
 8003358:	6544      	str	r4, [r0, #84]	@ 0x54
    __HAL_DMA_DISABLE(hdma);
 800335a:	6804      	ldr	r4, [r0, #0]
  if(IS_DMA_DMAMUX_ALL_INSTANCE(hdma->Instance) != 0U) /* No DMAMUX available for BDMA1 */
 800335c:	f8df 81ac 	ldr.w	r8, [pc, #428]	@ 800350c <HAL_DMA_Start_IT+0x1f8>
 8003360:	4574      	cmp	r4, lr
 8003362:	bf18      	it	ne
 8003364:	42b4      	cmpne	r4, r6
    __HAL_DMA_DISABLE(hdma);
 8003366:	f8df c1a8 	ldr.w	ip, [pc, #424]	@ 8003510 <HAL_DMA_Start_IT+0x1fc>
  DMA_Base_Registers  *regs_dma  = (DMA_Base_Registers *)hdma->StreamBaseAddress;
 800336a:	f8d0 a058 	ldr.w	sl, [r0, #88]	@ 0x58
 800336e:	bf0c      	ite	eq
 8003370:	2601      	moveq	r6, #1
 8003372:	2600      	movne	r6, #0
 8003374:	4544      	cmp	r4, r8
 8003376:	bf14      	ite	ne
 8003378:	46b1      	movne	r9, r6
 800337a:	f046 0901 	orreq.w	r9, r6, #1
    __HAL_DMA_DISABLE(hdma);
 800337e:	42ac      	cmp	r4, r5
 8003380:	bf18      	it	ne
 8003382:	4564      	cmpne	r4, ip
 8003384:	bf0c      	ite	eq
 8003386:	2501      	moveq	r5, #1
 8003388:	2500      	movne	r5, #0
 800338a:	f040 80c3 	bne.w	8003514 <HAL_DMA_Start_IT+0x200>
 800338e:	f8d4 c000 	ldr.w	ip, [r4]
 8003392:	f02c 0c01 	bic.w	ip, ip, #1
 8003396:	f8c4 c000 	str.w	ip, [r4]
    if(hdma->DMAmuxRequestGen != 0U)
 800339a:	f8d0 c06c 	ldr.w	ip, [r0, #108]	@ 0x6c
    hdma->DMAmuxChannelStatus->CFR = hdma->DMAmuxChannelStatusMask;
 800339e:	e9d0 7619 	ldrd	r7, r6, [r0, #100]	@ 0x64
 80033a2:	607e      	str	r6, [r7, #4]
    if(hdma->DMAmuxRequestGen != 0U)
 80033a4:	f1bc 0f00 	cmp.w	ip, #0
 80033a8:	d007      	beq.n	80033ba <HAL_DMA_Start_IT+0xa6>
      hdma->DMAmuxRequestGenStatus->RGCFR = hdma->DMAmuxRequestGenStatusMask;
 80033aa:	e9d0 671c 	ldrd	r6, r7, [r0, #112]	@ 0x70
 80033ae:	6077      	str	r7, [r6, #4]
  if(IS_DMA_STREAM_INSTANCE(hdma->Instance) != 0U) /* DMA1 or DMA2 instance */
 80033b0:	b91d      	cbnz	r5, 80033ba <HAL_DMA_Start_IT+0xa6>
 80033b2:	f1b9 0f00 	cmp.w	r9, #0
 80033b6:	f000 8130 	beq.w	800361a <HAL_DMA_Start_IT+0x306>
    regs_dma->IFCR = 0x3FUL << (hdma->StreamIndex & 0x1FU);
 80033ba:	6dc7      	ldr	r7, [r0, #92]	@ 0x5c
 80033bc:	f04f 0e3f 	mov.w	lr, #63	@ 0x3f
 80033c0:	f007 081f 	and.w	r8, r7, #31
 80033c4:	fa0e fe08 	lsl.w	lr, lr, r8
 80033c8:	f8ca e008 	str.w	lr, [sl, #8]
    ((DMA_Stream_TypeDef *)hdma->Instance)->CR &= (uint32_t)(~DMA_SxCR_DBM);
 80033cc:	6827      	ldr	r7, [r4, #0]
 80033ce:	f427 2780 	bic.w	r7, r7, #262144	@ 0x40000
 80033d2:	6027      	str	r7, [r4, #0]
    ((DMA_Stream_TypeDef *)hdma->Instance)->NDTR = DataLength;
 80033d4:	6063      	str	r3, [r4, #4]
    if((hdma->Init.Direction) == DMA_MEMORY_TO_PERIPH)
 80033d6:	6883      	ldr	r3, [r0, #8]
 80033d8:	2b40      	cmp	r3, #64	@ 0x40
 80033da:	f000 81c1 	beq.w	8003760 <HAL_DMA_Start_IT+0x44c>
      ((DMA_Stream_TypeDef *)hdma->Instance)->PAR = SrcAddress;
 80033de:	60a1      	str	r1, [r4, #8]
      ((DMA_Stream_TypeDef *)hdma->Instance)->M0AR = DstAddress;
 80033e0:	60e2      	str	r2, [r4, #12]
      if(hdma->XferHalfCpltCallback != NULL)
 80033e2:	6c02      	ldr	r2, [r0, #64]	@ 0x40
    if(IS_DMA_STREAM_INSTANCE(hdma->Instance) != 0U) /* DMA1 or DMA2 instance */
 80033e4:	2d00      	cmp	r5, #0
 80033e6:	f040 81a1 	bne.w	800372c <HAL_DMA_Start_IT+0x418>
 80033ea:	4b43      	ldr	r3, [pc, #268]	@ (80034f8 <HAL_DMA_Start_IT+0x1e4>)
 80033ec:	429c      	cmp	r4, r3
 80033ee:	f000 81de 	beq.w	80037ae <HAL_DMA_Start_IT+0x49a>
 80033f2:	3318      	adds	r3, #24
 80033f4:	429c      	cmp	r4, r3
 80033f6:	f000 81f6 	beq.w	80037e6 <HAL_DMA_Start_IT+0x4d2>
 80033fa:	f1b9 0f00 	cmp.w	r9, #0
 80033fe:	f040 81c7 	bne.w	8003790 <HAL_DMA_Start_IT+0x47c>
 8003402:	4b3e      	ldr	r3, [pc, #248]	@ (80034fc <HAL_DMA_Start_IT+0x1e8>)
 8003404:	429c      	cmp	r4, r3
 8003406:	f000 8201 	beq.w	800380c <HAL_DMA_Start_IT+0x4f8>
 800340a:	4b3d      	ldr	r3, [pc, #244]	@ (8003500 <HAL_DMA_Start_IT+0x1ec>)
 800340c:	429c      	cmp	r4, r3
 800340e:	f000 8209 	beq.w	8003824 <HAL_DMA_Start_IT+0x510>
 8003412:	3318      	adds	r3, #24
 8003414:	429c      	cmp	r4, r3
 8003416:	f000 8223 	beq.w	8003860 <HAL_DMA_Start_IT+0x54c>
 800341a:	f503 7356 	add.w	r3, r3, #856	@ 0x358
 800341e:	429c      	cmp	r4, r3
 8003420:	f000 8233 	beq.w	800388a <HAL_DMA_Start_IT+0x576>
 8003424:	3318      	adds	r3, #24
 8003426:	429c      	cmp	r4, r3
 8003428:	f000 8242 	beq.w	80038b0 <HAL_DMA_Start_IT+0x59c>
 800342c:	3318      	adds	r3, #24
 800342e:	429c      	cmp	r4, r3
 8003430:	f000 8249 	beq.w	80038c6 <HAL_DMA_Start_IT+0x5b2>
 8003434:	3318      	adds	r3, #24
 8003436:	429c      	cmp	r4, r3
 8003438:	f000 8250 	beq.w	80038dc <HAL_DMA_Start_IT+0x5c8>
 800343c:	3318      	adds	r3, #24
 800343e:	429c      	cmp	r4, r3
 8003440:	f000 8257 	beq.w	80038f2 <HAL_DMA_Start_IT+0x5de>
 8003444:	3318      	adds	r3, #24
 8003446:	429c      	cmp	r4, r3
 8003448:	f000 8267 	beq.w	800391a <HAL_DMA_Start_IT+0x606>
 800344c:	3318      	adds	r3, #24
 800344e:	429c      	cmp	r4, r3
 8003450:	f000 8265 	beq.w	800391e <HAL_DMA_Start_IT+0x60a>
 8003454:	3318      	adds	r3, #24
 8003456:	429c      	cmp	r4, r3
 8003458:	f000 8275 	beq.w	8003946 <HAL_DMA_Start_IT+0x632>
      MODIFY_REG(((BDMA_Channel_TypeDef   *)hdma->Instance)->CCR, (BDMA_CCR_TCIE | BDMA_CCR_HTIE | BDMA_CCR_TEIE), (BDMA_CCR_TCIE | BDMA_CCR_TEIE));
 800345c:	6823      	ldr	r3, [r4, #0]
 800345e:	f023 030e 	bic.w	r3, r3, #14
 8003462:	f043 030a 	orr.w	r3, r3, #10
 8003466:	6023      	str	r3, [r4, #0]
      if(hdma->XferHalfCpltCallback != NULL)
 8003468:	b11a      	cbz	r2, 8003472 <HAL_DMA_Start_IT+0x15e>
        ((BDMA_Channel_TypeDef   *)hdma->Instance)->CCR  |= BDMA_CCR_HTIE;
 800346a:	6823      	ldr	r3, [r4, #0]
 800346c:	f043 0304 	orr.w	r3, r3, #4
 8003470:	6023      	str	r3, [r4, #0]
    if(IS_DMA_DMAMUX_ALL_INSTANCE(hdma->Instance) != 0U) /* No DMAMUX available for BDMA1 */
 8003472:	4b24      	ldr	r3, [pc, #144]	@ (8003504 <HAL_DMA_Start_IT+0x1f0>)
 8003474:	4a24      	ldr	r2, [pc, #144]	@ (8003508 <HAL_DMA_Start_IT+0x1f4>)
 8003476:	4294      	cmp	r4, r2
 8003478:	bf18      	it	ne
 800347a:	429c      	cmpne	r4, r3
 800347c:	f102 0214 	add.w	r2, r2, #20
 8003480:	bf0c      	ite	eq
 8003482:	2301      	moveq	r3, #1
 8003484:	2300      	movne	r3, #0
 8003486:	4294      	cmp	r4, r2
 8003488:	bf08      	it	eq
 800348a:	f043 0301 	orreq.w	r3, r3, #1
 800348e:	3214      	adds	r2, #20
 8003490:	4294      	cmp	r4, r2
 8003492:	bf08      	it	eq
 8003494:	f043 0301 	orreq.w	r3, r3, #1
 8003498:	3214      	adds	r2, #20
 800349a:	4294      	cmp	r4, r2
 800349c:	bf08      	it	eq
 800349e:	f043 0301 	orreq.w	r3, r3, #1
 80034a2:	3214      	adds	r2, #20
 80034a4:	4294      	cmp	r4, r2
 80034a6:	bf08      	it	eq
 80034a8:	f043 0301 	orreq.w	r3, r3, #1
 80034ac:	3214      	adds	r2, #20
 80034ae:	4294      	cmp	r4, r2
 80034b0:	bf08      	it	eq
 80034b2:	f043 0301 	orreq.w	r3, r3, #1
 80034b6:	3214      	adds	r2, #20
 80034b8:	4294      	cmp	r4, r2
 80034ba:	bf08      	it	eq
 80034bc:	f043 0301 	orreq.w	r3, r3, #1
 80034c0:	b17b      	cbz	r3, 80034e2 <HAL_DMA_Start_IT+0x1ce>
      if((hdma->DMAmuxChannel->CCR & DMAMUX_CxCR_SE) != 0U)
 80034c2:	6e03      	ldr	r3, [r0, #96]	@ 0x60
 80034c4:	f8d0 c06c 	ldr.w	ip, [r0, #108]	@ 0x6c
 80034c8:	681a      	ldr	r2, [r3, #0]
 80034ca:	03d2      	lsls	r2, r2, #15
 80034cc:	f100 813e 	bmi.w	800374c <HAL_DMA_Start_IT+0x438>
      if(hdma->DMAmuxRequestGen != 0U)
 80034d0:	f1bc 0f00 	cmp.w	ip, #0
 80034d4:	d005      	beq.n	80034e2 <HAL_DMA_Start_IT+0x1ce>
        hdma->DMAmuxRequestGen->RGCR |= DMAMUX_RGxCR_OIE;
 80034d6:	f8dc 3000 	ldr.w	r3, [ip]
 80034da:	f443 7380 	orr.w	r3, r3, #256	@ 0x100
 80034de:	f8cc 3000 	str.w	r3, [ip]
    __HAL_DMA_ENABLE(hdma);
 80034e2:	6823      	ldr	r3, [r4, #0]
  HAL_StatusTypeDef status = HAL_OK;
 80034e4:	2000      	movs	r0, #0
    __HAL_DMA_ENABLE(hdma);
 80034e6:	f043 0301 	orr.w	r3, r3, #1
 80034ea:	6023      	str	r3, [r4, #0]
}
 80034ec:	e8bd 87f0 	ldmia.w	sp!, {r4, r5, r6, r7, r8, r9, sl, pc}
 80034f0:	40020070 	.word	0x40020070
 80034f4:	40020028 	.word	0x40020028
 80034f8:	40020040 	.word	0x40020040
 80034fc:	40020088 	.word	0x40020088
 8003500:	400200a0 	.word	0x400200a0
 8003504:	58025408 	.word	0x58025408
 8003508:	5802541c 	.word	0x5802541c
 800350c:	40020058 	.word	0x40020058
 8003510:	40020010 	.word	0x40020010
    __HAL_DMA_DISABLE(hdma);
 8003514:	4574      	cmp	r4, lr
 8003516:	f000 8154 	beq.w	80037c2 <HAL_DMA_Start_IT+0x4ae>
 800351a:	4544      	cmp	r4, r8
 800351c:	f000 815a 	beq.w	80037d4 <HAL_DMA_Start_IT+0x4c0>
 8003520:	f1b9 0f00 	cmp.w	r9, #0
 8003524:	f040 811f 	bne.w	8003766 <HAL_DMA_Start_IT+0x452>
 8003528:	f8df c434 	ldr.w	ip, [pc, #1076]	@ 8003960 <HAL_DMA_Start_IT+0x64c>
 800352c:	4564      	cmp	r4, ip
 800352e:	f000 8164 	beq.w	80037fa <HAL_DMA_Start_IT+0x4e6>
 8003532:	f10c 0c18 	add.w	ip, ip, #24
 8003536:	4564      	cmp	r4, ip
 8003538:	f000 8180 	beq.w	800383c <HAL_DMA_Start_IT+0x528>
 800353c:	f10c 0c18 	add.w	ip, ip, #24
 8003540:	4564      	cmp	r4, ip
 8003542:	f000 8184 	beq.w	800384e <HAL_DMA_Start_IT+0x53a>
 8003546:	f50c 7c56 	add.w	ip, ip, #856	@ 0x358
 800354a:	4564      	cmp	r4, ip
 800354c:	f000 8194 	beq.w	8003878 <HAL_DMA_Start_IT+0x564>
 8003550:	f10c 0c18 	add.w	ip, ip, #24
 8003554:	4564      	cmp	r4, ip
 8003556:	f000 81a2 	beq.w	800389e <HAL_DMA_Start_IT+0x58a>
 800355a:	f10c 0c18 	add.w	ip, ip, #24
 800355e:	4564      	cmp	r4, ip
 8003560:	f000 81b3 	beq.w	80038ca <HAL_DMA_Start_IT+0x5b6>
 8003564:	f10c 0c18 	add.w	ip, ip, #24
 8003568:	4564      	cmp	r4, ip
 800356a:	f000 81b9 	beq.w	80038e0 <HAL_DMA_Start_IT+0x5cc>
 800356e:	f10c 0c18 	add.w	ip, ip, #24
 8003572:	4564      	cmp	r4, ip
 8003574:	f000 81bf 	beq.w	80038f6 <HAL_DMA_Start_IT+0x5e2>
 8003578:	f10c 0c18 	add.w	ip, ip, #24
 800357c:	4564      	cmp	r4, ip
 800357e:	f000 81c3 	beq.w	8003908 <HAL_DMA_Start_IT+0x5f4>
 8003582:	f10c 0c18 	add.w	ip, ip, #24
 8003586:	4564      	cmp	r4, ip
 8003588:	f000 81cb 	beq.w	8003922 <HAL_DMA_Start_IT+0x60e>
 800358c:	f10c 0c18 	add.w	ip, ip, #24
 8003590:	4564      	cmp	r4, ip
 8003592:	f000 81cf 	beq.w	8003934 <HAL_DMA_Start_IT+0x620>
  if(IS_DMA_DMAMUX_ALL_INSTANCE(hdma->Instance) != 0U) /* No DMAMUX available for BDMA1 */
 8003596:	f8df c3cc 	ldr.w	ip, [pc, #972]	@ 8003964 <HAL_DMA_Start_IT+0x650>
 800359a:	f8df e3cc 	ldr.w	lr, [pc, #972]	@ 8003968 <HAL_DMA_Start_IT+0x654>
 800359e:	4574      	cmp	r4, lr
 80035a0:	bf18      	it	ne
 80035a2:	4564      	cmpne	r4, ip
 80035a4:	f10e 0e28 	add.w	lr, lr, #40	@ 0x28
 80035a8:	bf0c      	ite	eq
 80035aa:	f04f 0c01 	moveq.w	ip, #1
 80035ae:	f04f 0c00 	movne.w	ip, #0
 80035b2:	4574      	cmp	r4, lr
 80035b4:	bf08      	it	eq
 80035b6:	f04c 0c01 	orreq.w	ip, ip, #1
 80035ba:	f10e 0e14 	add.w	lr, lr, #20
 80035be:	4574      	cmp	r4, lr
 80035c0:	bf08      	it	eq
 80035c2:	f04c 0c01 	orreq.w	ip, ip, #1
 80035c6:	f10e 0e14 	add.w	lr, lr, #20
 80035ca:	4574      	cmp	r4, lr
 80035cc:	bf08      	it	eq
 80035ce:	f04c 0c01 	orreq.w	ip, ip, #1
 80035d2:	f10e 0e14 	add.w	lr, lr, #20
 80035d6:	4574      	cmp	r4, lr
 80035d8:	bf08      	it	eq
 80035da:	f04c 0c01 	orreq.w	ip, ip, #1
    __HAL_DMA_DISABLE(hdma);
 80035de:	f8d4 e000 	ldr.w	lr, [r4]
 80035e2:	f02e 0e01 	bic.w	lr, lr, #1
 80035e6:	f8c4 e000 	str.w	lr, [r4]
  if(IS_DMA_DMAMUX_ALL_INSTANCE(hdma->Instance) != 0U) /* No DMAMUX available for BDMA1 */
 80035ea:	f8df e380 	ldr.w	lr, [pc, #896]	@ 800396c <HAL_DMA_Start_IT+0x658>
 80035ee:	4574      	cmp	r4, lr
 80035f0:	bf08      	it	eq
 80035f2:	f04c 0c01 	orreq.w	ip, ip, #1
 80035f6:	f1bc 0f00 	cmp.w	ip, #0
 80035fa:	d103      	bne.n	8003604 <HAL_DMA_Start_IT+0x2f0>
 80035fc:	f8df c370 	ldr.w	ip, [pc, #880]	@ 8003970 <HAL_DMA_Start_IT+0x65c>
 8003600:	4564      	cmp	r4, ip
 8003602:	d14f      	bne.n	80036a4 <HAL_DMA_Start_IT+0x390>
    if(hdma->DMAmuxRequestGen != 0U)
 8003604:	f8d0 c06c 	ldr.w	ip, [r0, #108]	@ 0x6c
    hdma->DMAmuxChannelStatus->CFR = hdma->DMAmuxChannelStatusMask;
 8003608:	e9d0 6719 	ldrd	r6, r7, [r0, #100]	@ 0x64
 800360c:	6077      	str	r7, [r6, #4]
    if(hdma->DMAmuxRequestGen != 0U)
 800360e:	f1bc 0f00 	cmp.w	ip, #0
 8003612:	d002      	beq.n	800361a <HAL_DMA_Start_IT+0x306>
      hdma->DMAmuxRequestGenStatus->RGCFR = hdma->DMAmuxRequestGenStatusMask;
 8003614:	e9d0 671c 	ldrd	r6, r7, [r0, #112]	@ 0x70
 8003618:	6077      	str	r7, [r6, #4]
  if(IS_DMA_STREAM_INSTANCE(hdma->Instance) != 0U) /* DMA1 or DMA2 instance */
 800361a:	f8df e344 	ldr.w	lr, [pc, #836]	@ 8003960 <HAL_DMA_Start_IT+0x64c>
 800361e:	f8df 8354 	ldr.w	r8, [pc, #852]	@ 8003974 <HAL_DMA_Start_IT+0x660>
 8003622:	4544      	cmp	r4, r8
 8003624:	bf18      	it	ne
 8003626:	4574      	cmpne	r4, lr
 8003628:	f108 0818 	add.w	r8, r8, #24
 800362c:	bf0c      	ite	eq
 800362e:	f04f 0e01 	moveq.w	lr, #1
 8003632:	f04f 0e00 	movne.w	lr, #0
 8003636:	4544      	cmp	r4, r8
 8003638:	bf08      	it	eq
 800363a:	f04e 0e01 	orreq.w	lr, lr, #1
 800363e:	f508 7856 	add.w	r8, r8, #856	@ 0x358
 8003642:	4544      	cmp	r4, r8
 8003644:	bf08      	it	eq
 8003646:	f04e 0e01 	orreq.w	lr, lr, #1
 800364a:	f108 0818 	add.w	r8, r8, #24
 800364e:	4544      	cmp	r4, r8
 8003650:	bf08      	it	eq
 8003652:	f04e 0e01 	orreq.w	lr, lr, #1
 8003656:	f108 0818 	add.w	r8, r8, #24
 800365a:	4544      	cmp	r4, r8
 800365c:	bf08      	it	eq
 800365e:	f04e 0e01 	orreq.w	lr, lr, #1
 8003662:	f108 0818 	add.w	r8, r8, #24
 8003666:	4544      	cmp	r4, r8
 8003668:	bf08      	it	eq
 800366a:	f04e 0e01 	orreq.w	lr, lr, #1
 800366e:	f108 0818 	add.w	r8, r8, #24
 8003672:	4544      	cmp	r4, r8
 8003674:	bf08      	it	eq
 8003676:	f04e 0e01 	orreq.w	lr, lr, #1
 800367a:	f108 0818 	add.w	r8, r8, #24
 800367e:	4544      	cmp	r4, r8
 8003680:	bf08      	it	eq
 8003682:	f04e 0e01 	orreq.w	lr, lr, #1
 8003686:	f108 0818 	add.w	r8, r8, #24
 800368a:	4544      	cmp	r4, r8
 800368c:	bf08      	it	eq
 800368e:	f04e 0e01 	orreq.w	lr, lr, #1
 8003692:	f1be 0f00 	cmp.w	lr, #0
 8003696:	f47f ae90 	bne.w	80033ba <HAL_DMA_Start_IT+0xa6>
 800369a:	f8df e2dc 	ldr.w	lr, [pc, #732]	@ 8003978 <HAL_DMA_Start_IT+0x664>
 800369e:	4574      	cmp	r4, lr
 80036a0:	f43f ae8b 	beq.w	80033ba <HAL_DMA_Start_IT+0xa6>
  else if(IS_BDMA_CHANNEL_INSTANCE(hdma->Instance) != 0U) /* BDMA instance(s) */
 80036a4:	f8df c2c0 	ldr.w	ip, [pc, #704]	@ 8003968 <HAL_DMA_Start_IT+0x654>
 80036a8:	f8df e2b8 	ldr.w	lr, [pc, #696]	@ 8003964 <HAL_DMA_Start_IT+0x650>
 80036ac:	4574      	cmp	r4, lr
 80036ae:	bf18      	it	ne
 80036b0:	4564      	cmpne	r4, ip
 80036b2:	f10e 0e14 	add.w	lr, lr, #20
 80036b6:	bf0c      	ite	eq
 80036b8:	f04f 0c01 	moveq.w	ip, #1
 80036bc:	f04f 0c00 	movne.w	ip, #0
 80036c0:	4574      	cmp	r4, lr
 80036c2:	bf08      	it	eq
 80036c4:	f04c 0c01 	orreq.w	ip, ip, #1
 80036c8:	f10e 0e14 	add.w	lr, lr, #20
 80036cc:	4574      	cmp	r4, lr
 80036ce:	bf08      	it	eq
 80036d0:	f04c 0c01 	orreq.w	ip, ip, #1
 80036d4:	f10e 0e14 	add.w	lr, lr, #20
 80036d8:	4574      	cmp	r4, lr
 80036da:	bf08      	it	eq
 80036dc:	f04c 0c01 	orreq.w	ip, ip, #1
 80036e0:	f10e 0e14 	add.w	lr, lr, #20
 80036e4:	4574      	cmp	r4, lr
 80036e6:	bf08      	it	eq
 80036e8:	f04c 0c01 	orreq.w	ip, ip, #1
 80036ec:	f10e 0e14 	add.w	lr, lr, #20
 80036f0:	4574      	cmp	r4, lr
 80036f2:	bf08      	it	eq
 80036f4:	f04c 0c01 	orreq.w	ip, ip, #1
 80036f8:	f1bc 0f00 	cmp.w	ip, #0
 80036fc:	d104      	bne.n	8003708 <HAL_DMA_Start_IT+0x3f4>
 80036fe:	f8df c270 	ldr.w	ip, [pc, #624]	@ 8003970 <HAL_DMA_Start_IT+0x65c>
 8003702:	4564      	cmp	r4, ip
 8003704:	f040 8125 	bne.w	8003952 <HAL_DMA_Start_IT+0x63e>
    regs_bdma->IFCR = (BDMA_ISR_GIF0) << (hdma->StreamIndex & 0x1FU);
 8003708:	6dc6      	ldr	r6, [r0, #92]	@ 0x5c
 800370a:	f04f 0c01 	mov.w	ip, #1
 800370e:	f006 0e1f 	and.w	lr, r6, #31
 8003712:	fa0c fc0e 	lsl.w	ip, ip, lr
 8003716:	f8ca c004 	str.w	ip, [sl, #4]
    ((BDMA_Channel_TypeDef *)hdma->Instance)->CNDTR = DataLength;
 800371a:	6063      	str	r3, [r4, #4]
    if((hdma->Init.Direction) == DMA_MEMORY_TO_PERIPH)
 800371c:	6883      	ldr	r3, [r0, #8]
 800371e:	2b40      	cmp	r3, #64	@ 0x40
 8003720:	f000 8113 	beq.w	800394a <HAL_DMA_Start_IT+0x636>
      ((BDMA_Channel_TypeDef *)hdma->Instance)->CPAR = SrcAddress;
 8003724:	60a1      	str	r1, [r4, #8]
      ((BDMA_Channel_TypeDef *)hdma->Instance)->CM0AR = DstAddress;
 8003726:	60e2      	str	r2, [r4, #12]
    if(IS_DMA_STREAM_INSTANCE(hdma->Instance) != 0U) /* DMA1 or DMA2 instance */
 8003728:	6c02      	ldr	r2, [r0, #64]	@ 0x40
 800372a:	e65e      	b.n	80033ea <HAL_DMA_Start_IT+0xd6>
      MODIFY_REG(((DMA_Stream_TypeDef   *)hdma->Instance)->CR, (DMA_IT_TC | DMA_IT_TE | DMA_IT_DME | DMA_IT_HT), (DMA_IT_TC | DMA_IT_TE | DMA_IT_DME));
 800372c:	6823      	ldr	r3, [r4, #0]
 800372e:	f023 031e 	bic.w	r3, r3, #30
 8003732:	f043 0316 	orr.w	r3, r3, #22
 8003736:	6023      	str	r3, [r4, #0]
      if(hdma->XferHalfCpltCallback != NULL)
 8003738:	b11a      	cbz	r2, 8003742 <HAL_DMA_Start_IT+0x42e>
        ((DMA_Stream_TypeDef   *)hdma->Instance)->CR  |= DMA_IT_HT;
 800373a:	6823      	ldr	r3, [r4, #0]
 800373c:	f043 0308 	orr.w	r3, r3, #8
 8003740:	6023      	str	r3, [r4, #0]
      if((hdma->DMAmuxChannel->CCR & DMAMUX_CxCR_SE) != 0U)
 8003742:	6e03      	ldr	r3, [r0, #96]	@ 0x60
 8003744:	681a      	ldr	r2, [r3, #0]
 8003746:	03d2      	lsls	r2, r2, #15
 8003748:	f57f aec2 	bpl.w	80034d0 <HAL_DMA_Start_IT+0x1bc>
        hdma->DMAmuxChannel->CCR |= DMAMUX_CxCR_SOIE;
 800374c:	681a      	ldr	r2, [r3, #0]
 800374e:	f442 7280 	orr.w	r2, r2, #256	@ 0x100
 8003752:	601a      	str	r2, [r3, #0]
 8003754:	e6bc      	b.n	80034d0 <HAL_DMA_Start_IT+0x1bc>
  __HAL_LOCK(hdma);
 8003756:	2002      	movs	r0, #2
}
 8003758:	e8bd 87f0 	ldmia.w	sp!, {r4, r5, r6, r7, r8, r9, sl, pc}
    return HAL_ERROR;
 800375c:	2001      	movs	r0, #1
}
 800375e:	4770      	bx	lr
      ((DMA_Stream_TypeDef *)hdma->Instance)->PAR = DstAddress;
 8003760:	60a2      	str	r2, [r4, #8]
      ((DMA_Stream_TypeDef *)hdma->Instance)->M0AR = SrcAddress;
 8003762:	60e1      	str	r1, [r4, #12]
 8003764:	e63d      	b.n	80033e2 <HAL_DMA_Start_IT+0xce>
    __HAL_DMA_DISABLE(hdma);
 8003766:	f8df e1f0 	ldr.w	lr, [pc, #496]	@ 8003958 <HAL_DMA_Start_IT+0x644>
 800376a:	f8de c070 	ldr.w	ip, [lr, #112]	@ 0x70
 800376e:	f02c 0c01 	bic.w	ip, ip, #1
 8003772:	f8ce c070 	str.w	ip, [lr, #112]	@ 0x70
    if(hdma->DMAmuxRequestGen != 0U)
 8003776:	f8d0 c06c 	ldr.w	ip, [r0, #108]	@ 0x6c
    hdma->DMAmuxChannelStatus->CFR = hdma->DMAmuxChannelStatusMask;
 800377a:	e9d0 6719 	ldrd	r6, r7, [r0, #100]	@ 0x64
 800377e:	6077      	str	r7, [r6, #4]
    if(hdma->DMAmuxRequestGen != 0U)
 8003780:	f1bc 0f00 	cmp.w	ip, #0
 8003784:	f43f ae19 	beq.w	80033ba <HAL_DMA_Start_IT+0xa6>
      hdma->DMAmuxRequestGenStatus->RGCFR = hdma->DMAmuxRequestGenStatusMask;
 8003788:	e9d0 671c 	ldrd	r6, r7, [r0, #112]	@ 0x70
 800378c:	6077      	str	r7, [r6, #4]
  if(IS_DMA_STREAM_INSTANCE(hdma->Instance) != 0U) /* DMA1 or DMA2 instance */
 800378e:	e614      	b.n	80033ba <HAL_DMA_Start_IT+0xa6>
      MODIFY_REG(((DMA_Stream_TypeDef   *)hdma->Instance)->CR, (DMA_IT_TC | DMA_IT_TE | DMA_IT_DME | DMA_IT_HT), (DMA_IT_TC | DMA_IT_TE | DMA_IT_DME));
 8003790:	4971      	ldr	r1, [pc, #452]	@ (8003958 <HAL_DMA_Start_IT+0x644>)
 8003792:	6f0b      	ldr	r3, [r1, #112]	@ 0x70
 8003794:	f023 031e 	bic.w	r3, r3, #30
 8003798:	f043 0316 	orr.w	r3, r3, #22
 800379c:	670b      	str	r3, [r1, #112]	@ 0x70
      if(hdma->XferHalfCpltCallback != NULL)
 800379e:	2a00      	cmp	r2, #0
 80037a0:	f43f ae8f 	beq.w	80034c2 <HAL_DMA_Start_IT+0x1ae>
        ((DMA_Stream_TypeDef   *)hdma->Instance)->CR  |= DMA_IT_HT;
 80037a4:	6823      	ldr	r3, [r4, #0]
 80037a6:	f043 0308 	orr.w	r3, r3, #8
 80037aa:	6023      	str	r3, [r4, #0]
 80037ac:	e689      	b.n	80034c2 <HAL_DMA_Start_IT+0x1ae>
      MODIFY_REG(((DMA_Stream_TypeDef   *)hdma->Instance)->CR, (DMA_IT_TC | DMA_IT_TE | DMA_IT_DME | DMA_IT_HT), (DMA_IT_TC | DMA_IT_TE | DMA_IT_DME));
 80037ae:	496a      	ldr	r1, [pc, #424]	@ (8003958 <HAL_DMA_Start_IT+0x644>)
 80037b0:	6c0b      	ldr	r3, [r1, #64]	@ 0x40
 80037b2:	f023 031e 	bic.w	r3, r3, #30
 80037b6:	f043 0316 	orr.w	r3, r3, #22
 80037ba:	640b      	str	r3, [r1, #64]	@ 0x40
      if(hdma->XferHalfCpltCallback != NULL)
 80037bc:	2a00      	cmp	r2, #0
 80037be:	d1f1      	bne.n	80037a4 <HAL_DMA_Start_IT+0x490>
 80037c0:	e67f      	b.n	80034c2 <HAL_DMA_Start_IT+0x1ae>
    __HAL_DMA_DISABLE(hdma);
 80037c2:	f8df e194 	ldr.w	lr, [pc, #404]	@ 8003958 <HAL_DMA_Start_IT+0x644>
 80037c6:	f8de c040 	ldr.w	ip, [lr, #64]	@ 0x40
 80037ca:	f02c 0c01 	bic.w	ip, ip, #1
 80037ce:	f8ce c040 	str.w	ip, [lr, #64]	@ 0x40
  if(IS_DMA_DMAMUX_ALL_INSTANCE(hdma->Instance) != 0U) /* No DMAMUX available for BDMA1 */
 80037d2:	e5e2      	b.n	800339a <HAL_DMA_Start_IT+0x86>
    __HAL_DMA_DISABLE(hdma);
 80037d4:	f8df e180 	ldr.w	lr, [pc, #384]	@ 8003958 <HAL_DMA_Start_IT+0x644>
 80037d8:	f8de c058 	ldr.w	ip, [lr, #88]	@ 0x58
 80037dc:	f02c 0c01 	bic.w	ip, ip, #1
 80037e0:	f8ce c058 	str.w	ip, [lr, #88]	@ 0x58
  if(IS_DMA_DMAMUX_ALL_INSTANCE(hdma->Instance) != 0U) /* No DMAMUX available for BDMA1 */
 80037e4:	e7c7      	b.n	8003776 <HAL_DMA_Start_IT+0x462>
      MODIFY_REG(((DMA_Stream_TypeDef   *)hdma->Instance)->CR, (DMA_IT_TC | DMA_IT_TE | DMA_IT_DME | DMA_IT_HT), (DMA_IT_TC | DMA_IT_TE | DMA_IT_DME));
 80037e6:	495c      	ldr	r1, [pc, #368]	@ (8003958 <HAL_DMA_Start_IT+0x644>)
 80037e8:	6d8b      	ldr	r3, [r1, #88]	@ 0x58
 80037ea:	f023 031e 	bic.w	r3, r3, #30
 80037ee:	f043 0316 	orr.w	r3, r3, #22
 80037f2:	658b      	str	r3, [r1, #88]	@ 0x58
      if(hdma->XferHalfCpltCallback != NULL)
 80037f4:	2a00      	cmp	r2, #0
 80037f6:	d1d5      	bne.n	80037a4 <HAL_DMA_Start_IT+0x490>
 80037f8:	e663      	b.n	80034c2 <HAL_DMA_Start_IT+0x1ae>
    __HAL_DMA_DISABLE(hdma);
 80037fa:	f8df e15c 	ldr.w	lr, [pc, #348]	@ 8003958 <HAL_DMA_Start_IT+0x644>
 80037fe:	f8de c088 	ldr.w	ip, [lr, #136]	@ 0x88
 8003802:	f02c 0c01 	bic.w	ip, ip, #1
 8003806:	f8ce c088 	str.w	ip, [lr, #136]	@ 0x88
  if(IS_DMA_DMAMUX_ALL_INSTANCE(hdma->Instance) != 0U) /* No DMAMUX available for BDMA1 */
 800380a:	e6fb      	b.n	8003604 <HAL_DMA_Start_IT+0x2f0>
      MODIFY_REG(((DMA_Stream_TypeDef   *)hdma->Instance)->CR, (DMA_IT_TC | DMA_IT_TE | DMA_IT_DME | DMA_IT_HT), (DMA_IT_TC | DMA_IT_TE | DMA_IT_DME));
 800380c:	4952      	ldr	r1, [pc, #328]	@ (8003958 <HAL_DMA_Start_IT+0x644>)
 800380e:	f8d1 3088 	ldr.w	r3, [r1, #136]	@ 0x88
 8003812:	f023 031e 	bic.w	r3, r3, #30
 8003816:	f043 0316 	orr.w	r3, r3, #22
 800381a:	f8c1 3088 	str.w	r3, [r1, #136]	@ 0x88
      if(hdma->XferHalfCpltCallback != NULL)
 800381e:	2a00      	cmp	r2, #0
 8003820:	d1c0      	bne.n	80037a4 <HAL_DMA_Start_IT+0x490>
 8003822:	e64e      	b.n	80034c2 <HAL_DMA_Start_IT+0x1ae>
      MODIFY_REG(((DMA_Stream_TypeDef   *)hdma->Instance)->CR, (DMA_IT_TC | DMA_IT_TE | DMA_IT_DME | DMA_IT_HT), (DMA_IT_TC | DMA_IT_TE | DMA_IT_DME));
 8003824:	494c      	ldr	r1, [pc, #304]	@ (8003958 <HAL_DMA_Start_IT+0x644>)
 8003826:	f8d1 30a0 	ldr.w	r3, [r1, #160]	@ 0xa0
 800382a:	f023 031e 	bic.w	r3, r3, #30
 800382e:	f043 0316 	orr.w	r3, r3, #22
 8003832:	f8c1 30a0 	str.w	r3, [r1, #160]	@ 0xa0
      if(hdma->XferHalfCpltCallback != NULL)
 8003836:	2a00      	cmp	r2, #0
 8003838:	d1b4      	bne.n	80037a4 <HAL_DMA_Start_IT+0x490>
 800383a:	e642      	b.n	80034c2 <HAL_DMA_Start_IT+0x1ae>
    __HAL_DMA_DISABLE(hdma);
 800383c:	f8df e118 	ldr.w	lr, [pc, #280]	@ 8003958 <HAL_DMA_Start_IT+0x644>
 8003840:	f8de c0a0 	ldr.w	ip, [lr, #160]	@ 0xa0
 8003844:	f02c 0c01 	bic.w	ip, ip, #1
 8003848:	f8ce c0a0 	str.w	ip, [lr, #160]	@ 0xa0
  if(IS_DMA_DMAMUX_ALL_INSTANCE(hdma->Instance) != 0U) /* No DMAMUX available for BDMA1 */
 800384c:	e6da      	b.n	8003604 <HAL_DMA_Start_IT+0x2f0>
    __HAL_DMA_DISABLE(hdma);
 800384e:	f8df e108 	ldr.w	lr, [pc, #264]	@ 8003958 <HAL_DMA_Start_IT+0x644>
 8003852:	f8de c0b8 	ldr.w	ip, [lr, #184]	@ 0xb8
 8003856:	f02c 0c01 	bic.w	ip, ip, #1
 800385a:	f8ce c0b8 	str.w	ip, [lr, #184]	@ 0xb8
  if(IS_DMA_DMAMUX_ALL_INSTANCE(hdma->Instance) != 0U) /* No DMAMUX available for BDMA1 */
 800385e:	e6d1      	b.n	8003604 <HAL_DMA_Start_IT+0x2f0>
      MODIFY_REG(((DMA_Stream_TypeDef   *)hdma->Instance)->CR, (DMA_IT_TC | DMA_IT_TE | DMA_IT_DME | DMA_IT_HT), (DMA_IT_TC | DMA_IT_TE | DMA_IT_DME));
 8003860:	493d      	ldr	r1, [pc, #244]	@ (8003958 <HAL_DMA_Start_IT+0x644>)
 8003862:	f8d1 30b8 	ldr.w	r3, [r1, #184]	@ 0xb8
 8003866:	f023 031e 	bic.w	r3, r3, #30
 800386a:	f043 0316 	orr.w	r3, r3, #22
 800386e:	f8c1 30b8 	str.w	r3, [r1, #184]	@ 0xb8
      if(hdma->XferHalfCpltCallback != NULL)
 8003872:	2a00      	cmp	r2, #0
 8003874:	d196      	bne.n	80037a4 <HAL_DMA_Start_IT+0x490>
 8003876:	e624      	b.n	80034c2 <HAL_DMA_Start_IT+0x1ae>
    __HAL_DMA_DISABLE(hdma);
 8003878:	f8df e0e0 	ldr.w	lr, [pc, #224]	@ 800395c <HAL_DMA_Start_IT+0x648>
 800387c:	f8de c010 	ldr.w	ip, [lr, #16]
 8003880:	f02c 0c01 	bic.w	ip, ip, #1
 8003884:	f8ce c010 	str.w	ip, [lr, #16]
  if(IS_DMA_DMAMUX_ALL_INSTANCE(hdma->Instance) != 0U) /* No DMAMUX available for BDMA1 */
 8003888:	e6bc      	b.n	8003604 <HAL_DMA_Start_IT+0x2f0>
      MODIFY_REG(((DMA_Stream_TypeDef   *)hdma->Instance)->CR, (DMA_IT_TC | DMA_IT_TE | DMA_IT_DME | DMA_IT_HT), (DMA_IT_TC | DMA_IT_TE | DMA_IT_DME));
 800388a:	4934      	ldr	r1, [pc, #208]	@ (800395c <HAL_DMA_Start_IT+0x648>)
 800388c:	690b      	ldr	r3, [r1, #16]
 800388e:	f023 031e 	bic.w	r3, r3, #30
 8003892:	f043 0316 	orr.w	r3, r3, #22
 8003896:	610b      	str	r3, [r1, #16]
      if(hdma->XferHalfCpltCallback != NULL)
 8003898:	2a00      	cmp	r2, #0
 800389a:	d183      	bne.n	80037a4 <HAL_DMA_Start_IT+0x490>
 800389c:	e611      	b.n	80034c2 <HAL_DMA_Start_IT+0x1ae>
    __HAL_DMA_DISABLE(hdma);
 800389e:	f8df e0bc 	ldr.w	lr, [pc, #188]	@ 800395c <HAL_DMA_Start_IT+0x648>
 80038a2:	f8de c028 	ldr.w	ip, [lr, #40]	@ 0x28
 80038a6:	f02c 0c01 	bic.w	ip, ip, #1
 80038aa:	f8ce c028 	str.w	ip, [lr, #40]	@ 0x28
  if(IS_DMA_DMAMUX_ALL_INSTANCE(hdma->Instance) != 0U) /* No DMAMUX available for BDMA1 */
 80038ae:	e6a9      	b.n	8003604 <HAL_DMA_Start_IT+0x2f0>
      MODIFY_REG(((DMA_Stream_TypeDef   *)hdma->Instance)->CR, (DMA_IT_TC | DMA_IT_TE | DMA_IT_DME | DMA_IT_HT), (DMA_IT_TC | DMA_IT_TE | DMA_IT_DME));
 80038b0:	492a      	ldr	r1, [pc, #168]	@ (800395c <HAL_DMA_Start_IT+0x648>)
 80038b2:	6a8b      	ldr	r3, [r1, #40]	@ 0x28
 80038b4:	f023 031e 	bic.w	r3, r3, #30
 80038b8:	f043 0316 	orr.w	r3, r3, #22
 80038bc:	628b      	str	r3, [r1, #40]	@ 0x28
      if(hdma->XferHalfCpltCallback != NULL)
 80038be:	2a00      	cmp	r2, #0
 80038c0:	f47f af70 	bne.w	80037a4 <HAL_DMA_Start_IT+0x490>
 80038c4:	e5fd      	b.n	80034c2 <HAL_DMA_Start_IT+0x1ae>
      MODIFY_REG(((DMA_Stream_TypeDef   *)hdma->Instance)->CR, (DMA_IT_TC | DMA_IT_TE | DMA_IT_DME | DMA_IT_HT), (DMA_IT_TC | DMA_IT_TE | DMA_IT_DME));
 80038c6:	4925      	ldr	r1, [pc, #148]	@ (800395c <HAL_DMA_Start_IT+0x648>)
 80038c8:	e772      	b.n	80037b0 <HAL_DMA_Start_IT+0x49c>
    __HAL_DMA_DISABLE(hdma);
 80038ca:	f8df e090 	ldr.w	lr, [pc, #144]	@ 800395c <HAL_DMA_Start_IT+0x648>
 80038ce:	f8de c040 	ldr.w	ip, [lr, #64]	@ 0x40
 80038d2:	f02c 0c01 	bic.w	ip, ip, #1
 80038d6:	f8ce c040 	str.w	ip, [lr, #64]	@ 0x40
  if(IS_DMA_DMAMUX_ALL_INSTANCE(hdma->Instance) != 0U) /* No DMAMUX available for BDMA1 */
 80038da:	e693      	b.n	8003604 <HAL_DMA_Start_IT+0x2f0>
      MODIFY_REG(((DMA_Stream_TypeDef   *)hdma->Instance)->CR, (DMA_IT_TC | DMA_IT_TE | DMA_IT_DME | DMA_IT_HT), (DMA_IT_TC | DMA_IT_TE | DMA_IT_DME));
 80038dc:	491f      	ldr	r1, [pc, #124]	@ (800395c <HAL_DMA_Start_IT+0x648>)
 80038de:	e783      	b.n	80037e8 <HAL_DMA_Start_IT+0x4d4>
    __HAL_DMA_DISABLE(hdma);
 80038e0:	f8df e078 	ldr.w	lr, [pc, #120]	@ 800395c <HAL_DMA_Start_IT+0x648>
 80038e4:	f8de c058 	ldr.w	ip, [lr, #88]	@ 0x58
 80038e8:	f02c 0c01 	bic.w	ip, ip, #1
 80038ec:	f8ce c058 	str.w	ip, [lr, #88]	@ 0x58
  if(IS_DMA_DMAMUX_ALL_INSTANCE(hdma->Instance) != 0U) /* No DMAMUX available for BDMA1 */
 80038f0:	e688      	b.n	8003604 <HAL_DMA_Start_IT+0x2f0>
      MODIFY_REG(((DMA_Stream_TypeDef   *)hdma->Instance)->CR, (DMA_IT_TC | DMA_IT_TE | DMA_IT_DME | DMA_IT_HT), (DMA_IT_TC | DMA_IT_TE | DMA_IT_DME));
 80038f2:	491a      	ldr	r1, [pc, #104]	@ (800395c <HAL_DMA_Start_IT+0x648>)
 80038f4:	e74d      	b.n	8003792 <HAL_DMA_Start_IT+0x47e>
    __HAL_DMA_DISABLE(hdma);
 80038f6:	f8df e064 	ldr.w	lr, [pc, #100]	@ 800395c <HAL_DMA_Start_IT+0x648>
 80038fa:	f8de c070 	ldr.w	ip, [lr, #112]	@ 0x70
 80038fe:	f02c 0c01 	bic.w	ip, ip, #1
 8003902:	f8ce c070 	str.w	ip, [lr, #112]	@ 0x70
  if(IS_DMA_DMAMUX_ALL_INSTANCE(hdma->Instance) != 0U) /* No DMAMUX available for BDMA1 */
 8003906:	e67d      	b.n	8003604 <HAL_DMA_Start_IT+0x2f0>
    __HAL_DMA_DISABLE(hdma);
 8003908:	f8df e050 	ldr.w	lr, [pc, #80]	@ 800395c <HAL_DMA_Start_IT+0x648>
 800390c:	f8de c088 	ldr.w	ip, [lr, #136]	@ 0x88
 8003910:	f02c 0c01 	bic.w	ip, ip, #1
 8003914:	f8ce c088 	str.w	ip, [lr, #136]	@ 0x88
  if(IS_DMA_DMAMUX_ALL_INSTANCE(hdma->Instance) != 0U) /* No DMAMUX available for BDMA1 */
 8003918:	e674      	b.n	8003604 <HAL_DMA_Start_IT+0x2f0>
      MODIFY_REG(((DMA_Stream_TypeDef   *)hdma->Instance)->CR, (DMA_IT_TC | DMA_IT_TE | DMA_IT_DME | DMA_IT_HT), (DMA_IT_TC | DMA_IT_TE | DMA_IT_DME));
 800391a:	4910      	ldr	r1, [pc, #64]	@ (800395c <HAL_DMA_Start_IT+0x648>)
 800391c:	e777      	b.n	800380e <HAL_DMA_Start_IT+0x4fa>
 800391e:	490f      	ldr	r1, [pc, #60]	@ (800395c <HAL_DMA_Start_IT+0x648>)
 8003920:	e781      	b.n	8003826 <HAL_DMA_Start_IT+0x512>
    __HAL_DMA_DISABLE(hdma);
 8003922:	f8df e038 	ldr.w	lr, [pc, #56]	@ 800395c <HAL_DMA_Start_IT+0x648>
 8003926:	f8de c0a0 	ldr.w	ip, [lr, #160]	@ 0xa0
 800392a:	f02c 0c01 	bic.w	ip, ip, #1
 800392e:	f8ce c0a0 	str.w	ip, [lr, #160]	@ 0xa0
  if(IS_DMA_DMAMUX_ALL_INSTANCE(hdma->Instance) != 0U) /* No DMAMUX available for BDMA1 */
 8003932:	e667      	b.n	8003604 <HAL_DMA_Start_IT+0x2f0>
    __HAL_DMA_DISABLE(hdma);
 8003934:	f8df e024 	ldr.w	lr, [pc, #36]	@ 800395c <HAL_DMA_Start_IT+0x648>
 8003938:	f8de c0b8 	ldr.w	ip, [lr, #184]	@ 0xb8
 800393c:	f02c 0c01 	bic.w	ip, ip, #1
 8003940:	f8ce c0b8 	str.w	ip, [lr, #184]	@ 0xb8
  if(IS_DMA_DMAMUX_ALL_INSTANCE(hdma->Instance) != 0U) /* No DMAMUX available for BDMA1 */
 8003944:	e65e      	b.n	8003604 <HAL_DMA_Start_IT+0x2f0>
      MODIFY_REG(((DMA_Stream_TypeDef   *)hdma->Instance)->CR, (DMA_IT_TC | DMA_IT_TE | DMA_IT_DME | DMA_IT_HT), (DMA_IT_TC | DMA_IT_TE | DMA_IT_DME));
 8003946:	4905      	ldr	r1, [pc, #20]	@ (800395c <HAL_DMA_Start_IT+0x648>)
 8003948:	e78b      	b.n	8003862 <HAL_DMA_Start_IT+0x54e>
      ((BDMA_Channel_TypeDef *)hdma->Instance)->CPAR = DstAddress;
 800394a:	60a2      	str	r2, [r4, #8]
      ((BDMA_Channel_TypeDef *)hdma->Instance)->CM0AR = SrcAddress;
 800394c:	6c02      	ldr	r2, [r0, #64]	@ 0x40
 800394e:	60e1      	str	r1, [r4, #12]
    if(IS_DMA_STREAM_INSTANCE(hdma->Instance) != 0U) /* DMA1 or DMA2 instance */
 8003950:	e54b      	b.n	80033ea <HAL_DMA_Start_IT+0xd6>
 8003952:	6c02      	ldr	r2, [r0, #64]	@ 0x40
 8003954:	e555      	b.n	8003402 <HAL_DMA_Start_IT+0xee>
 8003956:	bf00      	nop
 8003958:	40020000 	.word	0x40020000
 800395c:	40020400 	.word	0x40020400
 8003960:	40020088 	.word	0x40020088
 8003964:	5802541c 	.word	0x5802541c
 8003968:	58025408 	.word	0x58025408
 800396c:	58025480 	.word	0x58025480
 8003970:	58025494 	.word	0x58025494
 8003974:	400200a0 	.word	0x400200a0
 8003978:	400204b8 	.word	0x400204b8

0800397c <HAL_DMA_IRQHandler>:
{
 800397c:	b5f0      	push	{r4, r5, r6, r7, lr}
  __IO uint32_t count = 0U;
 800397e:	2200      	movs	r2, #0
  uint32_t timeout = SystemCoreClock / 9600U;
 8003980:	4b94      	ldr	r3, [pc, #592]	@ (8003bd4 <HAL_DMA_IRQHandler+0x258>)
{
 8003982:	b083      	sub	sp, #12
  DMA_Base_Registers  *regs_dma  = (DMA_Base_Registers *)hdma->StreamBaseAddress;
 8003984:	6d85      	ldr	r5, [r0, #88]	@ 0x58
{
 8003986:	4607      	mov	r7, r0
  uint32_t timeout = SystemCoreClock / 9600U;
 8003988:	681e      	ldr	r6, [r3, #0]
  __IO uint32_t count = 0U;
 800398a:	9201      	str	r2, [sp, #4]
  if(IS_DMA_STREAM_INSTANCE(hdma->Instance) != 0U)  /* DMA1 or DMA2 instance */
 800398c:	4b92      	ldr	r3, [pc, #584]	@ (8003bd8 <HAL_DMA_IRQHandler+0x25c>)
 800398e:	6802      	ldr	r2, [r0, #0]
 8003990:	4892      	ldr	r0, [pc, #584]	@ (8003bdc <HAL_DMA_IRQHandler+0x260>)
  tmpisr_dma  = regs_dma->ISR;
 8003992:	682c      	ldr	r4, [r5, #0]
  if(IS_DMA_STREAM_INSTANCE(hdma->Instance) != 0U)  /* DMA1 or DMA2 instance */
 8003994:	4282      	cmp	r2, r0
 8003996:	bf18      	it	ne
 8003998:	429a      	cmpne	r2, r3
 800399a:	f100 0018 	add.w	r0, r0, #24
  tmpisr_bdma = regs_bdma->ISR;
 800399e:	6829      	ldr	r1, [r5, #0]
  if(IS_DMA_STREAM_INSTANCE(hdma->Instance) != 0U)  /* DMA1 or DMA2 instance */
 80039a0:	bf0c      	ite	eq
 80039a2:	2301      	moveq	r3, #1
 80039a4:	2300      	movne	r3, #0
 80039a6:	4282      	cmp	r2, r0
 80039a8:	bf08      	it	eq
 80039aa:	f043 0301 	orreq.w	r3, r3, #1
 80039ae:	3018      	adds	r0, #24
 80039b0:	4282      	cmp	r2, r0
 80039b2:	bf08      	it	eq
 80039b4:	f043 0301 	orreq.w	r3, r3, #1
 80039b8:	3018      	adds	r0, #24
 80039ba:	4282      	cmp	r2, r0
 80039bc:	bf08      	it	eq
 80039be:	f043 0301 	orreq.w	r3, r3, #1
 80039c2:	3018      	adds	r0, #24
 80039c4:	4282      	cmp	r2, r0
 80039c6:	bf08      	it	eq
 80039c8:	f043 0301 	orreq.w	r3, r3, #1
 80039cc:	3018      	adds	r0, #24
 80039ce:	4282      	cmp	r2, r0
 80039d0:	bf08      	it	eq
 80039d2:	f043 0301 	orreq.w	r3, r3, #1
 80039d6:	3018      	adds	r0, #24
 80039d8:	4282      	cmp	r2, r0
 80039da:	bf08      	it	eq
 80039dc:	f043 0301 	orreq.w	r3, r3, #1
 80039e0:	f500 7056 	add.w	r0, r0, #856	@ 0x358
 80039e4:	4282      	cmp	r2, r0
 80039e6:	bf08      	it	eq
 80039e8:	f043 0301 	orreq.w	r3, r3, #1
 80039ec:	3018      	adds	r0, #24
 80039ee:	4282      	cmp	r2, r0
 80039f0:	bf08      	it	eq
 80039f2:	f043 0301 	orreq.w	r3, r3, #1
 80039f6:	3018      	adds	r0, #24
 80039f8:	4282      	cmp	r2, r0
 80039fa:	bf08      	it	eq
 80039fc:	f043 0301 	orreq.w	r3, r3, #1
 8003a00:	3018      	adds	r0, #24
 8003a02:	4282      	cmp	r2, r0
 8003a04:	bf08      	it	eq
 8003a06:	f043 0301 	orreq.w	r3, r3, #1
 8003a0a:	3018      	adds	r0, #24
 8003a0c:	4282      	cmp	r2, r0
 8003a0e:	bf08      	it	eq
 8003a10:	f043 0301 	orreq.w	r3, r3, #1
 8003a14:	3018      	adds	r0, #24
 8003a16:	4282      	cmp	r2, r0
 8003a18:	bf08      	it	eq
 8003a1a:	f043 0301 	orreq.w	r3, r3, #1
 8003a1e:	3018      	adds	r0, #24
 8003a20:	4282      	cmp	r2, r0
 8003a22:	bf08      	it	eq
 8003a24:	f043 0301 	orreq.w	r3, r3, #1
 8003a28:	b91b      	cbnz	r3, 8003a32 <HAL_DMA_IRQHandler+0xb6>
 8003a2a:	4b6d      	ldr	r3, [pc, #436]	@ (8003be0 <HAL_DMA_IRQHandler+0x264>)
 8003a2c:	429a      	cmp	r2, r3
 8003a2e:	f040 812f 	bne.w	8003c90 <HAL_DMA_IRQHandler+0x314>
    if ((tmpisr_dma & (DMA_FLAG_TEIF0_4 << (hdma->StreamIndex & 0x1FU))) != 0U)
 8003a32:	6dfb      	ldr	r3, [r7, #92]	@ 0x5c
 8003a34:	2108      	movs	r1, #8
 8003a36:	f003 031f 	and.w	r3, r3, #31
 8003a3a:	4099      	lsls	r1, r3
 8003a3c:	4221      	tst	r1, r4
 8003a3e:	d00b      	beq.n	8003a58 <HAL_DMA_IRQHandler+0xdc>
      if(__HAL_DMA_GET_IT_SOURCE(hdma, DMA_IT_TE) != 0U)
 8003a40:	6810      	ldr	r0, [r2, #0]
 8003a42:	0740      	lsls	r0, r0, #29
 8003a44:	d508      	bpl.n	8003a58 <HAL_DMA_IRQHandler+0xdc>
        ((DMA_Stream_TypeDef   *)hdma->Instance)->CR  &= ~(DMA_IT_TE);
 8003a46:	6810      	ldr	r0, [r2, #0]
 8003a48:	f020 0004 	bic.w	r0, r0, #4
 8003a4c:	6010      	str	r0, [r2, #0]
        regs_dma->IFCR = DMA_FLAG_TEIF0_4 << (hdma->StreamIndex & 0x1FU);
 8003a4e:	60a9      	str	r1, [r5, #8]
        hdma->ErrorCode |= HAL_DMA_ERROR_TE;
 8003a50:	6d79      	ldr	r1, [r7, #84]	@ 0x54
 8003a52:	f041 0101 	orr.w	r1, r1, #1
 8003a56:	6579      	str	r1, [r7, #84]	@ 0x54
    if ((tmpisr_dma & (DMA_FLAG_FEIF0_4 << (hdma->StreamIndex & 0x1FU))) != 0U)
 8003a58:	fa24 f103 	lsr.w	r1, r4, r3
 8003a5c:	07c8      	lsls	r0, r1, #31
 8003a5e:	d509      	bpl.n	8003a74 <HAL_DMA_IRQHandler+0xf8>
      if(__HAL_DMA_GET_IT_SOURCE(hdma, DMA_IT_FE) != 0U)
 8003a60:	6951      	ldr	r1, [r2, #20]
 8003a62:	0609      	lsls	r1, r1, #24
 8003a64:	d506      	bpl.n	8003a74 <HAL_DMA_IRQHandler+0xf8>
        regs_dma->IFCR = DMA_FLAG_FEIF0_4 << (hdma->StreamIndex & 0x1FU);
 8003a66:	2101      	movs	r1, #1
 8003a68:	4099      	lsls	r1, r3
 8003a6a:	60a9      	str	r1, [r5, #8]
        hdma->ErrorCode |= HAL_DMA_ERROR_FE;
 8003a6c:	6d79      	ldr	r1, [r7, #84]	@ 0x54
 8003a6e:	f041 0102 	orr.w	r1, r1, #2
 8003a72:	6579      	str	r1, [r7, #84]	@ 0x54
    if ((tmpisr_dma & (DMA_FLAG_DMEIF0_4 << (hdma->StreamIndex & 0x1FU))) != 0U)
 8003a74:	2104      	movs	r1, #4
 8003a76:	4099      	lsls	r1, r3
 8003a78:	4221      	tst	r1, r4
 8003a7a:	d007      	beq.n	8003a8c <HAL_DMA_IRQHandler+0x110>
      if(__HAL_DMA_GET_IT_SOURCE(hdma, DMA_IT_DME) != 0U)
 8003a7c:	6810      	ldr	r0, [r2, #0]
 8003a7e:	0780      	lsls	r0, r0, #30
 8003a80:	d504      	bpl.n	8003a8c <HAL_DMA_IRQHandler+0x110>
        regs_dma->IFCR = DMA_FLAG_DMEIF0_4 << (hdma->StreamIndex & 0x1FU);
 8003a82:	60a9      	str	r1, [r5, #8]
        hdma->ErrorCode |= HAL_DMA_ERROR_DME;
 8003a84:	6d79      	ldr	r1, [r7, #84]	@ 0x54
 8003a86:	f041 0104 	orr.w	r1, r1, #4
 8003a8a:	6579      	str	r1, [r7, #84]	@ 0x54
    if ((tmpisr_dma & (DMA_FLAG_HTIF0_4 << (hdma->StreamIndex & 0x1FU))) != 0U)
 8003a8c:	2110      	movs	r1, #16
 8003a8e:	4099      	lsls	r1, r3
 8003a90:	4221      	tst	r1, r4
 8003a92:	f000 80b0 	beq.w	8003bf6 <HAL_DMA_IRQHandler+0x27a>
      if(__HAL_DMA_GET_IT_SOURCE(hdma, DMA_IT_HT) != 0U)
 8003a96:	6810      	ldr	r0, [r2, #0]
 8003a98:	0700      	lsls	r0, r0, #28
 8003a9a:	f140 80ac 	bpl.w	8003bf6 <HAL_DMA_IRQHandler+0x27a>
        regs_dma->IFCR = DMA_FLAG_HTIF0_4 << (hdma->StreamIndex & 0x1FU);
 8003a9e:	60a9      	str	r1, [r5, #8]
        if(((((DMA_Stream_TypeDef   *)hdma->Instance)->CR) & (uint32_t)(DMA_SxCR_DBM)) != 0U)
 8003aa0:	6811      	ldr	r1, [r2, #0]
 8003aa2:	f411 2f80 	tst.w	r1, #262144	@ 0x40000
          if((((DMA_Stream_TypeDef   *)hdma->Instance)->CR & DMA_SxCR_CT) == 0U)
 8003aa6:	6811      	ldr	r1, [r2, #0]
        if(((((DMA_Stream_TypeDef   *)hdma->Instance)->CR) & (uint32_t)(DMA_SxCR_DBM)) != 0U)
 8003aa8:	f040 809e 	bne.w	8003be8 <HAL_DMA_IRQHandler+0x26c>
          if((((DMA_Stream_TypeDef   *)hdma->Instance)->CR & DMA_SxCR_CIRC) == 0U)
 8003aac:	05c9      	lsls	r1, r1, #23
 8003aae:	d403      	bmi.n	8003ab8 <HAL_DMA_IRQHandler+0x13c>
            ((DMA_Stream_TypeDef   *)hdma->Instance)->CR  &= ~(DMA_IT_HT);
 8003ab0:	6811      	ldr	r1, [r2, #0]
 8003ab2:	f021 0108 	bic.w	r1, r1, #8
 8003ab6:	6011      	str	r1, [r2, #0]
          if(hdma->XferHalfCpltCallback != NULL)
 8003ab8:	6c39      	ldr	r1, [r7, #64]	@ 0x40
 8003aba:	2900      	cmp	r1, #0
 8003abc:	f000 809b 	beq.w	8003bf6 <HAL_DMA_IRQHandler+0x27a>
            hdma->XferHalfCpltCallback(hdma);
 8003ac0:	4638      	mov	r0, r7
 8003ac2:	4788      	blx	r1
    if ((tmpisr_dma & (DMA_FLAG_TCIF0_4 << (hdma->StreamIndex & 0x1FU))) != 0U)
 8003ac4:	6dfb      	ldr	r3, [r7, #92]	@ 0x5c
 8003ac6:	2120      	movs	r1, #32
 8003ac8:	f003 031f 	and.w	r3, r3, #31
 8003acc:	4099      	lsls	r1, r3
 8003ace:	4221      	tst	r1, r4
 8003ad0:	d053      	beq.n	8003b7a <HAL_DMA_IRQHandler+0x1fe>
      if(__HAL_DMA_GET_IT_SOURCE(hdma, DMA_IT_TC) != 0U)
 8003ad2:	683a      	ldr	r2, [r7, #0]
 8003ad4:	4840      	ldr	r0, [pc, #256]	@ (8003bd8 <HAL_DMA_IRQHandler+0x25c>)
 8003ad6:	4c41      	ldr	r4, [pc, #260]	@ (8003bdc <HAL_DMA_IRQHandler+0x260>)
 8003ad8:	42a2      	cmp	r2, r4
 8003ada:	bf18      	it	ne
 8003adc:	4282      	cmpne	r2, r0
 8003ade:	f104 0418 	add.w	r4, r4, #24
 8003ae2:	bf0c      	ite	eq
 8003ae4:	2001      	moveq	r0, #1
 8003ae6:	2000      	movne	r0, #0
 8003ae8:	42a2      	cmp	r2, r4
 8003aea:	bf08      	it	eq
 8003aec:	f040 0001 	orreq.w	r0, r0, #1
 8003af0:	3418      	adds	r4, #24
 8003af2:	42a2      	cmp	r2, r4
 8003af4:	bf08      	it	eq
 8003af6:	f040 0001 	orreq.w	r0, r0, #1
 8003afa:	3418      	adds	r4, #24
 8003afc:	42a2      	cmp	r2, r4
 8003afe:	bf08      	it	eq
 8003b00:	f040 0001 	orreq.w	r0, r0, #1
 8003b04:	3418      	adds	r4, #24
 8003b06:	42a2      	cmp	r2, r4
 8003b08:	bf08      	it	eq
 8003b0a:	f040 0001 	orreq.w	r0, r0, #1
 8003b0e:	3418      	adds	r4, #24
 8003b10:	42a2      	cmp	r2, r4
 8003b12:	bf08      	it	eq
 8003b14:	f040 0001 	orreq.w	r0, r0, #1
 8003b18:	3418      	adds	r4, #24
 8003b1a:	42a2      	cmp	r2, r4
 8003b1c:	bf08      	it	eq
 8003b1e:	f040 0001 	orreq.w	r0, r0, #1
 8003b22:	f504 7456 	add.w	r4, r4, #856	@ 0x358
 8003b26:	42a2      	cmp	r2, r4
 8003b28:	bf08      	it	eq
 8003b2a:	f040 0001 	orreq.w	r0, r0, #1
 8003b2e:	3418      	adds	r4, #24
 8003b30:	42a2      	cmp	r2, r4
 8003b32:	bf08      	it	eq
 8003b34:	f040 0001 	orreq.w	r0, r0, #1
 8003b38:	3418      	adds	r4, #24
 8003b3a:	42a2      	cmp	r2, r4
 8003b3c:	bf08      	it	eq
 8003b3e:	f040 0001 	orreq.w	r0, r0, #1
 8003b42:	3418      	adds	r4, #24
 8003b44:	42a2      	cmp	r2, r4
 8003b46:	bf08      	it	eq
 8003b48:	f040 0001 	orreq.w	r0, r0, #1
 8003b4c:	3418      	adds	r4, #24
 8003b4e:	42a2      	cmp	r2, r4
 8003b50:	bf08      	it	eq
 8003b52:	f040 0001 	orreq.w	r0, r0, #1
 8003b56:	3418      	adds	r4, #24
 8003b58:	42a2      	cmp	r2, r4
 8003b5a:	bf08      	it	eq
 8003b5c:	f040 0001 	orreq.w	r0, r0, #1
 8003b60:	3418      	adds	r4, #24
 8003b62:	42a2      	cmp	r2, r4
 8003b64:	bf08      	it	eq
 8003b66:	f040 0001 	orreq.w	r0, r0, #1
 8003b6a:	2800      	cmp	r0, #0
 8003b6c:	d147      	bne.n	8003bfe <HAL_DMA_IRQHandler+0x282>
 8003b6e:	481c      	ldr	r0, [pc, #112]	@ (8003be0 <HAL_DMA_IRQHandler+0x264>)
 8003b70:	4282      	cmp	r2, r0
 8003b72:	d044      	beq.n	8003bfe <HAL_DMA_IRQHandler+0x282>
 8003b74:	6810      	ldr	r0, [r2, #0]
 8003b76:	0780      	lsls	r0, r0, #30
 8003b78:	d444      	bmi.n	8003c04 <HAL_DMA_IRQHandler+0x288>
    if(hdma->ErrorCode != HAL_DMA_ERROR_NONE)
 8003b7a:	6d7b      	ldr	r3, [r7, #84]	@ 0x54
 8003b7c:	2b00      	cmp	r3, #0
 8003b7e:	d070      	beq.n	8003c62 <HAL_DMA_IRQHandler+0x2e6>
      if((hdma->ErrorCode & HAL_DMA_ERROR_TE) != 0U)
 8003b80:	6d7b      	ldr	r3, [r7, #84]	@ 0x54
 8003b82:	07dc      	lsls	r4, r3, #31
 8003b84:	d51e      	bpl.n	8003bc4 <HAL_DMA_IRQHandler+0x248>
        __HAL_DMA_DISABLE(hdma);
 8003b86:	683a      	ldr	r2, [r7, #0]
        hdma->State = HAL_DMA_STATE_ABORT;
 8003b88:	2104      	movs	r1, #4
 8003b8a:	f887 1035 	strb.w	r1, [r7, #53]	@ 0x35
  uint32_t timeout = SystemCoreClock / 9600U;
 8003b8e:	4915      	ldr	r1, [pc, #84]	@ (8003be4 <HAL_DMA_IRQHandler+0x268>)
        __HAL_DMA_DISABLE(hdma);
 8003b90:	6813      	ldr	r3, [r2, #0]
  uint32_t timeout = SystemCoreClock / 9600U;
 8003b92:	fba1 6106 	umull	r6, r1, r1, r6
        __HAL_DMA_DISABLE(hdma);
 8003b96:	f023 0301 	bic.w	r3, r3, #1
  uint32_t timeout = SystemCoreClock / 9600U;
 8003b9a:	0a89      	lsrs	r1, r1, #10
        __HAL_DMA_DISABLE(hdma);
 8003b9c:	6013      	str	r3, [r2, #0]
 8003b9e:	e002      	b.n	8003ba6 <HAL_DMA_IRQHandler+0x22a>
        while((((DMA_Stream_TypeDef   *)hdma->Instance)->CR & DMA_SxCR_EN) != 0U);
 8003ba0:	6813      	ldr	r3, [r2, #0]
 8003ba2:	07d8      	lsls	r0, r3, #31
 8003ba4:	d504      	bpl.n	8003bb0 <HAL_DMA_IRQHandler+0x234>
          if (++count > timeout)
 8003ba6:	9b01      	ldr	r3, [sp, #4]
 8003ba8:	3301      	adds	r3, #1
 8003baa:	428b      	cmp	r3, r1
 8003bac:	9301      	str	r3, [sp, #4]
 8003bae:	d9f7      	bls.n	8003ba0 <HAL_DMA_IRQHandler+0x224>
        if((((DMA_Stream_TypeDef   *)hdma->Instance)->CR & DMA_SxCR_EN) != 0U)
 8003bb0:	6813      	ldr	r3, [r2, #0]
 8003bb2:	07db      	lsls	r3, r3, #31
          hdma->State = HAL_DMA_STATE_ERROR;
 8003bb4:	bf4c      	ite	mi
 8003bb6:	2303      	movmi	r3, #3
          hdma->State = HAL_DMA_STATE_READY;
 8003bb8:	2301      	movpl	r3, #1
 8003bba:	f887 3035 	strb.w	r3, [r7, #53]	@ 0x35
        __HAL_UNLOCK(hdma);
 8003bbe:	2300      	movs	r3, #0
 8003bc0:	f887 3034 	strb.w	r3, [r7, #52]	@ 0x34
      if(hdma->XferErrorCallback != NULL)
 8003bc4:	6cfb      	ldr	r3, [r7, #76]	@ 0x4c
 8003bc6:	2b00      	cmp	r3, #0
 8003bc8:	d04b      	beq.n	8003c62 <HAL_DMA_IRQHandler+0x2e6>
          hdma->XferCpltCallback(hdma);
 8003bca:	4638      	mov	r0, r7
}
 8003bcc:	b003      	add	sp, #12
 8003bce:	e8bd 40f0 	ldmia.w	sp!, {r4, r5, r6, r7, lr}
          hdma->XferCpltCallback(hdma);
 8003bd2:	4718      	bx	r3
 8003bd4:	2400004c 	.word	0x2400004c
 8003bd8:	40020010 	.word	0x40020010
 8003bdc:	40020028 	.word	0x40020028
 8003be0:	400204b8 	.word	0x400204b8
 8003be4:	1b4e81b5 	.word	0x1b4e81b5
          if((((DMA_Stream_TypeDef   *)hdma->Instance)->CR & DMA_SxCR_CT) == 0U)
 8003be8:	0308      	lsls	r0, r1, #12
 8003bea:	f57f af65 	bpl.w	8003ab8 <HAL_DMA_IRQHandler+0x13c>
            if(hdma->XferM1HalfCpltCallback != NULL)
 8003bee:	6cb9      	ldr	r1, [r7, #72]	@ 0x48
 8003bf0:	2900      	cmp	r1, #0
 8003bf2:	f47f af65 	bne.w	8003ac0 <HAL_DMA_IRQHandler+0x144>
    if ((tmpisr_dma & (DMA_FLAG_TCIF0_4 << (hdma->StreamIndex & 0x1FU))) != 0U)
 8003bf6:	2120      	movs	r1, #32
 8003bf8:	4099      	lsls	r1, r3
 8003bfa:	420c      	tst	r4, r1
 8003bfc:	d0bd      	beq.n	8003b7a <HAL_DMA_IRQHandler+0x1fe>
      if(__HAL_DMA_GET_IT_SOURCE(hdma, DMA_IT_TC) != 0U)
 8003bfe:	6810      	ldr	r0, [r2, #0]
 8003c00:	06c4      	lsls	r4, r0, #27
 8003c02:	d5ba      	bpl.n	8003b7a <HAL_DMA_IRQHandler+0x1fe>
        regs_dma->IFCR = DMA_FLAG_TCIF0_4 << (hdma->StreamIndex & 0x1FU);
 8003c04:	60a9      	str	r1, [r5, #8]
        if(HAL_DMA_STATE_ABORT == hdma->State)
 8003c06:	f897 1035 	ldrb.w	r1, [r7, #53]	@ 0x35
 8003c0a:	2904      	cmp	r1, #4
 8003c0c:	d00e      	beq.n	8003c2c <HAL_DMA_IRQHandler+0x2b0>
        if(((((DMA_Stream_TypeDef   *)hdma->Instance)->CR) & (uint32_t)(DMA_SxCR_DBM)) != 0U)
 8003c0e:	6813      	ldr	r3, [r2, #0]
 8003c10:	f413 2f80 	tst.w	r3, #262144	@ 0x40000
          if((((DMA_Stream_TypeDef   *)hdma->Instance)->CR & DMA_SxCR_CT) == 0U)
 8003c14:	6813      	ldr	r3, [r2, #0]
        if(((((DMA_Stream_TypeDef   *)hdma->Instance)->CR) & (uint32_t)(DMA_SxCR_DBM)) != 0U)
 8003c16:	d026      	beq.n	8003c66 <HAL_DMA_IRQHandler+0x2ea>
          if((((DMA_Stream_TypeDef   *)hdma->Instance)->CR & DMA_SxCR_CT) == 0U)
 8003c18:	031d      	lsls	r5, r3, #12
 8003c1a:	d531      	bpl.n	8003c80 <HAL_DMA_IRQHandler+0x304>
          if(hdma->XferCpltCallback != NULL)
 8003c1c:	6bfb      	ldr	r3, [r7, #60]	@ 0x3c
 8003c1e:	2b00      	cmp	r3, #0
 8003c20:	d0ab      	beq.n	8003b7a <HAL_DMA_IRQHandler+0x1fe>
            hdma->XferCpltCallback(hdma);
 8003c22:	4638      	mov	r0, r7
 8003c24:	4798      	blx	r3
    if(hdma->ErrorCode != HAL_DMA_ERROR_NONE)
 8003c26:	6d7b      	ldr	r3, [r7, #84]	@ 0x54
 8003c28:	b1db      	cbz	r3, 8003c62 <HAL_DMA_IRQHandler+0x2e6>
 8003c2a:	e7a9      	b.n	8003b80 <HAL_DMA_IRQHandler+0x204>
          ((DMA_Stream_TypeDef   *)hdma->Instance)->CR  &= ~(DMA_IT_TC | DMA_IT_TE | DMA_IT_DME);
 8003c2c:	6811      	ldr	r1, [r2, #0]
 8003c2e:	f021 0116 	bic.w	r1, r1, #22
 8003c32:	6011      	str	r1, [r2, #0]
          ((DMA_Stream_TypeDef   *)hdma->Instance)->FCR &= ~(DMA_IT_FE);
 8003c34:	6951      	ldr	r1, [r2, #20]
 8003c36:	f021 0180 	bic.w	r1, r1, #128	@ 0x80
 8003c3a:	6151      	str	r1, [r2, #20]
          if((hdma->XferHalfCpltCallback != NULL) || (hdma->XferM1HalfCpltCallback != NULL))
 8003c3c:	6c39      	ldr	r1, [r7, #64]	@ 0x40
 8003c3e:	b319      	cbz	r1, 8003c88 <HAL_DMA_IRQHandler+0x30c>
            ((DMA_Stream_TypeDef   *)hdma->Instance)->CR  &= ~(DMA_IT_HT);
 8003c40:	6811      	ldr	r1, [r2, #0]
 8003c42:	f021 0108 	bic.w	r1, r1, #8
 8003c46:	6011      	str	r1, [r2, #0]
          regs_dma->IFCR = 0x3FUL << (hdma->StreamIndex & 0x1FU);
 8003c48:	223f      	movs	r2, #63	@ 0x3f
          hdma->State = HAL_DMA_STATE_READY;
 8003c4a:	2101      	movs	r1, #1
          regs_dma->IFCR = 0x3FUL << (hdma->StreamIndex & 0x1FU);
 8003c4c:	fa02 f303 	lsl.w	r3, r2, r3
          __HAL_UNLOCK(hdma);
 8003c50:	2200      	movs	r2, #0
          regs_dma->IFCR = 0x3FUL << (hdma->StreamIndex & 0x1FU);
 8003c52:	60ab      	str	r3, [r5, #8]
          if(hdma->XferAbortCallback != NULL)
 8003c54:	6d3b      	ldr	r3, [r7, #80]	@ 0x50
          hdma->State = HAL_DMA_STATE_READY;
 8003c56:	f887 1035 	strb.w	r1, [r7, #53]	@ 0x35
          __HAL_UNLOCK(hdma);
 8003c5a:	f887 2034 	strb.w	r2, [r7, #52]	@ 0x34
          if(hdma->XferAbortCallback != NULL)
 8003c5e:	2b00      	cmp	r3, #0
 8003c60:	d1b3      	bne.n	8003bca <HAL_DMA_IRQHandler+0x24e>
}
 8003c62:	b003      	add	sp, #12
 8003c64:	bdf0      	pop	{r4, r5, r6, r7, pc}
          if((((DMA_Stream_TypeDef   *)hdma->Instance)->CR & DMA_SxCR_CIRC) == 0U)
 8003c66:	f413 7380 	ands.w	r3, r3, #256	@ 0x100
 8003c6a:	d1d7      	bne.n	8003c1c <HAL_DMA_IRQHandler+0x2a0>
            ((DMA_Stream_TypeDef   *)hdma->Instance)->CR  &= ~(DMA_IT_TC);
 8003c6c:	6811      	ldr	r1, [r2, #0]
 8003c6e:	f021 0110 	bic.w	r1, r1, #16
 8003c72:	6011      	str	r1, [r2, #0]
            hdma->State = HAL_DMA_STATE_READY;
 8003c74:	2201      	movs	r2, #1
            __HAL_UNLOCK(hdma);
 8003c76:	f887 3034 	strb.w	r3, [r7, #52]	@ 0x34
            hdma->State = HAL_DMA_STATE_READY;
 8003c7a:	f887 2035 	strb.w	r2, [r7, #53]	@ 0x35
            __HAL_UNLOCK(hdma);
 8003c7e:	e7cd      	b.n	8003c1c <HAL_DMA_IRQHandler+0x2a0>
            if(hdma->XferM1CpltCallback != NULL)
 8003c80:	6c7b      	ldr	r3, [r7, #68]	@ 0x44
 8003c82:	2b00      	cmp	r3, #0
 8003c84:	d1cd      	bne.n	8003c22 <HAL_DMA_IRQHandler+0x2a6>
 8003c86:	e778      	b.n	8003b7a <HAL_DMA_IRQHandler+0x1fe>
          if((hdma->XferHalfCpltCallback != NULL) || (hdma->XferM1HalfCpltCallback != NULL))
 8003c88:	6cb9      	ldr	r1, [r7, #72]	@ 0x48
 8003c8a:	2900      	cmp	r1, #0
 8003c8c:	d1d8      	bne.n	8003c40 <HAL_DMA_IRQHandler+0x2c4>
 8003c8e:	e7db      	b.n	8003c48 <HAL_DMA_IRQHandler+0x2cc>
  else if(IS_BDMA_CHANNEL_INSTANCE(hdma->Instance) != 0U)  /* BDMA instance(s) */
 8003c90:	4b40      	ldr	r3, [pc, #256]	@ (8003d94 <HAL_DMA_IRQHandler+0x418>)
 8003c92:	4841      	ldr	r0, [pc, #260]	@ (8003d98 <HAL_DMA_IRQHandler+0x41c>)
 8003c94:	4282      	cmp	r2, r0
 8003c96:	bf18      	it	ne
 8003c98:	429a      	cmpne	r2, r3
 8003c9a:	f100 0014 	add.w	r0, r0, #20
 8003c9e:	bf0c      	ite	eq
 8003ca0:	2301      	moveq	r3, #1
 8003ca2:	2300      	movne	r3, #0
 8003ca4:	4282      	cmp	r2, r0
 8003ca6:	bf08      	it	eq
 8003ca8:	f043 0301 	orreq.w	r3, r3, #1
 8003cac:	3014      	adds	r0, #20
 8003cae:	4282      	cmp	r2, r0
 8003cb0:	bf08      	it	eq
 8003cb2:	f043 0301 	orreq.w	r3, r3, #1
 8003cb6:	3014      	adds	r0, #20
 8003cb8:	4282      	cmp	r2, r0
 8003cba:	bf08      	it	eq
 8003cbc:	f043 0301 	orreq.w	r3, r3, #1
 8003cc0:	3014      	adds	r0, #20
 8003cc2:	4282      	cmp	r2, r0
 8003cc4:	bf08      	it	eq
 8003cc6:	f043 0301 	orreq.w	r3, r3, #1
 8003cca:	3014      	adds	r0, #20
 8003ccc:	4282      	cmp	r2, r0
 8003cce:	bf08      	it	eq
 8003cd0:	f043 0301 	orreq.w	r3, r3, #1
 8003cd4:	b913      	cbnz	r3, 8003cdc <HAL_DMA_IRQHandler+0x360>
 8003cd6:	4b31      	ldr	r3, [pc, #196]	@ (8003d9c <HAL_DMA_IRQHandler+0x420>)
 8003cd8:	429a      	cmp	r2, r3
 8003cda:	d1c2      	bne.n	8003c62 <HAL_DMA_IRQHandler+0x2e6>
    if (((tmpisr_bdma & (BDMA_FLAG_HT0 << (hdma->StreamIndex & 0x1FU))) != 0U) && ((ccr_reg & BDMA_CCR_HTIE) != 0U))
 8003cdc:	6df8      	ldr	r0, [r7, #92]	@ 0x5c
 8003cde:	2404      	movs	r4, #4
    ccr_reg = (((BDMA_Channel_TypeDef   *)hdma->Instance)->CCR);
 8003ce0:	6813      	ldr	r3, [r2, #0]
    if (((tmpisr_bdma & (BDMA_FLAG_HT0 << (hdma->StreamIndex & 0x1FU))) != 0U) && ((ccr_reg & BDMA_CCR_HTIE) != 0U))
 8003ce2:	f000 001f 	and.w	r0, r0, #31
 8003ce6:	4084      	lsls	r4, r0
 8003ce8:	420c      	tst	r4, r1
 8003cea:	d00b      	beq.n	8003d04 <HAL_DMA_IRQHandler+0x388>
 8003cec:	075e      	lsls	r6, r3, #29
 8003cee:	d509      	bpl.n	8003d04 <HAL_DMA_IRQHandler+0x388>
      if((ccr_reg & BDMA_CCR_DBM) != 0U)
 8003cf0:	0419      	lsls	r1, r3, #16
      regs_bdma->IFCR = (BDMA_ISR_HTIF0 << (hdma->StreamIndex & 0x1FU));
 8003cf2:	606c      	str	r4, [r5, #4]
      if((ccr_reg & BDMA_CCR_DBM) != 0U)
 8003cf4:	d532      	bpl.n	8003d5c <HAL_DMA_IRQHandler+0x3e0>
        if((ccr_reg & BDMA_CCR_CT) == 0U)
 8003cf6:	03da      	lsls	r2, r3, #15
 8003cf8:	d436      	bmi.n	8003d68 <HAL_DMA_IRQHandler+0x3ec>
          if(hdma->XferM1HalfCpltCallback != NULL)
 8003cfa:	6cbb      	ldr	r3, [r7, #72]	@ 0x48
 8003cfc:	2b00      	cmp	r3, #0
 8003cfe:	f47f af64 	bne.w	8003bca <HAL_DMA_IRQHandler+0x24e>
 8003d02:	e7ae      	b.n	8003c62 <HAL_DMA_IRQHandler+0x2e6>
    else if (((tmpisr_bdma & (BDMA_FLAG_TC0 << (hdma->StreamIndex & 0x1FU))) != 0U) && ((ccr_reg & BDMA_CCR_TCIE) != 0U))
 8003d04:	2402      	movs	r4, #2
 8003d06:	4084      	lsls	r4, r0
 8003d08:	420c      	tst	r4, r1
 8003d0a:	d00b      	beq.n	8003d24 <HAL_DMA_IRQHandler+0x3a8>
 8003d0c:	079e      	lsls	r6, r3, #30
 8003d0e:	d509      	bpl.n	8003d24 <HAL_DMA_IRQHandler+0x3a8>
      if((ccr_reg & BDMA_CCR_DBM) != 0U)
 8003d10:	0419      	lsls	r1, r3, #16
      regs_bdma->IFCR = (BDMA_ISR_TCIF0) << (hdma->StreamIndex & 0x1FU);
 8003d12:	606c      	str	r4, [r5, #4]
      if((ccr_reg & BDMA_CCR_DBM) != 0U)
 8003d14:	d52d      	bpl.n	8003d72 <HAL_DMA_IRQHandler+0x3f6>
        if((ccr_reg & BDMA_CCR_CT) == 0U)
 8003d16:	03da      	lsls	r2, r3, #15
 8003d18:	d437      	bmi.n	8003d8a <HAL_DMA_IRQHandler+0x40e>
          if(hdma->XferM1CpltCallback != NULL)
 8003d1a:	6c7b      	ldr	r3, [r7, #68]	@ 0x44
 8003d1c:	2b00      	cmp	r3, #0
 8003d1e:	f47f af54 	bne.w	8003bca <HAL_DMA_IRQHandler+0x24e>
 8003d22:	e79e      	b.n	8003c62 <HAL_DMA_IRQHandler+0x2e6>
    else if (((tmpisr_bdma & (BDMA_FLAG_TE0 << (hdma->StreamIndex & 0x1FU))) != 0U) && ((ccr_reg & BDMA_CCR_TEIE) != 0U))
 8003d24:	2408      	movs	r4, #8
 8003d26:	4084      	lsls	r4, r0
 8003d28:	420c      	tst	r4, r1
 8003d2a:	d09a      	beq.n	8003c62 <HAL_DMA_IRQHandler+0x2e6>
 8003d2c:	071b      	lsls	r3, r3, #28
 8003d2e:	d598      	bpl.n	8003c62 <HAL_DMA_IRQHandler+0x2e6>
      __HAL_DMA_DISABLE_IT(hdma, (DMA_IT_TC | DMA_IT_HT | DMA_IT_TE));
 8003d30:	6813      	ldr	r3, [r2, #0]
      __HAL_UNLOCK(hdma);
 8003d32:	2100      	movs	r1, #0
      __HAL_DMA_DISABLE_IT(hdma, (DMA_IT_TC | DMA_IT_HT | DMA_IT_TE));
 8003d34:	f023 030e 	bic.w	r3, r3, #14
 8003d38:	6013      	str	r3, [r2, #0]
      regs_bdma->IFCR = (BDMA_ISR_GIF0) << (hdma->StreamIndex & 0x1FU);
 8003d3a:	2301      	movs	r3, #1
      if (hdma->XferErrorCallback != NULL)
 8003d3c:	6cfa      	ldr	r2, [r7, #76]	@ 0x4c
      regs_bdma->IFCR = (BDMA_ISR_GIF0) << (hdma->StreamIndex & 0x1FU);
 8003d3e:	fa03 f000 	lsl.w	r0, r3, r0
 8003d42:	6068      	str	r0, [r5, #4]
      hdma->ErrorCode = HAL_DMA_ERROR_TE;
 8003d44:	657b      	str	r3, [r7, #84]	@ 0x54
      __HAL_UNLOCK(hdma);
 8003d46:	f887 1034 	strb.w	r1, [r7, #52]	@ 0x34
      hdma->State = HAL_DMA_STATE_READY;
 8003d4a:	f887 3035 	strb.w	r3, [r7, #53]	@ 0x35
      if (hdma->XferErrorCallback != NULL)
 8003d4e:	2a00      	cmp	r2, #0
 8003d50:	d087      	beq.n	8003c62 <HAL_DMA_IRQHandler+0x2e6>
        hdma->XferErrorCallback(hdma);
 8003d52:	4638      	mov	r0, r7
}
 8003d54:	b003      	add	sp, #12
 8003d56:	e8bd 40f0 	ldmia.w	sp!, {r4, r5, r6, r7, lr}
        hdma->XferErrorCallback(hdma);
 8003d5a:	4710      	bx	r2
        if((ccr_reg & BDMA_CCR_CIRC) == 0U)
 8003d5c:	069b      	lsls	r3, r3, #26
 8003d5e:	d403      	bmi.n	8003d68 <HAL_DMA_IRQHandler+0x3ec>
          __HAL_DMA_DISABLE_IT(hdma, DMA_IT_HT);
 8003d60:	6813      	ldr	r3, [r2, #0]
 8003d62:	f023 0304 	bic.w	r3, r3, #4
 8003d66:	6013      	str	r3, [r2, #0]
       if(hdma->XferHalfCpltCallback != NULL)
 8003d68:	6c3b      	ldr	r3, [r7, #64]	@ 0x40
 8003d6a:	2b00      	cmp	r3, #0
 8003d6c:	f47f af2d 	bne.w	8003bca <HAL_DMA_IRQHandler+0x24e>
 8003d70:	e777      	b.n	8003c62 <HAL_DMA_IRQHandler+0x2e6>
        if((ccr_reg & BDMA_CCR_CIRC) == 0U)
 8003d72:	f013 0320 	ands.w	r3, r3, #32
 8003d76:	d108      	bne.n	8003d8a <HAL_DMA_IRQHandler+0x40e>
          __HAL_DMA_DISABLE_IT(hdma, DMA_IT_TE | DMA_IT_TC);
 8003d78:	6811      	ldr	r1, [r2, #0]
          hdma->State = HAL_DMA_STATE_READY;
 8003d7a:	2001      	movs	r0, #1
          __HAL_DMA_DISABLE_IT(hdma, DMA_IT_TE | DMA_IT_TC);
 8003d7c:	f021 010a 	bic.w	r1, r1, #10
 8003d80:	6011      	str	r1, [r2, #0]
          hdma->State = HAL_DMA_STATE_READY;
 8003d82:	f887 0035 	strb.w	r0, [r7, #53]	@ 0x35
          __HAL_UNLOCK(hdma);
 8003d86:	f887 3034 	strb.w	r3, [r7, #52]	@ 0x34
        if(hdma->XferCpltCallback != NULL)
 8003d8a:	6bfb      	ldr	r3, [r7, #60]	@ 0x3c
 8003d8c:	2b00      	cmp	r3, #0
 8003d8e:	f47f af1c 	bne.w	8003bca <HAL_DMA_IRQHandler+0x24e>
 8003d92:	e766      	b.n	8003c62 <HAL_DMA_IRQHandler+0x2e6>
 8003d94:	58025408 	.word	0x58025408
 8003d98:	5802541c 	.word	0x5802541c
 8003d9c:	58025494 	.word	0x58025494

08003da0 <HAL_GPIO_Init>:
  assert_param(IS_GPIO_ALL_INSTANCE(GPIOx));
  assert_param(IS_GPIO_PIN(GPIO_Init->Pin));
  assert_param(IS_GPIO_MODE(GPIO_Init->Mode));

  /* Configure the port pins */
  while (((GPIO_Init->Pin) >> position) != 0x00U)
 8003da0:	680b      	ldr	r3, [r1, #0]
 8003da2:	2b00      	cmp	r3, #0
 8003da4:	f000 81dc 	beq.w	8004160 <HAL_GPIO_Init+0x3c0>
 8003da8:	4ab4      	ldr	r2, [pc, #720]	@ (800407c <HAL_GPIO_Init+0x2dc>)
 8003daa:	4290      	cmp	r0, r2
  uint32_t position = 0x00U;
 8003dac:	f04f 0200 	mov.w	r2, #0
{
 8003db0:	e92d 4ff0 	stmdb	sp!, {r4, r5, r6, r7, r8, r9, sl, fp, lr}
  {
    /* Get current io position */
    iocurrent = (GPIO_Init->Pin) & (1UL << position);
 8003db4:	f04f 0b01 	mov.w	fp, #1
{
 8003db8:	b085      	sub	sp, #20
 8003dba:	f000 8105 	beq.w	8003fc8 <HAL_GPIO_Init+0x228>
        temp &= ~(0x0FUL << (4U * (position & 0x03U)));
        temp |= (GPIO_GET_INDEX(GPIOx) << (4U * (position & 0x03U)));
        SYSCFG->EXTICR[position >> 2U] = temp;

        /* Clear Rising Falling edge configuration */
        temp = EXTI->RTSR1;
 8003dbe:	f04f 4eb0 	mov.w	lr, #1476395008	@ 0x58000000
        temp |= (GPIO_GET_INDEX(GPIOx) << (4U * (position & 0x03U)));
 8003dc2:	9300      	str	r3, [sp, #0]
    iocurrent = (GPIO_Init->Pin) & (1UL << position);
 8003dc4:	fa0b fc02 	lsl.w	ip, fp, r2
    if (iocurrent != 0x00U)
 8003dc8:	9b00      	ldr	r3, [sp, #0]
 8003dca:	ea1c 0a03 	ands.w	sl, ip, r3
 8003dce:	f000 814b 	beq.w	8004068 <HAL_GPIO_Init+0x2c8>
      if (((GPIO_Init->Mode & GPIO_MODE) == MODE_OUTPUT) || ((GPIO_Init->Mode & GPIO_MODE) == MODE_AF))
 8003dd2:	684d      	ldr	r5, [r1, #4]
 8003dd4:	0054      	lsls	r4, r2, #1
        temp &= ~(GPIO_OSPEEDR_OSPEED0 << (position * 2U));
 8003dd6:	2303      	movs	r3, #3
      if (((GPIO_Init->Mode & GPIO_MODE) == MODE_OUTPUT) || ((GPIO_Init->Mode & GPIO_MODE) == MODE_AF))
 8003dd8:	f005 0703 	and.w	r7, r5, #3
        temp &= ~(GPIO_OSPEEDR_OSPEED0 << (position * 2U));
 8003ddc:	fa03 f604 	lsl.w	r6, r3, r4
      if (((GPIO_Init->Mode & GPIO_MODE) == MODE_OUTPUT) || ((GPIO_Init->Mode & GPIO_MODE) == MODE_AF))
 8003de0:	f107 38ff 	add.w	r8, r7, #4294967295
        temp &= ~(GPIO_OSPEEDR_OSPEED0 << (position * 2U));
 8003de4:	43f6      	mvns	r6, r6
      if (((GPIO_Init->Mode & GPIO_MODE) == MODE_OUTPUT) || ((GPIO_Init->Mode & GPIO_MODE) == MODE_AF))
 8003de6:	f1b8 0f01 	cmp.w	r8, #1
 8003dea:	f240 815d 	bls.w	80040a8 <HAL_GPIO_Init+0x308>
      if ((GPIO_Init->Mode & GPIO_MODE) != MODE_ANALOG)
 8003dee:	2f03      	cmp	r7, #3
 8003df0:	f040 81cf 	bne.w	8004192 <HAL_GPIO_Init+0x3f2>
      temp |= ((GPIO_Init->Mode & GPIO_MODE) << (position * 2U));
 8003df4:	fa07 f404 	lsl.w	r4, r7, r4
      temp = GPIOx->MODER;
 8003df8:	6807      	ldr	r7, [r0, #0]
      if ((GPIO_Init->Mode & EXTI_MODE) != 0x00U)
 8003dfa:	f415 3f40 	tst.w	r5, #196608	@ 0x30000
      temp &= ~(GPIO_MODER_MODE0 << (position * 2U));
 8003dfe:	ea06 0607 	and.w	r6, r6, r7
      temp |= ((GPIO_Init->Mode & GPIO_MODE) << (position * 2U));
 8003e02:	ea44 0406 	orr.w	r4, r4, r6
      GPIOx->MODER = temp;
 8003e06:	6004      	str	r4, [r0, #0]
      if ((GPIO_Init->Mode & EXTI_MODE) != 0x00U)
 8003e08:	f000 812e 	beq.w	8004068 <HAL_GPIO_Init+0x2c8>
        __HAL_RCC_SYSCFG_CLK_ENABLE();
 8003e0c:	4e9c      	ldr	r6, [pc, #624]	@ (8004080 <HAL_GPIO_Init+0x2e0>)
        temp &= ~(0x0FUL << (4U * (position & 0x03U)));
 8003e0e:	f002 0703 	and.w	r7, r2, #3
 8003e12:	230f      	movs	r3, #15
        __HAL_RCC_SYSCFG_CLK_ENABLE();
 8003e14:	f8d6 40f4 	ldr.w	r4, [r6, #244]	@ 0xf4
        temp &= ~(0x0FUL << (4U * (position & 0x03U)));
 8003e18:	00bf      	lsls	r7, r7, #2
        __HAL_RCC_SYSCFG_CLK_ENABLE();
 8003e1a:	f044 0402 	orr.w	r4, r4, #2
        temp &= ~(0x0FUL << (4U * (position & 0x03U)));
 8003e1e:	fa03 fc07 	lsl.w	ip, r3, r7
        temp |= (GPIO_GET_INDEX(GPIOx) << (4U * (position & 0x03U)));
 8003e22:	4b98      	ldr	r3, [pc, #608]	@ (8004084 <HAL_GPIO_Init+0x2e4>)
        __HAL_RCC_SYSCFG_CLK_ENABLE();
 8003e24:	f8c6 40f4 	str.w	r4, [r6, #244]	@ 0xf4
 8003e28:	f8d6 40f4 	ldr.w	r4, [r6, #244]	@ 0xf4
 8003e2c:	f022 0603 	bic.w	r6, r2, #3
        temp |= (GPIO_GET_INDEX(GPIOx) << (4U * (position & 0x03U)));
 8003e30:	4298      	cmp	r0, r3
 8003e32:	f106 46b0 	add.w	r6, r6, #1476395008	@ 0x58000000
        __HAL_RCC_SYSCFG_CLK_ENABLE();
 8003e36:	f004 0402 	and.w	r4, r4, #2
 8003e3a:	f506 6680 	add.w	r6, r6, #1024	@ 0x400
 8003e3e:	9403      	str	r4, [sp, #12]
 8003e40:	9c03      	ldr	r4, [sp, #12]
        temp = SYSCFG->EXTICR[position >> 2U];
 8003e42:	68b4      	ldr	r4, [r6, #8]
        temp &= ~(0x0FUL << (4U * (position & 0x03U)));
 8003e44:	ea24 040c 	bic.w	r4, r4, ip
        temp |= (GPIO_GET_INDEX(GPIOx) << (4U * (position & 0x03U)));
 8003e48:	f000 8178 	beq.w	800413c <HAL_GPIO_Init+0x39c>
 8003e4c:	4b8e      	ldr	r3, [pc, #568]	@ (8004088 <HAL_GPIO_Init+0x2e8>)
 8003e4e:	4298      	cmp	r0, r3
 8003e50:	f000 80de 	beq.w	8004010 <HAL_GPIO_Init+0x270>
 8003e54:	f8df c234 	ldr.w	ip, [pc, #564]	@ 800408c <HAL_GPIO_Init+0x2ec>
 8003e58:	4560      	cmp	r0, ip
 8003e5a:	f000 817b 	beq.w	8004154 <HAL_GPIO_Init+0x3b4>
 8003e5e:	f8df c230 	ldr.w	ip, [pc, #560]	@ 8004090 <HAL_GPIO_Init+0x2f0>
 8003e62:	4560      	cmp	r0, ip
 8003e64:	f000 817d 	beq.w	8004162 <HAL_GPIO_Init+0x3c2>
 8003e68:	f8df c228 	ldr.w	ip, [pc, #552]	@ 8004094 <HAL_GPIO_Init+0x2f4>
 8003e6c:	4560      	cmp	r0, ip
 8003e6e:	f000 816b 	beq.w	8004148 <HAL_GPIO_Init+0x3a8>
 8003e72:	f8df c224 	ldr.w	ip, [pc, #548]	@ 8004098 <HAL_GPIO_Init+0x2f8>
 8003e76:	4560      	cmp	r0, ip
 8003e78:	f000 8179 	beq.w	800416e <HAL_GPIO_Init+0x3ce>
 8003e7c:	f8df c21c 	ldr.w	ip, [pc, #540]	@ 800409c <HAL_GPIO_Init+0x2fc>
 8003e80:	4560      	cmp	r0, ip
 8003e82:	f000 817a 	beq.w	800417a <HAL_GPIO_Init+0x3da>
 8003e86:	f8df c218 	ldr.w	ip, [pc, #536]	@ 80040a0 <HAL_GPIO_Init+0x300>
 8003e8a:	4560      	cmp	r0, ip
 8003e8c:	f000 817b 	beq.w	8004186 <HAL_GPIO_Init+0x3e6>
 8003e90:	f8df c210 	ldr.w	ip, [pc, #528]	@ 80040a4 <HAL_GPIO_Init+0x304>
 8003e94:	4560      	cmp	r0, ip
 8003e96:	bf0c      	ite	eq
 8003e98:	f04f 0c09 	moveq.w	ip, #9
 8003e9c:	f04f 0c0a 	movne.w	ip, #10
 8003ea0:	fa0c f707 	lsl.w	r7, ip, r7
 8003ea4:	433c      	orrs	r4, r7
 8003ea6:	e0b8      	b.n	800401a <HAL_GPIO_Init+0x27a>
        temp = GPIOx->OSPEEDR;
 8003ea8:	f8d0 9008 	ldr.w	r9, [r0, #8]
      if ((GPIO_Init->Mode & GPIO_MODE) == MODE_AF)
 8003eac:	2c02      	cmp	r4, #2
        temp |= (GPIO_Init->Speed << (position * 2U));
 8003eae:	68ce      	ldr	r6, [r1, #12]
        temp &= ~(GPIO_OSPEEDR_OSPEED0 << (position * 2U));
 8003eb0:	ea0a 0909 	and.w	r9, sl, r9
        temp |= (GPIO_Init->Speed << (position * 2U));
 8003eb4:	fa06 f807 	lsl.w	r8, r6, r7
 8003eb8:	ea48 0809 	orr.w	r8, r8, r9
        GPIOx->OSPEEDR = temp;
 8003ebc:	f8c0 8008 	str.w	r8, [r0, #8]
        temp |= (((GPIO_Init->Mode & OUTPUT_TYPE) >> OUTPUT_TYPE_Pos) << position);
 8003ec0:	f3c5 1800 	ubfx	r8, r5, #4, #1
        temp = GPIOx->OTYPER;
 8003ec4:	f8d0 9004 	ldr.w	r9, [r0, #4]
        temp |= (((GPIO_Init->Mode & OUTPUT_TYPE) >> OUTPUT_TYPE_Pos) << position);
 8003ec8:	fa08 f802 	lsl.w	r8, r8, r2
        temp &= ~(GPIO_OTYPER_OT0 << position) ;
 8003ecc:	ea29 0e0e 	bic.w	lr, r9, lr
        temp |= (((GPIO_Init->Mode & OUTPUT_TYPE) >> OUTPUT_TYPE_Pos) << position);
 8003ed0:	ea48 0e0e 	orr.w	lr, r8, lr
        GPIOx->OTYPER = temp;
 8003ed4:	f8c0 e004 	str.w	lr, [r0, #4]
      temp = GPIOx->PUPDR;
 8003ed8:	f8d0 800c 	ldr.w	r8, [r0, #12]
      temp |= ((GPIO_Init->Pull) << (position * 2U));
 8003edc:	688e      	ldr	r6, [r1, #8]
      temp &= ~(GPIO_PUPDR_PUPD0 << (position * 2U));
 8003ede:	ea0a 0808 	and.w	r8, sl, r8
      temp |= ((GPIO_Init->Pull) << (position * 2U));
 8003ee2:	fa06 fe07 	lsl.w	lr, r6, r7
 8003ee6:	ea4e 0e08 	orr.w	lr, lr, r8
      GPIOx->PUPDR = temp;
 8003eea:	f8c0 e00c 	str.w	lr, [r0, #12]
      if ((GPIO_Init->Mode & GPIO_MODE) == MODE_AF)
 8003eee:	d117      	bne.n	8003f20 <HAL_GPIO_Init+0x180>
        temp &= ~(0xFU << ((position & 0x07U) * 4U));
 8003ef0:	f002 0e07 	and.w	lr, r2, #7
        temp |= ((GPIO_Init->Alternate) << ((position & 0x07U) * 4U));
 8003ef4:	690e      	ldr	r6, [r1, #16]
        temp = GPIOx->AFR[position >> 3U];
 8003ef6:	ea4f 08d2 	mov.w	r8, r2, lsr #3
        temp &= ~(0xFU << ((position & 0x07U) * 4U));
 8003efa:	ea4f 0e8e 	mov.w	lr, lr, lsl #2
 8003efe:	eb00 0888 	add.w	r8, r0, r8, lsl #2
        temp |= ((GPIO_Init->Alternate) << ((position & 0x07U) * 4U));
 8003f02:	fa06 f60e 	lsl.w	r6, r6, lr
        temp = GPIOx->AFR[position >> 3U];
 8003f06:	f8d8 9020 	ldr.w	r9, [r8, #32]
        temp |= ((GPIO_Init->Alternate) << ((position & 0x07U) * 4U));
 8003f0a:	9600      	str	r6, [sp, #0]
        temp &= ~(0xFU << ((position & 0x07U) * 4U));
 8003f0c:	260f      	movs	r6, #15
 8003f0e:	fa06 fe0e 	lsl.w	lr, r6, lr
        temp |= ((GPIO_Init->Alternate) << ((position & 0x07U) * 4U));
 8003f12:	9e00      	ldr	r6, [sp, #0]
        temp &= ~(0xFU << ((position & 0x07U) * 4U));
 8003f14:	ea29 090e 	bic.w	r9, r9, lr
        temp |= ((GPIO_Init->Alternate) << ((position & 0x07U) * 4U));
 8003f18:	ea46 0e09 	orr.w	lr, r6, r9
        GPIOx->AFR[position >> 3U] = temp;
 8003f1c:	f8c8 e020 	str.w	lr, [r8, #32]
      temp |= ((GPIO_Init->Mode & GPIO_MODE) << (position * 2U));
 8003f20:	40bc      	lsls	r4, r7
      temp = GPIOx->MODER;
 8003f22:	6807      	ldr	r7, [r0, #0]
      if ((GPIO_Init->Mode & EXTI_MODE) != 0x00U)
 8003f24:	f415 3f40 	tst.w	r5, #196608	@ 0x30000
      temp &= ~(GPIO_MODER_MODE0 << (position * 2U));
 8003f28:	ea07 070a 	and.w	r7, r7, sl
      temp |= ((GPIO_Init->Mode & GPIO_MODE) << (position * 2U));
 8003f2c:	ea44 0407 	orr.w	r4, r4, r7
      GPIOx->MODER = temp;
 8003f30:	6004      	str	r4, [r0, #0]
      if ((GPIO_Init->Mode & EXTI_MODE) != 0x00U)
 8003f32:	d045      	beq.n	8003fc0 <HAL_GPIO_Init+0x220>
        __HAL_RCC_SYSCFG_CLK_ENABLE();
 8003f34:	4f52      	ldr	r7, [pc, #328]	@ (8004080 <HAL_GPIO_Init+0x2e0>)
        temp &= ~(0x0FUL << (4U * (position & 0x03U)));
 8003f36:	260f      	movs	r6, #15
        __HAL_RCC_SYSCFG_CLK_ENABLE();
 8003f38:	f8d7 40f4 	ldr.w	r4, [r7, #244]	@ 0xf4
 8003f3c:	f044 0402 	orr.w	r4, r4, #2
 8003f40:	f8c7 40f4 	str.w	r4, [r7, #244]	@ 0xf4
 8003f44:	f8d7 40f4 	ldr.w	r4, [r7, #244]	@ 0xf4
 8003f48:	f022 0703 	bic.w	r7, r2, #3
 8003f4c:	f004 0402 	and.w	r4, r4, #2
 8003f50:	f107 47b0 	add.w	r7, r7, #1476395008	@ 0x58000000
 8003f54:	9403      	str	r4, [sp, #12]
 8003f56:	f507 6780 	add.w	r7, r7, #1024	@ 0x400
 8003f5a:	9c03      	ldr	r4, [sp, #12]
        temp &= ~(0x0FUL << (4U * (position & 0x03U)));
 8003f5c:	f002 0403 	and.w	r4, r2, #3
        temp = SYSCFG->EXTICR[position >> 2U];
 8003f60:	f8d7 e008 	ldr.w	lr, [r7, #8]
        temp &= ~(0x0FUL << (4U * (position & 0x03U)));
 8003f64:	00a4      	lsls	r4, r4, #2
 8003f66:	fa06 f404 	lsl.w	r4, r6, r4
        temp &= ~(iocurrent);
        if ((GPIO_Init->Mode & TRIGGER_RISING) != 0x00U)
 8003f6a:	02ee      	lsls	r6, r5, #11
        temp &= ~(0x0FUL << (4U * (position & 0x03U)));
 8003f6c:	ea2e 0404 	bic.w	r4, lr, r4
        SYSCFG->EXTICR[position >> 2U] = temp;
 8003f70:	60bc      	str	r4, [r7, #8]
        temp = EXTI->RTSR1;
 8003f72:	f04f 44b0 	mov.w	r4, #1476395008	@ 0x58000000
        temp &= ~(iocurrent);
 8003f76:	ea6f 070c 	mvn.w	r7, ip
        temp = EXTI->RTSR1;
 8003f7a:	6824      	ldr	r4, [r4, #0]
        if ((GPIO_Init->Mode & TRIGGER_RISING) != 0x00U)
 8003f7c:	f100 80d2 	bmi.w	8004124 <HAL_GPIO_Init+0x384>
        temp &= ~(iocurrent);
 8003f80:	403c      	ands	r4, r7
        {
          temp |= iocurrent;
        }
        EXTI->RTSR1 = temp;
 8003f82:	f04f 46b0 	mov.w	r6, #1476395008	@ 0x58000000
 8003f86:	6034      	str	r4, [r6, #0]

        temp = EXTI->FTSR1;
 8003f88:	6874      	ldr	r4, [r6, #4]
        temp &= ~(iocurrent);
        if ((GPIO_Init->Mode & TRIGGER_FALLING) != 0x00U)
 8003f8a:	02ae      	lsls	r6, r5, #10
 8003f8c:	f100 80d3 	bmi.w	8004136 <HAL_GPIO_Init+0x396>
        temp &= ~(iocurrent);
 8003f90:	403c      	ands	r4, r7
        {
          temp |= iocurrent;
        }
        EXTI->FTSR1 = temp;
 8003f92:	f04f 46b0 	mov.w	r6, #1476395008	@ 0x58000000
 8003f96:	6074      	str	r4, [r6, #4]

        temp = EXTI_CurrentCPU->EMR1;
 8003f98:	f8d6 4084 	ldr.w	r4, [r6, #132]	@ 0x84
        temp &= ~(iocurrent);
        if ((GPIO_Init->Mode & EXTI_EVT) != 0x00U)
 8003f9c:	03ae      	lsls	r6, r5, #14
 8003f9e:	f100 80c7 	bmi.w	8004130 <HAL_GPIO_Init+0x390>
        temp &= ~(iocurrent);
 8003fa2:	403c      	ands	r4, r7
        {
          temp |= iocurrent;
        }
        EXTI_CurrentCPU->EMR1 = temp;
 8003fa4:	f04f 46b0 	mov.w	r6, #1476395008	@ 0x58000000

        /* Clear EXTI line configuration */
        temp = EXTI_CurrentCPU->IMR1;
        temp &= ~(iocurrent);
        if ((GPIO_Init->Mode & EXTI_IT) != 0x00U)
 8003fa8:	03ed      	lsls	r5, r5, #15
        EXTI_CurrentCPU->EMR1 = temp;
 8003faa:	f8c6 4084 	str.w	r4, [r6, #132]	@ 0x84
        temp = EXTI_CurrentCPU->IMR1;
 8003fae:	f8d6 4080 	ldr.w	r4, [r6, #128]	@ 0x80
        if ((GPIO_Init->Mode & EXTI_IT) != 0x00U)
 8003fb2:	f100 80ba 	bmi.w	800412a <HAL_GPIO_Init+0x38a>
        temp &= ~(iocurrent);
 8003fb6:	403c      	ands	r4, r7
        {
          temp |= iocurrent;
        }
        EXTI_CurrentCPU->IMR1 = temp;
 8003fb8:	f04f 45b0 	mov.w	r5, #1476395008	@ 0x58000000
 8003fbc:	f8c5 4080 	str.w	r4, [r5, #128]	@ 0x80
      }
    }

    position++;
 8003fc0:	3201      	adds	r2, #1
  while (((GPIO_Init->Pin) >> position) != 0x00U)
 8003fc2:	fa33 f402 	lsrs.w	r4, r3, r2
 8003fc6:	d055      	beq.n	8004074 <HAL_GPIO_Init+0x2d4>
    iocurrent = (GPIO_Init->Pin) & (1UL << position);
 8003fc8:	fa0b fe02 	lsl.w	lr, fp, r2
    if (iocurrent != 0x00U)
 8003fcc:	ea13 0c0e 	ands.w	ip, r3, lr
 8003fd0:	d0f6      	beq.n	8003fc0 <HAL_GPIO_Init+0x220>
      if (((GPIO_Init->Mode & GPIO_MODE) == MODE_OUTPUT) || ((GPIO_Init->Mode & GPIO_MODE) == MODE_AF))
 8003fd2:	684d      	ldr	r5, [r1, #4]
 8003fd4:	0057      	lsls	r7, r2, #1
        temp &= ~(GPIO_OSPEEDR_OSPEED0 << (position * 2U));
 8003fd6:	2603      	movs	r6, #3
      if (((GPIO_Init->Mode & GPIO_MODE) == MODE_OUTPUT) || ((GPIO_Init->Mode & GPIO_MODE) == MODE_AF))
 8003fd8:	f005 0403 	and.w	r4, r5, #3
        temp &= ~(GPIO_OSPEEDR_OSPEED0 << (position * 2U));
 8003fdc:	fa06 f807 	lsl.w	r8, r6, r7
 8003fe0:	ea6f 0a08 	mvn.w	sl, r8
      if (((GPIO_Init->Mode & GPIO_MODE) == MODE_OUTPUT) || ((GPIO_Init->Mode & GPIO_MODE) == MODE_AF))
 8003fe4:	f104 38ff 	add.w	r8, r4, #4294967295
 8003fe8:	f1b8 0f01 	cmp.w	r8, #1
 8003fec:	f67f af5c 	bls.w	8003ea8 <HAL_GPIO_Init+0x108>
      if ((GPIO_Init->Mode & GPIO_MODE) != MODE_ANALOG)
 8003ff0:	2c03      	cmp	r4, #3
 8003ff2:	d095      	beq.n	8003f20 <HAL_GPIO_Init+0x180>
      temp = GPIOx->PUPDR;
 8003ff4:	f8df 8084 	ldr.w	r8, [pc, #132]	@ 800407c <HAL_GPIO_Init+0x2dc>
      temp |= ((GPIO_Init->Pull) << (position * 2U));
 8003ff8:	688e      	ldr	r6, [r1, #8]
      temp = GPIOx->PUPDR;
 8003ffa:	f8d8 900c 	ldr.w	r9, [r8, #12]
      temp |= ((GPIO_Init->Pull) << (position * 2U));
 8003ffe:	fa06 fe07 	lsl.w	lr, r6, r7
      temp &= ~(GPIO_PUPDR_PUPD0 << (position * 2U));
 8004002:	ea0a 0909 	and.w	r9, sl, r9
      temp |= ((GPIO_Init->Pull) << (position * 2U));
 8004006:	ea4e 0e09 	orr.w	lr, lr, r9
      GPIOx->PUPDR = temp;
 800400a:	f8c8 e00c 	str.w	lr, [r8, #12]
      if ((GPIO_Init->Mode & GPIO_MODE) == MODE_AF)
 800400e:	e787      	b.n	8003f20 <HAL_GPIO_Init+0x180>
        temp |= (GPIO_GET_INDEX(GPIOx) << (4U * (position & 0x03U)));
 8004010:	f04f 0c02 	mov.w	ip, #2
 8004014:	fa0c f707 	lsl.w	r7, ip, r7
 8004018:	433c      	orrs	r4, r7
        SYSCFG->EXTICR[position >> 2U] = temp;
 800401a:	60b4      	str	r4, [r6, #8]
        if ((GPIO_Init->Mode & TRIGGER_RISING) != 0x00U)
 800401c:	02ef      	lsls	r7, r5, #11
        temp = EXTI->RTSR1;
 800401e:	f8de 4000 	ldr.w	r4, [lr]
        temp &= ~(iocurrent);
 8004022:	ea6f 060a 	mvn.w	r6, sl
          temp |= iocurrent;
 8004026:	bf4c      	ite	mi
 8004028:	ea4a 0404 	orrmi.w	r4, sl, r4
        temp &= ~(iocurrent);
 800402c:	4034      	andpl	r4, r6
        if ((GPIO_Init->Mode & TRIGGER_FALLING) != 0x00U)
 800402e:	02ab      	lsls	r3, r5, #10
        EXTI->RTSR1 = temp;
 8004030:	f8ce 4000 	str.w	r4, [lr]
        temp = EXTI->FTSR1;
 8004034:	f8de 4004 	ldr.w	r4, [lr, #4]
        temp &= ~(iocurrent);
 8004038:	bf54      	ite	pl
 800403a:	4034      	andpl	r4, r6
          temp |= iocurrent;
 800403c:	ea4a 0404 	orrmi.w	r4, sl, r4
        if ((GPIO_Init->Mode & EXTI_EVT) != 0x00U)
 8004040:	03af      	lsls	r7, r5, #14
        EXTI->FTSR1 = temp;
 8004042:	f8ce 4004 	str.w	r4, [lr, #4]
        temp = EXTI_CurrentCPU->EMR1;
 8004046:	f8de 4084 	ldr.w	r4, [lr, #132]	@ 0x84
        temp &= ~(iocurrent);
 800404a:	bf54      	ite	pl
 800404c:	4034      	andpl	r4, r6
          temp |= iocurrent;
 800404e:	ea4a 0404 	orrmi.w	r4, sl, r4
        if ((GPIO_Init->Mode & EXTI_IT) != 0x00U)
 8004052:	03eb      	lsls	r3, r5, #15
        EXTI_CurrentCPU->EMR1 = temp;
 8004054:	f8ce 4084 	str.w	r4, [lr, #132]	@ 0x84
        temp = EXTI_CurrentCPU->IMR1;
 8004058:	f8de 4080 	ldr.w	r4, [lr, #128]	@ 0x80
        temp &= ~(iocurrent);
 800405c:	bf54      	ite	pl
 800405e:	4034      	andpl	r4, r6
          temp |= iocurrent;
 8004060:	ea4a 0404 	orrmi.w	r4, sl, r4
        EXTI_CurrentCPU->IMR1 = temp;
 8004064:	f8ce 4080 	str.w	r4, [lr, #128]	@ 0x80
    position++;
 8004068:	3201      	adds	r2, #1
  while (((GPIO_Init->Pin) >> position) != 0x00U)
 800406a:	9b00      	ldr	r3, [sp, #0]
 800406c:	fa33 f402 	lsrs.w	r4, r3, r2
 8004070:	f47f aea8 	bne.w	8003dc4 <HAL_GPIO_Init+0x24>
  }
}
 8004074:	b005      	add	sp, #20
 8004076:	e8bd 8ff0 	ldmia.w	sp!, {r4, r5, r6, r7, r8, r9, sl, fp, pc}
 800407a:	bf00      	nop
 800407c:	58020000 	.word	0x58020000
 8004080:	58024400 	.word	0x58024400
 8004084:	58020400 	.word	0x58020400
 8004088:	58020800 	.word	0x58020800
 800408c:	58020c00 	.word	0x58020c00
 8004090:	58021000 	.word	0x58021000
 8004094:	58021400 	.word	0x58021400
 8004098:	58021800 	.word	0x58021800
 800409c:	58021c00 	.word	0x58021c00
 80040a0:	58022000 	.word	0x58022000
 80040a4:	58022400 	.word	0x58022400
        temp = GPIOx->OSPEEDR;
 80040a8:	f8d0 9008 	ldr.w	r9, [r0, #8]
      if ((GPIO_Init->Mode & GPIO_MODE) == MODE_AF)
 80040ac:	2f02      	cmp	r7, #2
        temp |= (GPIO_Init->Speed << (position * 2U));
 80040ae:	68cb      	ldr	r3, [r1, #12]
        temp &= ~(GPIO_OSPEEDR_OSPEED0 << (position * 2U));
 80040b0:	ea09 0906 	and.w	r9, r9, r6
        temp |= (GPIO_Init->Speed << (position * 2U));
 80040b4:	fa03 f804 	lsl.w	r8, r3, r4
      temp |= ((GPIO_Init->Pull) << (position * 2U));
 80040b8:	688b      	ldr	r3, [r1, #8]
        temp |= (GPIO_Init->Speed << (position * 2U));
 80040ba:	ea48 0809 	orr.w	r8, r8, r9
        GPIOx->OSPEEDR = temp;
 80040be:	f8c0 8008 	str.w	r8, [r0, #8]
        temp |= (((GPIO_Init->Mode & OUTPUT_TYPE) >> OUTPUT_TYPE_Pos) << position);
 80040c2:	f3c5 1800 	ubfx	r8, r5, #4, #1
        temp = GPIOx->OTYPER;
 80040c6:	f8d0 9004 	ldr.w	r9, [r0, #4]
        temp |= (((GPIO_Init->Mode & OUTPUT_TYPE) >> OUTPUT_TYPE_Pos) << position);
 80040ca:	fa08 f802 	lsl.w	r8, r8, r2
        temp &= ~(GPIO_OTYPER_OT0 << position) ;
 80040ce:	ea29 0c0c 	bic.w	ip, r9, ip
        temp |= (((GPIO_Init->Mode & OUTPUT_TYPE) >> OUTPUT_TYPE_Pos) << position);
 80040d2:	ea48 0c0c 	orr.w	ip, r8, ip
        GPIOx->OTYPER = temp;
 80040d6:	f8c0 c004 	str.w	ip, [r0, #4]
      temp |= ((GPIO_Init->Pull) << (position * 2U));
 80040da:	fa03 fc04 	lsl.w	ip, r3, r4
      temp = GPIOx->PUPDR;
 80040de:	f8d0 800c 	ldr.w	r8, [r0, #12]
      temp &= ~(GPIO_PUPDR_PUPD0 << (position * 2U));
 80040e2:	ea08 0806 	and.w	r8, r8, r6
      temp |= ((GPIO_Init->Pull) << (position * 2U));
 80040e6:	ea4c 0c08 	orr.w	ip, ip, r8
      GPIOx->PUPDR = temp;
 80040ea:	f8c0 c00c 	str.w	ip, [r0, #12]
      if ((GPIO_Init->Mode & GPIO_MODE) == MODE_AF)
 80040ee:	f47f ae81 	bne.w	8003df4 <HAL_GPIO_Init+0x54>
        temp &= ~(0xFU << ((position & 0x07U) * 4U));
 80040f2:	f002 0c07 	and.w	ip, r2, #7
        temp |= ((GPIO_Init->Alternate) << ((position & 0x07U) * 4U));
 80040f6:	690b      	ldr	r3, [r1, #16]
        temp = GPIOx->AFR[position >> 3U];
 80040f8:	ea4f 08d2 	mov.w	r8, r2, lsr #3
        temp &= ~(0xFU << ((position & 0x07U) * 4U));
 80040fc:	ea4f 0c8c 	mov.w	ip, ip, lsl #2
 8004100:	eb00 0888 	add.w	r8, r0, r8, lsl #2
        temp |= ((GPIO_Init->Alternate) << ((position & 0x07U) * 4U));
 8004104:	fa03 f30c 	lsl.w	r3, r3, ip
        temp = GPIOx->AFR[position >> 3U];
 8004108:	f8d8 9020 	ldr.w	r9, [r8, #32]
        temp |= ((GPIO_Init->Alternate) << ((position & 0x07U) * 4U));
 800410c:	9301      	str	r3, [sp, #4]
        temp &= ~(0xFU << ((position & 0x07U) * 4U));
 800410e:	230f      	movs	r3, #15
 8004110:	fa03 fc0c 	lsl.w	ip, r3, ip
        temp |= ((GPIO_Init->Alternate) << ((position & 0x07U) * 4U));
 8004114:	9b01      	ldr	r3, [sp, #4]
        temp &= ~(0xFU << ((position & 0x07U) * 4U));
 8004116:	ea29 090c 	bic.w	r9, r9, ip
        temp |= ((GPIO_Init->Alternate) << ((position & 0x07U) * 4U));
 800411a:	ea43 0c09 	orr.w	ip, r3, r9
        GPIOx->AFR[position >> 3U] = temp;
 800411e:	f8c8 c020 	str.w	ip, [r8, #32]
 8004122:	e667      	b.n	8003df4 <HAL_GPIO_Init+0x54>
          temp |= iocurrent;
 8004124:	ea44 040c 	orr.w	r4, r4, ip
 8004128:	e72b      	b.n	8003f82 <HAL_GPIO_Init+0x1e2>
          temp |= iocurrent;
 800412a:	ea44 040c 	orr.w	r4, r4, ip
 800412e:	e743      	b.n	8003fb8 <HAL_GPIO_Init+0x218>
          temp |= iocurrent;
 8004130:	ea4c 0404 	orr.w	r4, ip, r4
 8004134:	e736      	b.n	8003fa4 <HAL_GPIO_Init+0x204>
          temp |= iocurrent;
 8004136:	ea44 040c 	orr.w	r4, r4, ip
 800413a:	e72a      	b.n	8003f92 <HAL_GPIO_Init+0x1f2>
        temp |= (GPIO_GET_INDEX(GPIOx) << (4U * (position & 0x03U)));
 800413c:	f04f 0c01 	mov.w	ip, #1
 8004140:	fa0c f707 	lsl.w	r7, ip, r7
 8004144:	433c      	orrs	r4, r7
 8004146:	e768      	b.n	800401a <HAL_GPIO_Init+0x27a>
 8004148:	f04f 0c05 	mov.w	ip, #5
 800414c:	fa0c f707 	lsl.w	r7, ip, r7
 8004150:	433c      	orrs	r4, r7
 8004152:	e762      	b.n	800401a <HAL_GPIO_Init+0x27a>
 8004154:	f04f 0c03 	mov.w	ip, #3
 8004158:	fa0c f707 	lsl.w	r7, ip, r7
 800415c:	433c      	orrs	r4, r7
 800415e:	e75c      	b.n	800401a <HAL_GPIO_Init+0x27a>
 8004160:	4770      	bx	lr
 8004162:	f04f 0c04 	mov.w	ip, #4
 8004166:	fa0c f707 	lsl.w	r7, ip, r7
 800416a:	433c      	orrs	r4, r7
 800416c:	e755      	b.n	800401a <HAL_GPIO_Init+0x27a>
 800416e:	f04f 0c06 	mov.w	ip, #6
 8004172:	fa0c f707 	lsl.w	r7, ip, r7
 8004176:	433c      	orrs	r4, r7
 8004178:	e74f      	b.n	800401a <HAL_GPIO_Init+0x27a>
 800417a:	f04f 0c07 	mov.w	ip, #7
 800417e:	fa0c f707 	lsl.w	r7, ip, r7
 8004182:	433c      	orrs	r4, r7
 8004184:	e749      	b.n	800401a <HAL_GPIO_Init+0x27a>
 8004186:	f04f 0c08 	mov.w	ip, #8
 800418a:	fa0c f707 	lsl.w	r7, ip, r7
 800418e:	433c      	orrs	r4, r7
 8004190:	e743      	b.n	800401a <HAL_GPIO_Init+0x27a>
      temp = GPIOx->PUPDR;
 8004192:	f8d0 800c 	ldr.w	r8, [r0, #12]
      temp |= ((GPIO_Init->Pull) << (position * 2U));
 8004196:	688b      	ldr	r3, [r1, #8]
      temp &= ~(GPIO_PUPDR_PUPD0 << (position * 2U));
 8004198:	ea08 0806 	and.w	r8, r8, r6
      temp |= ((GPIO_Init->Pull) << (position * 2U));
 800419c:	fa03 fc04 	lsl.w	ip, r3, r4
 80041a0:	ea4c 0c08 	orr.w	ip, ip, r8
      GPIOx->PUPDR = temp;
 80041a4:	f8c0 c00c 	str.w	ip, [r0, #12]
      if ((GPIO_Init->Mode & GPIO_MODE) == MODE_AF)
 80041a8:	e624      	b.n	8003df4 <HAL_GPIO_Init+0x54>
 80041aa:	bf00      	nop

080041ac <HAL_GPIO_WritePin>:
{
  /* Check the parameters */
  assert_param(IS_GPIO_PIN(GPIO_Pin));
  assert_param(IS_GPIO_PIN_ACTION(PinState));

  if (PinState != GPIO_PIN_RESET)
 80041ac:	b902      	cbnz	r2, 80041b0 <HAL_GPIO_WritePin+0x4>
  {
    GPIOx->BSRR = GPIO_Pin;
  }
  else
  {
    GPIOx->BSRR = (uint32_t)GPIO_Pin << GPIO_NUMBER;
 80041ae:	0409      	lsls	r1, r1, #16
 80041b0:	6181      	str	r1, [r0, #24]
  }
}
 80041b2:	4770      	bx	lr

080041b4 <HAL_PWREx_ConfigSupply>:
  *         process during startup.
  *         For more details, please refer to the power control chapter in the reference manual
  * @retval HAL status.
  */
HAL_StatusTypeDef HAL_PWREx_ConfigSupply (uint32_t SupplySource)
{
 80041b4:	b538      	push	{r3, r4, r5, lr}
  /* Check the parameters */
  assert_param (IS_PWR_SUPPLY (SupplySource));

  /* Check if supply source was configured */
#if defined (PWR_FLAG_SCUEN)
  if (__HAL_PWR_GET_FLAG (PWR_FLAG_SCUEN) == 0U)
 80041b6:	4c10      	ldr	r4, [pc, #64]	@ (80041f8 <HAL_PWREx_ConfigSupply+0x44>)
 80041b8:	68e3      	ldr	r3, [r4, #12]
 80041ba:	f013 0f04 	tst.w	r3, #4
#else
  if ((PWR->CR3 & (PWR_CR3_SMPSEN | PWR_CR3_LDOEN | PWR_CR3_BYPASS)) != (PWR_CR3_SMPSEN | PWR_CR3_LDOEN))
#endif /* defined (PWR_FLAG_SCUEN) */
  {
    /* Check supply configuration */
    if ((PWR->CR3 & PWR_SUPPLY_CONFIG_MASK) != SupplySource)
 80041be:	68e3      	ldr	r3, [r4, #12]
  if (__HAL_PWR_GET_FLAG (PWR_FLAG_SCUEN) == 0U)
 80041c0:	d105      	bne.n	80041ce <HAL_PWREx_ConfigSupply+0x1a>
    if ((PWR->CR3 & PWR_SUPPLY_CONFIG_MASK) != SupplySource)
 80041c2:	f003 0307 	and.w	r3, r3, #7
 80041c6:	1a18      	subs	r0, r3, r0
 80041c8:	bf18      	it	ne
 80041ca:	2001      	movne	r0, #1
    }
  }
#endif /* defined (SMPS) */

  return HAL_OK;
}
 80041cc:	bd38      	pop	{r3, r4, r5, pc}
  MODIFY_REG (PWR->CR3, PWR_SUPPLY_CONFIG_MASK, SupplySource);
 80041ce:	f023 0307 	bic.w	r3, r3, #7
 80041d2:	4303      	orrs	r3, r0
 80041d4:	60e3      	str	r3, [r4, #12]
  tickstart = HAL_GetTick ();
 80041d6:	f7fd fb77 	bl	80018c8 <HAL_GetTick>
 80041da:	4605      	mov	r5, r0
  while (__HAL_PWR_GET_FLAG (PWR_FLAG_ACTVOSRDY) == 0U)
 80041dc:	e005      	b.n	80041ea <HAL_PWREx_ConfigSupply+0x36>
    if ((HAL_GetTick () - tickstart) > PWR_FLAG_SETTING_DELAY)
 80041de:	f7fd fb73 	bl	80018c8 <HAL_GetTick>
 80041e2:	1b40      	subs	r0, r0, r5
 80041e4:	f5b0 7f7a 	cmp.w	r0, #1000	@ 0x3e8
 80041e8:	d804      	bhi.n	80041f4 <HAL_PWREx_ConfigSupply+0x40>
  while (__HAL_PWR_GET_FLAG (PWR_FLAG_ACTVOSRDY) == 0U)
 80041ea:	6863      	ldr	r3, [r4, #4]
 80041ec:	049b      	lsls	r3, r3, #18
 80041ee:	d5f6      	bpl.n	80041de <HAL_PWREx_ConfigSupply+0x2a>
      return HAL_OK;
 80041f0:	2000      	movs	r0, #0
}
 80041f2:	bd38      	pop	{r3, r4, r5, pc}
      return HAL_ERROR;
 80041f4:	2001      	movs	r0, #1
}
 80041f6:	bd38      	pop	{r3, r4, r5, pc}
 80041f8:	58024800 	.word	0x58024800

080041fc <HAL_RCC_GetSysClockFreq.part.0>:
    case RCC_CFGR_SWS_PLL1:  /* PLL1 used as system clock  source */

      /* PLL_VCO = (HSE_VALUE or HSI_VALUE or CSI_VALUE/ PLLM) * PLLN
      SYSCLK = PLL_VCO / PLLR
      */
      pllsource = (RCC->PLLCKSELR & RCC_PLLCKSELR_PLLSRC);
 80041fc:	4b33      	ldr	r3, [pc, #204]	@ (80042cc <HAL_RCC_GetSysClockFreq.part.0+0xd0>)
uint32_t HAL_RCC_GetSysClockFreq(void)
 80041fe:	b430      	push	{r4, r5}
      pllsource = (RCC->PLLCKSELR & RCC_PLLCKSELR_PLLSRC);
 8004200:	6a99      	ldr	r1, [r3, #40]	@ 0x28
      pllm = ((RCC->PLLCKSELR & RCC_PLLCKSELR_DIVM1) >> 4)  ;
 8004202:	6a9c      	ldr	r4, [r3, #40]	@ 0x28
      pllfracen = ((RCC-> PLLCFGR & RCC_PLLCFGR_PLL1FRACEN) >> RCC_PLLCFGR_PLL1FRACEN_Pos);
 8004204:	6add      	ldr	r5, [r3, #44]	@ 0x2c
      fracn1 = (float_t)(uint32_t)(pllfracen * ((RCC->PLL1FRACR & RCC_PLL1FRACR_FRACN1) >> 3));

      if (pllm != 0U)
 8004206:	f414 7f7c 	tst.w	r4, #1008	@ 0x3f0
      fracn1 = (float_t)(uint32_t)(pllfracen * ((RCC->PLL1FRACR & RCC_PLL1FRACR_FRACN1) >> 3));
 800420a:	6b5a      	ldr	r2, [r3, #52]	@ 0x34
      pllm = ((RCC->PLLCKSELR & RCC_PLLCKSELR_DIVM1) >> 4)  ;
 800420c:	f3c4 1005 	ubfx	r0, r4, #4, #6
      if (pllm != 0U)
 8004210:	d036      	beq.n	8004280 <HAL_RCC_GetSysClockFreq.part.0+0x84>
      fracn1 = (float_t)(uint32_t)(pllfracen * ((RCC->PLL1FRACR & RCC_PLL1FRACR_FRACN1) >> 3));
 8004212:	f3c2 02cc 	ubfx	r2, r2, #3, #13
      pllfracen = ((RCC-> PLLCFGR & RCC_PLLCFGR_PLL1FRACEN) >> RCC_PLLCFGR_PLL1FRACEN_Pos);
 8004216:	f005 0501 	and.w	r5, r5, #1
      pllsource = (RCC->PLLCKSELR & RCC_PLLCKSELR_PLLSRC);
 800421a:	f001 0103 	and.w	r1, r1, #3
          case RCC_PLLSOURCE_HSI:  /* HSI used as PLL clock source */

            if (__HAL_RCC_GET_FLAG(RCC_FLAG_HSIDIV) != 0U)
            {
              hsivalue = (HSI_VALUE >> (__HAL_RCC_GET_HSI_DIVIDER() >> 3));
              pllvco = ((float_t)hsivalue / (float_t)pllm) * ((float_t)(uint32_t)(RCC->PLL1DIVR & RCC_PLL1DIVR_N1) + (fracn1 / (float_t)0x2000) + (float_t)1);
 800421e:	ee07 0a90 	vmov	s15, r0
      fracn1 = (float_t)(uint32_t)(pllfracen * ((RCC->PLL1FRACR & RCC_PLL1FRACR_FRACN1) >> 3));
 8004222:	fb05 f202 	mul.w	r2, r5, r2
        switch (pllsource)
 8004226:	2901      	cmp	r1, #1
              pllvco = ((float_t)hsivalue / (float_t)pllm) * ((float_t)(uint32_t)(RCC->PLL1DIVR & RCC_PLL1DIVR_N1) + (fracn1 / (float_t)0x2000) + (float_t)1);
 8004228:	eeb8 7ae7 	vcvt.f32.s32	s14, s15
 800422c:	ee06 2a90 	vmov	s13, r2
 8004230:	eefa 6ae9 	vcvt.f32.s32	s13, s13, #13
        switch (pllsource)
 8004234:	d002      	beq.n	800423c <HAL_RCC_GetSysClockFreq.part.0+0x40>
 8004236:	2902      	cmp	r1, #2
 8004238:	d042      	beq.n	80042c0 <HAL_RCC_GetSysClockFreq.part.0+0xc4>
 800423a:	b319      	cbz	r1, 8004284 <HAL_RCC_GetSysClockFreq.part.0+0x88>
          case RCC_PLLSOURCE_HSE:  /* HSE used as PLL clock source */
            pllvco = ((float_t)HSE_VALUE / (float_t)pllm) * ((float_t)(uint32_t)(RCC->PLL1DIVR & RCC_PLL1DIVR_N1) + (fracn1 / (float_t)0x2000) + (float_t)1);
            break;

          default:
            pllvco = ((float_t)CSI_VALUE / (float_t)pllm) * ((float_t)(uint32_t)(RCC->PLL1DIVR & RCC_PLL1DIVR_N1) + (fracn1 / (float_t)0x2000) + (float_t)1);
 800423c:	eddf 7a24 	vldr	s15, [pc, #144]	@ 80042d0 <HAL_RCC_GetSysClockFreq.part.0+0xd4>
 8004240:	ee87 6a87 	vdiv.f32	s12, s15, s14
 8004244:	6b1b      	ldr	r3, [r3, #48]	@ 0x30
 8004246:	f3c3 0308 	ubfx	r3, r3, #0, #9
 800424a:	ee07 3a90 	vmov	s15, r3
 800424e:	eef7 5a00 	vmov.f32	s11, #112	@ 0x3f800000  1.0
 8004252:	eef8 7ae7 	vcvt.f32.s32	s15, s15
 8004256:	ee77 7aa5 	vadd.f32	s15, s15, s11
 800425a:	ee77 7aa6 	vadd.f32	s15, s15, s13
 800425e:	ee67 7a86 	vmul.f32	s15, s15, s12
            break;
        }
        pllp = (((RCC->PLL1DIVR & RCC_PLL1DIVR_P1) >> 9) + 1U) ;
 8004262:	4b1a      	ldr	r3, [pc, #104]	@ (80042cc <HAL_RCC_GetSysClockFreq.part.0+0xd0>)
 8004264:	6b1b      	ldr	r3, [r3, #48]	@ 0x30
 8004266:	f3c3 2346 	ubfx	r3, r3, #9, #7
 800426a:	3301      	adds	r3, #1
        sysclockfreq = (uint32_t)(float_t)(pllvco / (float_t)pllp);
 800426c:	ee07 3a10 	vmov	s14, r3
 8004270:	eef8 6ac7 	vcvt.f32.s32	s13, s14
 8004274:	ee87 7aa6 	vdiv.f32	s14, s15, s13
 8004278:	eefc 7ac7 	vcvt.u32.f32	s15, s14
 800427c:	ee17 0a90 	vmov	r0, s15
      sysclockfreq = CSI_VALUE;
      break;
  }

  return sysclockfreq;
}
 8004280:	bc30      	pop	{r4, r5}
 8004282:	4770      	bx	lr
            if (__HAL_RCC_GET_FLAG(RCC_FLAG_HSIDIV) != 0U)
 8004284:	681a      	ldr	r2, [r3, #0]
 8004286:	0692      	lsls	r2, r2, #26
 8004288:	d51d      	bpl.n	80042c6 <HAL_RCC_GetSysClockFreq.part.0+0xca>
              hsivalue = (HSI_VALUE >> (__HAL_RCC_GET_HSI_DIVIDER() >> 3));
 800428a:	6819      	ldr	r1, [r3, #0]
              pllvco = ((float_t)hsivalue / (float_t)pllm) * ((float_t)(uint32_t)(RCC->PLL1DIVR & RCC_PLL1DIVR_N1) + (fracn1 / (float_t)0x2000) + (float_t)1);
 800428c:	eef7 7a00 	vmov.f32	s15, #112	@ 0x3f800000  1.0
              hsivalue = (HSI_VALUE >> (__HAL_RCC_GET_HSI_DIVIDER() >> 3));
 8004290:	4a10      	ldr	r2, [pc, #64]	@ (80042d4 <HAL_RCC_GetSysClockFreq.part.0+0xd8>)
              pllvco = ((float_t)hsivalue / (float_t)pllm) * ((float_t)(uint32_t)(RCC->PLL1DIVR & RCC_PLL1DIVR_N1) + (fracn1 / (float_t)0x2000) + (float_t)1);
 8004292:	6b1b      	ldr	r3, [r3, #48]	@ 0x30
              hsivalue = (HSI_VALUE >> (__HAL_RCC_GET_HSI_DIVIDER() >> 3));
 8004294:	f3c1 01c1 	ubfx	r1, r1, #3, #2
              pllvco = ((float_t)hsivalue / (float_t)pllm) * ((float_t)(uint32_t)(RCC->PLL1DIVR & RCC_PLL1DIVR_N1) + (fracn1 / (float_t)0x2000) + (float_t)1);
 8004298:	f3c3 0308 	ubfx	r3, r3, #0, #9
              hsivalue = (HSI_VALUE >> (__HAL_RCC_GET_HSI_DIVIDER() >> 3));
 800429c:	40ca      	lsrs	r2, r1
              pllvco = ((float_t)hsivalue / (float_t)pllm) * ((float_t)(uint32_t)(RCC->PLL1DIVR & RCC_PLL1DIVR_N1) + (fracn1 / (float_t)0x2000) + (float_t)1);
 800429e:	ee06 3a10 	vmov	s12, r3
 80042a2:	ee05 2a90 	vmov	s11, r2
 80042a6:	eeb8 6ac6 	vcvt.f32.s32	s12, s12
 80042aa:	eef8 5ae5 	vcvt.f32.s32	s11, s11
 80042ae:	ee36 6a27 	vadd.f32	s12, s12, s15
 80042b2:	eec5 7a87 	vdiv.f32	s15, s11, s14
 80042b6:	ee36 7a26 	vadd.f32	s14, s12, s13
 80042ba:	ee67 7a87 	vmul.f32	s15, s15, s14
 80042be:	e7d0      	b.n	8004262 <HAL_RCC_GetSysClockFreq.part.0+0x66>
            pllvco = ((float_t)HSE_VALUE / (float_t)pllm) * ((float_t)(uint32_t)(RCC->PLL1DIVR & RCC_PLL1DIVR_N1) + (fracn1 / (float_t)0x2000) + (float_t)1);
 80042c0:	eddf 7a05 	vldr	s15, [pc, #20]	@ 80042d8 <HAL_RCC_GetSysClockFreq.part.0+0xdc>
 80042c4:	e7bc      	b.n	8004240 <HAL_RCC_GetSysClockFreq.part.0+0x44>
              pllvco = ((float_t)HSI_VALUE / (float_t)pllm) * ((float_t)(uint32_t)(RCC->PLL1DIVR & RCC_PLL1DIVR_N1) + (fracn1 / (float_t)0x2000) + (float_t)1);
 80042c6:	eddf 7a05 	vldr	s15, [pc, #20]	@ 80042dc <HAL_RCC_GetSysClockFreq.part.0+0xe0>
 80042ca:	e7b9      	b.n	8004240 <HAL_RCC_GetSysClockFreq.part.0+0x44>
 80042cc:	58024400 	.word	0x58024400
 80042d0:	4a742400 	.word	0x4a742400
 80042d4:	03d09000 	.word	0x03d09000
 80042d8:	4bbebc20 	.word	0x4bbebc20
 80042dc:	4c742400 	.word	0x4c742400

080042e0 <HAL_RCC_OscConfig>:
  if (RCC_OscInitStruct == NULL)
 80042e0:	2800      	cmp	r0, #0
 80042e2:	f000 82e7 	beq.w	80048b4 <HAL_RCC_OscConfig+0x5d4>
{
 80042e6:	b5f8      	push	{r3, r4, r5, r6, r7, lr}
  if (((RCC_OscInitStruct->OscillatorType) & RCC_OSCILLATORTYPE_HSE) == RCC_OSCILLATORTYPE_HSE)
 80042e8:	6803      	ldr	r3, [r0, #0]
 80042ea:	4604      	mov	r4, r0
 80042ec:	07d9      	lsls	r1, r3, #31
 80042ee:	d52e      	bpl.n	800434e <HAL_RCC_OscConfig+0x6e>
    const uint32_t temp_sysclksrc = __HAL_RCC_GET_SYSCLK_SOURCE();
 80042f0:	4997      	ldr	r1, [pc, #604]	@ (8004550 <HAL_RCC_OscConfig+0x270>)
 80042f2:	690a      	ldr	r2, [r1, #16]
    const uint32_t temp_pllckselr = RCC->PLLCKSELR;
 80042f4:	6a89      	ldr	r1, [r1, #40]	@ 0x28
    const uint32_t temp_sysclksrc = __HAL_RCC_GET_SYSCLK_SOURCE();
 80042f6:	f002 0238 	and.w	r2, r2, #56	@ 0x38
    if ((temp_sysclksrc == RCC_CFGR_SWS_HSE) || ((temp_sysclksrc == RCC_CFGR_SWS_PLL1) && ((temp_pllckselr & RCC_PLLCKSELR_PLLSRC) == RCC_PLLCKSELR_PLLSRC_HSE)))
 80042fa:	2a10      	cmp	r2, #16
 80042fc:	f000 80ee 	beq.w	80044dc <HAL_RCC_OscConfig+0x1fc>
 8004300:	2a18      	cmp	r2, #24
 8004302:	f000 80e6 	beq.w	80044d2 <HAL_RCC_OscConfig+0x1f2>
      __HAL_RCC_HSE_CONFIG(RCC_OscInitStruct->HSEState);
 8004306:	6863      	ldr	r3, [r4, #4]
 8004308:	f5b3 3f80 	cmp.w	r3, #65536	@ 0x10000
 800430c:	f000 8111 	beq.w	8004532 <HAL_RCC_OscConfig+0x252>
 8004310:	2b00      	cmp	r3, #0
 8004312:	f000 8167 	beq.w	80045e4 <HAL_RCC_OscConfig+0x304>
 8004316:	f5b3 2fa0 	cmp.w	r3, #327680	@ 0x50000
 800431a:	4b8d      	ldr	r3, [pc, #564]	@ (8004550 <HAL_RCC_OscConfig+0x270>)
 800431c:	681a      	ldr	r2, [r3, #0]
 800431e:	f000 8288 	beq.w	8004832 <HAL_RCC_OscConfig+0x552>
 8004322:	f422 3280 	bic.w	r2, r2, #65536	@ 0x10000
 8004326:	601a      	str	r2, [r3, #0]
 8004328:	681a      	ldr	r2, [r3, #0]
 800432a:	f422 2280 	bic.w	r2, r2, #262144	@ 0x40000
 800432e:	601a      	str	r2, [r3, #0]
        tickstart = HAL_GetTick();
 8004330:	f7fd faca 	bl	80018c8 <HAL_GetTick>
        while (__HAL_RCC_GET_FLAG(RCC_FLAG_HSERDY) == 0U)
 8004334:	4e86      	ldr	r6, [pc, #536]	@ (8004550 <HAL_RCC_OscConfig+0x270>)
        tickstart = HAL_GetTick();
 8004336:	4605      	mov	r5, r0
        while (__HAL_RCC_GET_FLAG(RCC_FLAG_HSERDY) == 0U)
 8004338:	e005      	b.n	8004346 <HAL_RCC_OscConfig+0x66>
          if ((uint32_t)(HAL_GetTick() - tickstart) > HSE_TIMEOUT_VALUE)
 800433a:	f7fd fac5 	bl	80018c8 <HAL_GetTick>
 800433e:	1b40      	subs	r0, r0, r5
 8004340:	2864      	cmp	r0, #100	@ 0x64
 8004342:	f200 814d 	bhi.w	80045e0 <HAL_RCC_OscConfig+0x300>
        while (__HAL_RCC_GET_FLAG(RCC_FLAG_HSERDY) == 0U)
 8004346:	6833      	ldr	r3, [r6, #0]
 8004348:	039b      	lsls	r3, r3, #14
 800434a:	d5f6      	bpl.n	800433a <HAL_RCC_OscConfig+0x5a>
  if (((RCC_OscInitStruct->OscillatorType) & RCC_OSCILLATORTYPE_HSI) == RCC_OSCILLATORTYPE_HSI)
 800434c:	6823      	ldr	r3, [r4, #0]
 800434e:	079d      	lsls	r5, r3, #30
 8004350:	d470      	bmi.n	8004434 <HAL_RCC_OscConfig+0x154>
  if (((RCC_OscInitStruct->OscillatorType) & RCC_OSCILLATORTYPE_CSI) == RCC_OSCILLATORTYPE_CSI)
 8004352:	06d9      	lsls	r1, r3, #27
 8004354:	d533      	bpl.n	80043be <HAL_RCC_OscConfig+0xde>
    const uint32_t temp_sysclksrc = __HAL_RCC_GET_SYSCLK_SOURCE();
 8004356:	4a7e      	ldr	r2, [pc, #504]	@ (8004550 <HAL_RCC_OscConfig+0x270>)
 8004358:	6913      	ldr	r3, [r2, #16]
    const uint32_t temp_pllckselr = RCC->PLLCKSELR;
 800435a:	6a92      	ldr	r2, [r2, #40]	@ 0x28
    const uint32_t temp_sysclksrc = __HAL_RCC_GET_SYSCLK_SOURCE();
 800435c:	f003 0338 	and.w	r3, r3, #56	@ 0x38
    if ((temp_sysclksrc == RCC_CFGR_SWS_CSI) || ((temp_sysclksrc == RCC_CFGR_SWS_PLL1) && ((temp_pllckselr & RCC_PLLCKSELR_PLLSRC) == RCC_PLLCKSELR_PLLSRC_CSI)))
 8004360:	2b08      	cmp	r3, #8
 8004362:	f000 80cb 	beq.w	80044fc <HAL_RCC_OscConfig+0x21c>
 8004366:	2b18      	cmp	r3, #24
 8004368:	f000 80c3 	beq.w	80044f2 <HAL_RCC_OscConfig+0x212>
      if ((RCC_OscInitStruct->CSIState) != RCC_CSI_OFF)
 800436c:	69e3      	ldr	r3, [r4, #28]
        __HAL_RCC_CSI_ENABLE();
 800436e:	4d78      	ldr	r5, [pc, #480]	@ (8004550 <HAL_RCC_OscConfig+0x270>)
      if ((RCC_OscInitStruct->CSIState) != RCC_CSI_OFF)
 8004370:	2b00      	cmp	r3, #0
 8004372:	f000 816f 	beq.w	8004654 <HAL_RCC_OscConfig+0x374>
        __HAL_RCC_CSI_ENABLE();
 8004376:	682b      	ldr	r3, [r5, #0]
 8004378:	f043 0380 	orr.w	r3, r3, #128	@ 0x80
 800437c:	602b      	str	r3, [r5, #0]
        tickstart = HAL_GetTick();
 800437e:	f7fd faa3 	bl	80018c8 <HAL_GetTick>
 8004382:	4606      	mov	r6, r0
        while (__HAL_RCC_GET_FLAG(RCC_FLAG_CSIRDY) == 0U)
 8004384:	e005      	b.n	8004392 <HAL_RCC_OscConfig+0xb2>
          if ((HAL_GetTick() - tickstart) > CSI_TIMEOUT_VALUE)
 8004386:	f7fd fa9f 	bl	80018c8 <HAL_GetTick>
 800438a:	1b80      	subs	r0, r0, r6
 800438c:	2802      	cmp	r0, #2
 800438e:	f200 8127 	bhi.w	80045e0 <HAL_RCC_OscConfig+0x300>
        while (__HAL_RCC_GET_FLAG(RCC_FLAG_CSIRDY) == 0U)
 8004392:	682b      	ldr	r3, [r5, #0]
 8004394:	05db      	lsls	r3, r3, #23
 8004396:	d5f6      	bpl.n	8004386 <HAL_RCC_OscConfig+0xa6>
        __HAL_RCC_CSI_CALIBRATIONVALUE_ADJUST(RCC_OscInitStruct->CSICalibrationValue);
 8004398:	f7fd fa9c 	bl	80018d4 <HAL_GetREVID>
 800439c:	f241 0303 	movw	r3, #4099	@ 0x1003
 80043a0:	4298      	cmp	r0, r3
 80043a2:	f200 8267 	bhi.w	8004874 <HAL_RCC_OscConfig+0x594>
 80043a6:	6a22      	ldr	r2, [r4, #32]
 80043a8:	686b      	ldr	r3, [r5, #4]
 80043aa:	2a20      	cmp	r2, #32
 80043ac:	f023 43f8 	bic.w	r3, r3, #2080374784	@ 0x7c000000
 80043b0:	bf0c      	ite	eq
 80043b2:	f043 4380 	orreq.w	r3, r3, #1073741824	@ 0x40000000
 80043b6:	ea43 6382 	orrne.w	r3, r3, r2, lsl #26
 80043ba:	606b      	str	r3, [r5, #4]
  if (((RCC_OscInitStruct->OscillatorType) & RCC_OSCILLATORTYPE_LSI) == RCC_OSCILLATORTYPE_LSI)
 80043bc:	6823      	ldr	r3, [r4, #0]
 80043be:	071d      	lsls	r5, r3, #28
 80043c0:	d516      	bpl.n	80043f0 <HAL_RCC_OscConfig+0x110>
    if ((RCC_OscInitStruct->LSIState) != RCC_LSI_OFF)
 80043c2:	6963      	ldr	r3, [r4, #20]
      __HAL_RCC_LSI_ENABLE();
 80043c4:	4d62      	ldr	r5, [pc, #392]	@ (8004550 <HAL_RCC_OscConfig+0x270>)
    if ((RCC_OscInitStruct->LSIState) != RCC_LSI_OFF)
 80043c6:	2b00      	cmp	r3, #0
 80043c8:	f000 8122 	beq.w	8004610 <HAL_RCC_OscConfig+0x330>
      __HAL_RCC_LSI_ENABLE();
 80043cc:	6f6b      	ldr	r3, [r5, #116]	@ 0x74
 80043ce:	f043 0301 	orr.w	r3, r3, #1
 80043d2:	676b      	str	r3, [r5, #116]	@ 0x74
      tickstart = HAL_GetTick();
 80043d4:	f7fd fa78 	bl	80018c8 <HAL_GetTick>
 80043d8:	4606      	mov	r6, r0
      while (__HAL_RCC_GET_FLAG(RCC_FLAG_LSIRDY) == 0U)
 80043da:	e005      	b.n	80043e8 <HAL_RCC_OscConfig+0x108>
        if ((HAL_GetTick() - tickstart) > LSI_TIMEOUT_VALUE)
 80043dc:	f7fd fa74 	bl	80018c8 <HAL_GetTick>
 80043e0:	1b80      	subs	r0, r0, r6
 80043e2:	2802      	cmp	r0, #2
 80043e4:	f200 80fc 	bhi.w	80045e0 <HAL_RCC_OscConfig+0x300>
      while (__HAL_RCC_GET_FLAG(RCC_FLAG_LSIRDY) == 0U)
 80043e8:	6f6b      	ldr	r3, [r5, #116]	@ 0x74
 80043ea:	0798      	lsls	r0, r3, #30
 80043ec:	d5f6      	bpl.n	80043dc <HAL_RCC_OscConfig+0xfc>
  if (((RCC_OscInitStruct->OscillatorType) & RCC_OSCILLATORTYPE_HSI48) == RCC_OSCILLATORTYPE_HSI48)
 80043ee:	6823      	ldr	r3, [r4, #0]
 80043f0:	069a      	lsls	r2, r3, #26
 80043f2:	d516      	bpl.n	8004422 <HAL_RCC_OscConfig+0x142>
    if ((RCC_OscInitStruct->HSI48State) != RCC_HSI48_OFF)
 80043f4:	69a3      	ldr	r3, [r4, #24]
      __HAL_RCC_HSI48_ENABLE();
 80043f6:	4d56      	ldr	r5, [pc, #344]	@ (8004550 <HAL_RCC_OscConfig+0x270>)
    if ((RCC_OscInitStruct->HSI48State) != RCC_HSI48_OFF)
 80043f8:	2b00      	cmp	r3, #0
 80043fa:	f000 811a 	beq.w	8004632 <HAL_RCC_OscConfig+0x352>
      __HAL_RCC_HSI48_ENABLE();
 80043fe:	682b      	ldr	r3, [r5, #0]
 8004400:	f443 5380 	orr.w	r3, r3, #4096	@ 0x1000
 8004404:	602b      	str	r3, [r5, #0]
      tickstart = HAL_GetTick();
 8004406:	f7fd fa5f 	bl	80018c8 <HAL_GetTick>
 800440a:	4606      	mov	r6, r0
      while (__HAL_RCC_GET_FLAG(RCC_FLAG_HSI48RDY) == 0U)
 800440c:	e005      	b.n	800441a <HAL_RCC_OscConfig+0x13a>
        if ((HAL_GetTick() - tickstart) > HSI48_TIMEOUT_VALUE)
 800440e:	f7fd fa5b 	bl	80018c8 <HAL_GetTick>
 8004412:	1b80      	subs	r0, r0, r6
 8004414:	2802      	cmp	r0, #2
 8004416:	f200 80e3 	bhi.w	80045e0 <HAL_RCC_OscConfig+0x300>
      while (__HAL_RCC_GET_FLAG(RCC_FLAG_HSI48RDY) == 0U)
 800441a:	682b      	ldr	r3, [r5, #0]
 800441c:	049f      	lsls	r7, r3, #18
 800441e:	d5f6      	bpl.n	800440e <HAL_RCC_OscConfig+0x12e>
  if (((RCC_OscInitStruct->OscillatorType) & RCC_OSCILLATORTYPE_LSE) == RCC_OSCILLATORTYPE_LSE)
 8004420:	6823      	ldr	r3, [r4, #0]
 8004422:	0759      	lsls	r1, r3, #29
 8004424:	f100 808b 	bmi.w	800453e <HAL_RCC_OscConfig+0x25e>
  if ((RCC_OscInitStruct->PLL.PLLState) != RCC_PLL_NONE)
 8004428:	6a63      	ldr	r3, [r4, #36]	@ 0x24
 800442a:	2b00      	cmp	r3, #0
 800442c:	f040 80bf 	bne.w	80045ae <HAL_RCC_OscConfig+0x2ce>
  return HAL_OK;
 8004430:	2000      	movs	r0, #0
}
 8004432:	bdf8      	pop	{r3, r4, r5, r6, r7, pc}
    const uint32_t temp_sysclksrc = __HAL_RCC_GET_SYSCLK_SOURCE();
 8004434:	4a46      	ldr	r2, [pc, #280]	@ (8004550 <HAL_RCC_OscConfig+0x270>)
 8004436:	6913      	ldr	r3, [r2, #16]
    const uint32_t temp_pllckselr = RCC->PLLCKSELR;
 8004438:	6a92      	ldr	r2, [r2, #40]	@ 0x28
    if ((temp_sysclksrc == RCC_CFGR_SWS_HSI) || ((temp_sysclksrc == RCC_CFGR_SWS_PLL1) && ((temp_pllckselr & RCC_PLLCKSELR_PLLSRC) == RCC_PLLCKSELR_PLLSRC_HSI)))
 800443a:	f013 0338 	ands.w	r3, r3, #56	@ 0x38
 800443e:	d12d      	bne.n	800449c <HAL_RCC_OscConfig+0x1bc>
      if ((__HAL_RCC_GET_FLAG(RCC_FLAG_HSIRDY) != 0U) && (RCC_OscInitStruct->HSIState == RCC_HSI_OFF))
 8004440:	4b43      	ldr	r3, [pc, #268]	@ (8004550 <HAL_RCC_OscConfig+0x270>)
      if ((RCC_OscInitStruct->HSIState) != RCC_HSI_OFF)
 8004442:	68e2      	ldr	r2, [r4, #12]
      if ((__HAL_RCC_GET_FLAG(RCC_FLAG_HSIRDY) != 0U) && (RCC_OscInitStruct->HSIState == RCC_HSI_OFF))
 8004444:	681b      	ldr	r3, [r3, #0]
 8004446:	0759      	lsls	r1, r3, #29
 8004448:	d501      	bpl.n	800444e <HAL_RCC_OscConfig+0x16e>
 800444a:	2a00      	cmp	r2, #0
 800444c:	d04f      	beq.n	80044ee <HAL_RCC_OscConfig+0x20e>
        __HAL_RCC_HSI_CONFIG(RCC_OscInitStruct->HSIState);
 800444e:	4d40      	ldr	r5, [pc, #256]	@ (8004550 <HAL_RCC_OscConfig+0x270>)
 8004450:	682b      	ldr	r3, [r5, #0]
 8004452:	f023 0319 	bic.w	r3, r3, #25
 8004456:	4313      	orrs	r3, r2
 8004458:	602b      	str	r3, [r5, #0]
        tickstart = HAL_GetTick();
 800445a:	f7fd fa35 	bl	80018c8 <HAL_GetTick>
 800445e:	4606      	mov	r6, r0
        while (__HAL_RCC_GET_FLAG(RCC_FLAG_HSIRDY) == 0U)
 8004460:	e005      	b.n	800446e <HAL_RCC_OscConfig+0x18e>
          if ((uint32_t)(HAL_GetTick() - tickstart) > HSI_TIMEOUT_VALUE)
 8004462:	f7fd fa31 	bl	80018c8 <HAL_GetTick>
 8004466:	1b80      	subs	r0, r0, r6
 8004468:	2802      	cmp	r0, #2
 800446a:	f200 80b9 	bhi.w	80045e0 <HAL_RCC_OscConfig+0x300>
        while (__HAL_RCC_GET_FLAG(RCC_FLAG_HSIRDY) == 0U)
 800446e:	682b      	ldr	r3, [r5, #0]
 8004470:	075b      	lsls	r3, r3, #29
 8004472:	d5f6      	bpl.n	8004462 <HAL_RCC_OscConfig+0x182>
        __HAL_RCC_HSI_CALIBRATIONVALUE_ADJUST(RCC_OscInitStruct->HSICalibrationValue);
 8004474:	f7fd fa2e 	bl	80018d4 <HAL_GetREVID>
 8004478:	f241 0303 	movw	r3, #4099	@ 0x1003
 800447c:	4298      	cmp	r0, r3
 800447e:	f200 8110 	bhi.w	80046a2 <HAL_RCC_OscConfig+0x3c2>
 8004482:	6922      	ldr	r2, [r4, #16]
 8004484:	686b      	ldr	r3, [r5, #4]
 8004486:	2a40      	cmp	r2, #64	@ 0x40
 8004488:	f423 337c 	bic.w	r3, r3, #258048	@ 0x3f000
 800448c:	bf0c      	ite	eq
 800448e:	f443 3300 	orreq.w	r3, r3, #131072	@ 0x20000
 8004492:	ea43 3302 	orrne.w	r3, r3, r2, lsl #12
 8004496:	606b      	str	r3, [r5, #4]
  if (((RCC_OscInitStruct->OscillatorType) & RCC_OSCILLATORTYPE_CSI) == RCC_OSCILLATORTYPE_CSI)
 8004498:	6823      	ldr	r3, [r4, #0]
 800449a:	e75a      	b.n	8004352 <HAL_RCC_OscConfig+0x72>
    if ((temp_sysclksrc == RCC_CFGR_SWS_HSI) || ((temp_sysclksrc == RCC_CFGR_SWS_PLL1) && ((temp_pllckselr & RCC_PLLCKSELR_PLLSRC) == RCC_PLLCKSELR_PLLSRC_HSI)))
 800449c:	2b18      	cmp	r3, #24
 800449e:	f000 80fc 	beq.w	800469a <HAL_RCC_OscConfig+0x3ba>
        __HAL_RCC_HSI_CONFIG(RCC_OscInitStruct->HSIState);
 80044a2:	4d2b      	ldr	r5, [pc, #172]	@ (8004550 <HAL_RCC_OscConfig+0x270>)
      if ((RCC_OscInitStruct->HSIState) != RCC_HSI_OFF)
 80044a4:	68e2      	ldr	r2, [r4, #12]
        __HAL_RCC_HSI_CONFIG(RCC_OscInitStruct->HSIState);
 80044a6:	682b      	ldr	r3, [r5, #0]
      if ((RCC_OscInitStruct->HSIState) != RCC_HSI_OFF)
 80044a8:	2a00      	cmp	r2, #0
 80044aa:	f000 80e5 	beq.w	8004678 <HAL_RCC_OscConfig+0x398>
        __HAL_RCC_HSI_CONFIG(RCC_OscInitStruct->HSIState);
 80044ae:	f023 0319 	bic.w	r3, r3, #25
 80044b2:	4313      	orrs	r3, r2
 80044b4:	602b      	str	r3, [r5, #0]
        tickstart = HAL_GetTick();
 80044b6:	f7fd fa07 	bl	80018c8 <HAL_GetTick>
 80044ba:	4606      	mov	r6, r0
        while (__HAL_RCC_GET_FLAG(RCC_FLAG_HSIRDY) == 0U)
 80044bc:	e005      	b.n	80044ca <HAL_RCC_OscConfig+0x1ea>
          if ((HAL_GetTick() - tickstart) > HSI_TIMEOUT_VALUE)
 80044be:	f7fd fa03 	bl	80018c8 <HAL_GetTick>
 80044c2:	1b80      	subs	r0, r0, r6
 80044c4:	2802      	cmp	r0, #2
 80044c6:	f200 808b 	bhi.w	80045e0 <HAL_RCC_OscConfig+0x300>
        while (__HAL_RCC_GET_FLAG(RCC_FLAG_HSIRDY) == 0U)
 80044ca:	682b      	ldr	r3, [r5, #0]
 80044cc:	075f      	lsls	r7, r3, #29
 80044ce:	d5f6      	bpl.n	80044be <HAL_RCC_OscConfig+0x1de>
 80044d0:	e7d0      	b.n	8004474 <HAL_RCC_OscConfig+0x194>
    if ((temp_sysclksrc == RCC_CFGR_SWS_HSE) || ((temp_sysclksrc == RCC_CFGR_SWS_PLL1) && ((temp_pllckselr & RCC_PLLCKSELR_PLLSRC) == RCC_PLLCKSELR_PLLSRC_HSE)))
 80044d2:	f001 0103 	and.w	r1, r1, #3
 80044d6:	2902      	cmp	r1, #2
 80044d8:	f47f af15 	bne.w	8004306 <HAL_RCC_OscConfig+0x26>
      if ((__HAL_RCC_GET_FLAG(RCC_FLAG_HSERDY) != 0U) && (RCC_OscInitStruct->HSEState == RCC_HSE_OFF))
 80044dc:	4a1c      	ldr	r2, [pc, #112]	@ (8004550 <HAL_RCC_OscConfig+0x270>)
 80044de:	6812      	ldr	r2, [r2, #0]
 80044e0:	0392      	lsls	r2, r2, #14
 80044e2:	f57f af34 	bpl.w	800434e <HAL_RCC_OscConfig+0x6e>
 80044e6:	6862      	ldr	r2, [r4, #4]
 80044e8:	2a00      	cmp	r2, #0
 80044ea:	f47f af30 	bne.w	800434e <HAL_RCC_OscConfig+0x6e>
    return HAL_ERROR;
 80044ee:	2001      	movs	r0, #1
}
 80044f0:	bdf8      	pop	{r3, r4, r5, r6, r7, pc}
    if ((temp_sysclksrc == RCC_CFGR_SWS_CSI) || ((temp_sysclksrc == RCC_CFGR_SWS_PLL1) && ((temp_pllckselr & RCC_PLLCKSELR_PLLSRC) == RCC_PLLCKSELR_PLLSRC_CSI)))
 80044f2:	f002 0203 	and.w	r2, r2, #3
 80044f6:	2a01      	cmp	r2, #1
 80044f8:	f47f af38 	bne.w	800436c <HAL_RCC_OscConfig+0x8c>
      if ((__HAL_RCC_GET_FLAG(RCC_FLAG_CSIRDY) != 0U) && (RCC_OscInitStruct->CSIState != RCC_CSI_ON))
 80044fc:	4b14      	ldr	r3, [pc, #80]	@ (8004550 <HAL_RCC_OscConfig+0x270>)
 80044fe:	681b      	ldr	r3, [r3, #0]
 8004500:	05da      	lsls	r2, r3, #23
 8004502:	d502      	bpl.n	800450a <HAL_RCC_OscConfig+0x22a>
 8004504:	69e3      	ldr	r3, [r4, #28]
 8004506:	2b80      	cmp	r3, #128	@ 0x80
 8004508:	d1f1      	bne.n	80044ee <HAL_RCC_OscConfig+0x20e>
        __HAL_RCC_CSI_CALIBRATIONVALUE_ADJUST(RCC_OscInitStruct->CSICalibrationValue);
 800450a:	f7fd f9e3 	bl	80018d4 <HAL_GetREVID>
 800450e:	f241 0303 	movw	r3, #4099	@ 0x1003
 8004512:	4298      	cmp	r0, r3
 8004514:	f200 80ce 	bhi.w	80046b4 <HAL_RCC_OscConfig+0x3d4>
 8004518:	6a22      	ldr	r2, [r4, #32]
 800451a:	2a20      	cmp	r2, #32
 800451c:	f000 81b9 	beq.w	8004892 <HAL_RCC_OscConfig+0x5b2>
 8004520:	490b      	ldr	r1, [pc, #44]	@ (8004550 <HAL_RCC_OscConfig+0x270>)
 8004522:	684b      	ldr	r3, [r1, #4]
 8004524:	f023 43f8 	bic.w	r3, r3, #2080374784	@ 0x7c000000
 8004528:	ea43 6382 	orr.w	r3, r3, r2, lsl #26
 800452c:	604b      	str	r3, [r1, #4]
  if (((RCC_OscInitStruct->OscillatorType) & RCC_OSCILLATORTYPE_LSI) == RCC_OSCILLATORTYPE_LSI)
 800452e:	6823      	ldr	r3, [r4, #0]
 8004530:	e745      	b.n	80043be <HAL_RCC_OscConfig+0xde>
      __HAL_RCC_HSE_CONFIG(RCC_OscInitStruct->HSEState);
 8004532:	4a07      	ldr	r2, [pc, #28]	@ (8004550 <HAL_RCC_OscConfig+0x270>)
 8004534:	6813      	ldr	r3, [r2, #0]
 8004536:	f443 3380 	orr.w	r3, r3, #65536	@ 0x10000
 800453a:	6013      	str	r3, [r2, #0]
      if (RCC_OscInitStruct->HSEState != RCC_HSE_OFF)
 800453c:	e6f8      	b.n	8004330 <HAL_RCC_OscConfig+0x50>
    PWR->CR1 |= PWR_CR1_DBP;
 800453e:	4d05      	ldr	r5, [pc, #20]	@ (8004554 <HAL_RCC_OscConfig+0x274>)
 8004540:	682b      	ldr	r3, [r5, #0]
 8004542:	f443 7380 	orr.w	r3, r3, #256	@ 0x100
 8004546:	602b      	str	r3, [r5, #0]
    tickstart = HAL_GetTick();
 8004548:	f7fd f9be 	bl	80018c8 <HAL_GetTick>
 800454c:	4606      	mov	r6, r0
    while ((PWR->CR1 & PWR_CR1_DBP) == 0U)
 800454e:	e008      	b.n	8004562 <HAL_RCC_OscConfig+0x282>
 8004550:	58024400 	.word	0x58024400
 8004554:	58024800 	.word	0x58024800
      if ((HAL_GetTick() - tickstart) > RCC_DBP_TIMEOUT_VALUE)
 8004558:	f7fd f9b6 	bl	80018c8 <HAL_GetTick>
 800455c:	1b80      	subs	r0, r0, r6
 800455e:	2864      	cmp	r0, #100	@ 0x64
 8004560:	d83e      	bhi.n	80045e0 <HAL_RCC_OscConfig+0x300>
    while ((PWR->CR1 & PWR_CR1_DBP) == 0U)
 8004562:	682b      	ldr	r3, [r5, #0]
 8004564:	05da      	lsls	r2, r3, #23
 8004566:	d5f7      	bpl.n	8004558 <HAL_RCC_OscConfig+0x278>
    __HAL_RCC_LSE_CONFIG(RCC_OscInitStruct->LSEState);
 8004568:	68a3      	ldr	r3, [r4, #8]
 800456a:	2b01      	cmp	r3, #1
 800456c:	f000 818b 	beq.w	8004886 <HAL_RCC_OscConfig+0x5a6>
 8004570:	2b00      	cmp	r3, #0
 8004572:	f000 8166 	beq.w	8004842 <HAL_RCC_OscConfig+0x562>
 8004576:	2b05      	cmp	r3, #5
 8004578:	4b85      	ldr	r3, [pc, #532]	@ (8004790 <HAL_RCC_OscConfig+0x4b0>)
 800457a:	6f1a      	ldr	r2, [r3, #112]	@ 0x70
 800457c:	f000 8192 	beq.w	80048a4 <HAL_RCC_OscConfig+0x5c4>
 8004580:	f022 0201 	bic.w	r2, r2, #1
 8004584:	671a      	str	r2, [r3, #112]	@ 0x70
 8004586:	6f1a      	ldr	r2, [r3, #112]	@ 0x70
 8004588:	f022 0204 	bic.w	r2, r2, #4
 800458c:	671a      	str	r2, [r3, #112]	@ 0x70
      tickstart = HAL_GetTick();
 800458e:	f7fd f99b 	bl	80018c8 <HAL_GetTick>
      while (__HAL_RCC_GET_FLAG(RCC_FLAG_LSERDY) == 0U)
 8004592:	4e7f      	ldr	r6, [pc, #508]	@ (8004790 <HAL_RCC_OscConfig+0x4b0>)
        if ((HAL_GetTick() - tickstart) > RCC_LSE_TIMEOUT_VALUE)
 8004594:	f241 3788 	movw	r7, #5000	@ 0x1388
      tickstart = HAL_GetTick();
 8004598:	4605      	mov	r5, r0
      while (__HAL_RCC_GET_FLAG(RCC_FLAG_LSERDY) == 0U)
 800459a:	e004      	b.n	80045a6 <HAL_RCC_OscConfig+0x2c6>
        if ((HAL_GetTick() - tickstart) > RCC_LSE_TIMEOUT_VALUE)
 800459c:	f7fd f994 	bl	80018c8 <HAL_GetTick>
 80045a0:	1b40      	subs	r0, r0, r5
 80045a2:	42b8      	cmp	r0, r7
 80045a4:	d81c      	bhi.n	80045e0 <HAL_RCC_OscConfig+0x300>
      while (__HAL_RCC_GET_FLAG(RCC_FLAG_LSERDY) == 0U)
 80045a6:	6f33      	ldr	r3, [r6, #112]	@ 0x70
 80045a8:	079b      	lsls	r3, r3, #30
 80045aa:	d5f7      	bpl.n	800459c <HAL_RCC_OscConfig+0x2bc>
 80045ac:	e73c      	b.n	8004428 <HAL_RCC_OscConfig+0x148>
    if (__HAL_RCC_GET_SYSCLK_SOURCE() != RCC_CFGR_SWS_PLL1)
 80045ae:	4d78      	ldr	r5, [pc, #480]	@ (8004790 <HAL_RCC_OscConfig+0x4b0>)
 80045b0:	692a      	ldr	r2, [r5, #16]
 80045b2:	f002 0238 	and.w	r2, r2, #56	@ 0x38
 80045b6:	2a18      	cmp	r2, #24
 80045b8:	f000 80ee 	beq.w	8004798 <HAL_RCC_OscConfig+0x4b8>
      if ((RCC_OscInitStruct->PLL.PLLState) == RCC_PLL_ON)
 80045bc:	2b02      	cmp	r3, #2
        __HAL_RCC_PLL_DISABLE();
 80045be:	682b      	ldr	r3, [r5, #0]
 80045c0:	f023 7380 	bic.w	r3, r3, #16777216	@ 0x1000000
 80045c4:	602b      	str	r3, [r5, #0]
      if ((RCC_OscInitStruct->PLL.PLLState) == RCC_PLL_ON)
 80045c6:	d07f      	beq.n	80046c8 <HAL_RCC_OscConfig+0x3e8>
        tickstart = HAL_GetTick();
 80045c8:	f7fd f97e 	bl	80018c8 <HAL_GetTick>
 80045cc:	4604      	mov	r4, r0
        while (__HAL_RCC_GET_FLAG(RCC_FLAG_PLLRDY) != 0U)
 80045ce:	682b      	ldr	r3, [r5, #0]
 80045d0:	019b      	lsls	r3, r3, #6
 80045d2:	f57f af2d 	bpl.w	8004430 <HAL_RCC_OscConfig+0x150>
          if ((HAL_GetTick() - tickstart) > PLL_TIMEOUT_VALUE)
 80045d6:	f7fd f977 	bl	80018c8 <HAL_GetTick>
 80045da:	1b00      	subs	r0, r0, r4
 80045dc:	2802      	cmp	r0, #2
 80045de:	d9f6      	bls.n	80045ce <HAL_RCC_OscConfig+0x2ee>
            return HAL_TIMEOUT;
 80045e0:	2003      	movs	r0, #3
}
 80045e2:	bdf8      	pop	{r3, r4, r5, r6, r7, pc}
      __HAL_RCC_HSE_CONFIG(RCC_OscInitStruct->HSEState);
 80045e4:	4d6a      	ldr	r5, [pc, #424]	@ (8004790 <HAL_RCC_OscConfig+0x4b0>)
 80045e6:	682b      	ldr	r3, [r5, #0]
 80045e8:	f423 3380 	bic.w	r3, r3, #65536	@ 0x10000
 80045ec:	602b      	str	r3, [r5, #0]
 80045ee:	682b      	ldr	r3, [r5, #0]
 80045f0:	f423 2380 	bic.w	r3, r3, #262144	@ 0x40000
 80045f4:	602b      	str	r3, [r5, #0]
        tickstart = HAL_GetTick();
 80045f6:	f7fd f967 	bl	80018c8 <HAL_GetTick>
 80045fa:	4606      	mov	r6, r0
        while (__HAL_RCC_GET_FLAG(RCC_FLAG_HSERDY) != 0U)
 80045fc:	e004      	b.n	8004608 <HAL_RCC_OscConfig+0x328>
          if ((uint32_t)(HAL_GetTick() - tickstart) > HSE_TIMEOUT_VALUE)
 80045fe:	f7fd f963 	bl	80018c8 <HAL_GetTick>
 8004602:	1b80      	subs	r0, r0, r6
 8004604:	2864      	cmp	r0, #100	@ 0x64
 8004606:	d8eb      	bhi.n	80045e0 <HAL_RCC_OscConfig+0x300>
        while (__HAL_RCC_GET_FLAG(RCC_FLAG_HSERDY) != 0U)
 8004608:	682b      	ldr	r3, [r5, #0]
 800460a:	039f      	lsls	r7, r3, #14
 800460c:	d4f7      	bmi.n	80045fe <HAL_RCC_OscConfig+0x31e>
 800460e:	e69d      	b.n	800434c <HAL_RCC_OscConfig+0x6c>
      __HAL_RCC_LSI_DISABLE();
 8004610:	6f6b      	ldr	r3, [r5, #116]	@ 0x74
 8004612:	f023 0301 	bic.w	r3, r3, #1
 8004616:	676b      	str	r3, [r5, #116]	@ 0x74
      tickstart = HAL_GetTick();
 8004618:	f7fd f956 	bl	80018c8 <HAL_GetTick>
 800461c:	4606      	mov	r6, r0
      while (__HAL_RCC_GET_FLAG(RCC_FLAG_LSIRDY) != 0U)
 800461e:	e004      	b.n	800462a <HAL_RCC_OscConfig+0x34a>
        if ((HAL_GetTick() - tickstart) > LSI_TIMEOUT_VALUE)
 8004620:	f7fd f952 	bl	80018c8 <HAL_GetTick>
 8004624:	1b80      	subs	r0, r0, r6
 8004626:	2802      	cmp	r0, #2
 8004628:	d8da      	bhi.n	80045e0 <HAL_RCC_OscConfig+0x300>
      while (__HAL_RCC_GET_FLAG(RCC_FLAG_LSIRDY) != 0U)
 800462a:	6f6b      	ldr	r3, [r5, #116]	@ 0x74
 800462c:	0799      	lsls	r1, r3, #30
 800462e:	d4f7      	bmi.n	8004620 <HAL_RCC_OscConfig+0x340>
 8004630:	e6dd      	b.n	80043ee <HAL_RCC_OscConfig+0x10e>
      __HAL_RCC_HSI48_DISABLE();
 8004632:	682b      	ldr	r3, [r5, #0]
 8004634:	f423 5380 	bic.w	r3, r3, #4096	@ 0x1000
 8004638:	602b      	str	r3, [r5, #0]
      tickstart = HAL_GetTick();
 800463a:	f7fd f945 	bl	80018c8 <HAL_GetTick>
 800463e:	4606      	mov	r6, r0
      while (__HAL_RCC_GET_FLAG(RCC_FLAG_HSI48RDY) != 0U)
 8004640:	e004      	b.n	800464c <HAL_RCC_OscConfig+0x36c>
        if ((HAL_GetTick() - tickstart) > HSI48_TIMEOUT_VALUE)
 8004642:	f7fd f941 	bl	80018c8 <HAL_GetTick>
 8004646:	1b80      	subs	r0, r0, r6
 8004648:	2802      	cmp	r0, #2
 800464a:	d8c9      	bhi.n	80045e0 <HAL_RCC_OscConfig+0x300>
      while (__HAL_RCC_GET_FLAG(RCC_FLAG_HSI48RDY) != 0U)
 800464c:	682b      	ldr	r3, [r5, #0]
 800464e:	0498      	lsls	r0, r3, #18
 8004650:	d4f7      	bmi.n	8004642 <HAL_RCC_OscConfig+0x362>
 8004652:	e6e5      	b.n	8004420 <HAL_RCC_OscConfig+0x140>
        __HAL_RCC_CSI_DISABLE();
 8004654:	682b      	ldr	r3, [r5, #0]
 8004656:	f023 0380 	bic.w	r3, r3, #128	@ 0x80
 800465a:	602b      	str	r3, [r5, #0]
        tickstart = HAL_GetTick();
 800465c:	f7fd f934 	bl	80018c8 <HAL_GetTick>
 8004660:	4606      	mov	r6, r0
        while (__HAL_RCC_GET_FLAG(RCC_FLAG_CSIRDY) != 0U)
 8004662:	e004      	b.n	800466e <HAL_RCC_OscConfig+0x38e>
          if ((HAL_GetTick() - tickstart) > CSI_TIMEOUT_VALUE)
 8004664:	f7fd f930 	bl	80018c8 <HAL_GetTick>
 8004668:	1b80      	subs	r0, r0, r6
 800466a:	2802      	cmp	r0, #2
 800466c:	d8b8      	bhi.n	80045e0 <HAL_RCC_OscConfig+0x300>
        while (__HAL_RCC_GET_FLAG(RCC_FLAG_CSIRDY) != 0U)
 800466e:	682b      	ldr	r3, [r5, #0]
 8004670:	05df      	lsls	r7, r3, #23
 8004672:	d4f7      	bmi.n	8004664 <HAL_RCC_OscConfig+0x384>
  if (((RCC_OscInitStruct->OscillatorType) & RCC_OSCILLATORTYPE_LSI) == RCC_OSCILLATORTYPE_LSI)
 8004674:	6823      	ldr	r3, [r4, #0]
 8004676:	e6a2      	b.n	80043be <HAL_RCC_OscConfig+0xde>
        __HAL_RCC_HSI_DISABLE();
 8004678:	f023 0301 	bic.w	r3, r3, #1
 800467c:	602b      	str	r3, [r5, #0]
        tickstart = HAL_GetTick();
 800467e:	f7fd f923 	bl	80018c8 <HAL_GetTick>
 8004682:	4606      	mov	r6, r0
        while (__HAL_RCC_GET_FLAG(RCC_FLAG_HSIRDY) != 0U)
 8004684:	e004      	b.n	8004690 <HAL_RCC_OscConfig+0x3b0>
          if ((HAL_GetTick() - tickstart) > HSI_TIMEOUT_VALUE)
 8004686:	f7fd f91f 	bl	80018c8 <HAL_GetTick>
 800468a:	1b80      	subs	r0, r0, r6
 800468c:	2802      	cmp	r0, #2
 800468e:	d8a7      	bhi.n	80045e0 <HAL_RCC_OscConfig+0x300>
        while (__HAL_RCC_GET_FLAG(RCC_FLAG_HSIRDY) != 0U)
 8004690:	682b      	ldr	r3, [r5, #0]
 8004692:	0758      	lsls	r0, r3, #29
 8004694:	d4f7      	bmi.n	8004686 <HAL_RCC_OscConfig+0x3a6>
  if (((RCC_OscInitStruct->OscillatorType) & RCC_OSCILLATORTYPE_CSI) == RCC_OSCILLATORTYPE_CSI)
 8004696:	6823      	ldr	r3, [r4, #0]
 8004698:	e65b      	b.n	8004352 <HAL_RCC_OscConfig+0x72>
    if ((temp_sysclksrc == RCC_CFGR_SWS_HSI) || ((temp_sysclksrc == RCC_CFGR_SWS_PLL1) && ((temp_pllckselr & RCC_PLLCKSELR_PLLSRC) == RCC_PLLCKSELR_PLLSRC_HSI)))
 800469a:	0790      	lsls	r0, r2, #30
 800469c:	f47f af01 	bne.w	80044a2 <HAL_RCC_OscConfig+0x1c2>
 80046a0:	e6ce      	b.n	8004440 <HAL_RCC_OscConfig+0x160>
        __HAL_RCC_HSI_CALIBRATIONVALUE_ADJUST(RCC_OscInitStruct->HSICalibrationValue);
 80046a2:	686b      	ldr	r3, [r5, #4]
 80046a4:	6922      	ldr	r2, [r4, #16]
 80046a6:	f023 43fe 	bic.w	r3, r3, #2130706432	@ 0x7f000000
 80046aa:	ea43 6302 	orr.w	r3, r3, r2, lsl #24
 80046ae:	606b      	str	r3, [r5, #4]
  if (((RCC_OscInitStruct->OscillatorType) & RCC_OSCILLATORTYPE_CSI) == RCC_OSCILLATORTYPE_CSI)
 80046b0:	6823      	ldr	r3, [r4, #0]
 80046b2:	e64e      	b.n	8004352 <HAL_RCC_OscConfig+0x72>
        __HAL_RCC_CSI_CALIBRATIONVALUE_ADJUST(RCC_OscInitStruct->CSICalibrationValue);
 80046b4:	4a36      	ldr	r2, [pc, #216]	@ (8004790 <HAL_RCC_OscConfig+0x4b0>)
 80046b6:	6a21      	ldr	r1, [r4, #32]
 80046b8:	68d3      	ldr	r3, [r2, #12]
 80046ba:	f023 537c 	bic.w	r3, r3, #1056964608	@ 0x3f000000
 80046be:	ea43 6301 	orr.w	r3, r3, r1, lsl #24
 80046c2:	60d3      	str	r3, [r2, #12]
  if (((RCC_OscInitStruct->OscillatorType) & RCC_OSCILLATORTYPE_LSI) == RCC_OSCILLATORTYPE_LSI)
 80046c4:	6823      	ldr	r3, [r4, #0]
 80046c6:	e67a      	b.n	80043be <HAL_RCC_OscConfig+0xde>
        tickstart = HAL_GetTick();
 80046c8:	f7fd f8fe 	bl	80018c8 <HAL_GetTick>
 80046cc:	4606      	mov	r6, r0
        while (__HAL_RCC_GET_FLAG(RCC_FLAG_PLLRDY) != 0U)
 80046ce:	e004      	b.n	80046da <HAL_RCC_OscConfig+0x3fa>
          if ((HAL_GetTick() - tickstart) > PLL_TIMEOUT_VALUE)
 80046d0:	f7fd f8fa 	bl	80018c8 <HAL_GetTick>
 80046d4:	1b80      	subs	r0, r0, r6
 80046d6:	2802      	cmp	r0, #2
 80046d8:	d882      	bhi.n	80045e0 <HAL_RCC_OscConfig+0x300>
        while (__HAL_RCC_GET_FLAG(RCC_FLAG_PLLRDY) != 0U)
 80046da:	682b      	ldr	r3, [r5, #0]
 80046dc:	0199      	lsls	r1, r3, #6
 80046de:	d4f7      	bmi.n	80046d0 <HAL_RCC_OscConfig+0x3f0>
        __HAL_RCC_PLL_CONFIG(RCC_OscInitStruct->PLL.PLLSource,
 80046e0:	6aa9      	ldr	r1, [r5, #40]	@ 0x28
 80046e2:	4b2c      	ldr	r3, [pc, #176]	@ (8004794 <HAL_RCC_OscConfig+0x4b4>)
 80046e4:	6aa2      	ldr	r2, [r4, #40]	@ 0x28
 80046e6:	400b      	ands	r3, r1
 80046e8:	4313      	orrs	r3, r2
 80046ea:	6ae2      	ldr	r2, [r4, #44]	@ 0x2c
 80046ec:	ea43 1302 	orr.w	r3, r3, r2, lsl #4
 80046f0:	62ab      	str	r3, [r5, #40]	@ 0x28
 80046f2:	6b21      	ldr	r1, [r4, #48]	@ 0x30
 80046f4:	e9d4 320d 	ldrd	r3, r2, [r4, #52]	@ 0x34
 80046f8:	3901      	subs	r1, #1
 80046fa:	3b01      	subs	r3, #1
 80046fc:	3a01      	subs	r2, #1
 80046fe:	f3c1 0108 	ubfx	r1, r1, #0, #9
 8004702:	025b      	lsls	r3, r3, #9
 8004704:	0412      	lsls	r2, r2, #16
 8004706:	b29b      	uxth	r3, r3
 8004708:	f402 02fe 	and.w	r2, r2, #8323072	@ 0x7f0000
 800470c:	4313      	orrs	r3, r2
 800470e:	6be2      	ldr	r2, [r4, #60]	@ 0x3c
 8004710:	3a01      	subs	r2, #1
 8004712:	430b      	orrs	r3, r1
 8004714:	0612      	lsls	r2, r2, #24
 8004716:	f002 42fe 	and.w	r2, r2, #2130706432	@ 0x7f000000
 800471a:	4313      	orrs	r3, r2
 800471c:	632b      	str	r3, [r5, #48]	@ 0x30
        __HAL_RCC_PLLFRACN_DISABLE();
 800471e:	6aeb      	ldr	r3, [r5, #44]	@ 0x2c
 8004720:	f023 0301 	bic.w	r3, r3, #1
 8004724:	62eb      	str	r3, [r5, #44]	@ 0x2c
        __HAL_RCC_PLLFRACN_CONFIG(RCC_OscInitStruct->PLL.PLLFRACN);
 8004726:	6b6b      	ldr	r3, [r5, #52]	@ 0x34
 8004728:	6ca2      	ldr	r2, [r4, #72]	@ 0x48
 800472a:	f36f 03cf 	bfc	r3, #3, #13
 800472e:	ea43 03c2 	orr.w	r3, r3, r2, lsl #3
 8004732:	636b      	str	r3, [r5, #52]	@ 0x34
        __HAL_RCC_PLL_VCIRANGE(RCC_OscInitStruct->PLL.PLLRGE) ;
 8004734:	6aeb      	ldr	r3, [r5, #44]	@ 0x2c
 8004736:	6c22      	ldr	r2, [r4, #64]	@ 0x40
 8004738:	f023 030c 	bic.w	r3, r3, #12
 800473c:	4313      	orrs	r3, r2
 800473e:	62eb      	str	r3, [r5, #44]	@ 0x2c
        __HAL_RCC_PLL_VCORANGE(RCC_OscInitStruct->PLL.PLLVCOSEL) ;
 8004740:	6aeb      	ldr	r3, [r5, #44]	@ 0x2c
 8004742:	6c62      	ldr	r2, [r4, #68]	@ 0x44
 8004744:	f023 0302 	bic.w	r3, r3, #2
 8004748:	4313      	orrs	r3, r2
 800474a:	62eb      	str	r3, [r5, #44]	@ 0x2c
        __HAL_RCC_PLLCLKOUT_ENABLE(RCC_PLL1_DIVP);
 800474c:	6aeb      	ldr	r3, [r5, #44]	@ 0x2c
 800474e:	f443 3380 	orr.w	r3, r3, #65536	@ 0x10000
 8004752:	62eb      	str	r3, [r5, #44]	@ 0x2c
        __HAL_RCC_PLLCLKOUT_ENABLE(RCC_PLL1_DIVQ);
 8004754:	6aeb      	ldr	r3, [r5, #44]	@ 0x2c
 8004756:	f443 3300 	orr.w	r3, r3, #131072	@ 0x20000
 800475a:	62eb      	str	r3, [r5, #44]	@ 0x2c
        __HAL_RCC_PLLCLKOUT_ENABLE(RCC_PLL1_DIVR);
 800475c:	6aeb      	ldr	r3, [r5, #44]	@ 0x2c
 800475e:	f443 2380 	orr.w	r3, r3, #262144	@ 0x40000
 8004762:	62eb      	str	r3, [r5, #44]	@ 0x2c
        __HAL_RCC_PLLFRACN_ENABLE();
 8004764:	6aeb      	ldr	r3, [r5, #44]	@ 0x2c
 8004766:	f043 0301 	orr.w	r3, r3, #1
 800476a:	62eb      	str	r3, [r5, #44]	@ 0x2c
        __HAL_RCC_PLL_ENABLE();
 800476c:	682b      	ldr	r3, [r5, #0]
 800476e:	f043 7380 	orr.w	r3, r3, #16777216	@ 0x1000000
 8004772:	602b      	str	r3, [r5, #0]
        tickstart = HAL_GetTick();
 8004774:	f7fd f8a8 	bl	80018c8 <HAL_GetTick>
        while (__HAL_RCC_GET_FLAG(RCC_FLAG_PLLRDY) == 0U)
 8004778:	4d05      	ldr	r5, [pc, #20]	@ (8004790 <HAL_RCC_OscConfig+0x4b0>)
        tickstart = HAL_GetTick();
 800477a:	4604      	mov	r4, r0
        while (__HAL_RCC_GET_FLAG(RCC_FLAG_PLLRDY) == 0U)
 800477c:	682b      	ldr	r3, [r5, #0]
 800477e:	019a      	lsls	r2, r3, #6
 8004780:	f53f ae56 	bmi.w	8004430 <HAL_RCC_OscConfig+0x150>
          if ((HAL_GetTick() - tickstart) > PLL_TIMEOUT_VALUE)
 8004784:	f7fd f8a0 	bl	80018c8 <HAL_GetTick>
 8004788:	1b00      	subs	r0, r0, r4
 800478a:	2802      	cmp	r0, #2
 800478c:	d9f6      	bls.n	800477c <HAL_RCC_OscConfig+0x49c>
 800478e:	e727      	b.n	80045e0 <HAL_RCC_OscConfig+0x300>
 8004790:	58024400 	.word	0x58024400
 8004794:	fffffc0c 	.word	0xfffffc0c
      if (((RCC_OscInitStruct->PLL.PLLState) == RCC_PLL_OFF) ||
 8004798:	2b01      	cmp	r3, #1
      temp1_pllckcfg = RCC->PLLCKSELR;
 800479a:	6aaa      	ldr	r2, [r5, #40]	@ 0x28
      temp2_pllckcfg = RCC->PLL1DIVR;
 800479c:	6b28      	ldr	r0, [r5, #48]	@ 0x30
      if (((RCC_OscInitStruct->PLL.PLLState) == RCC_PLL_OFF) ||
 800479e:	f43f aea6 	beq.w	80044ee <HAL_RCC_OscConfig+0x20e>
          (READ_BIT(temp1_pllckcfg, RCC_PLLCKSELR_PLLSRC) != RCC_OscInitStruct->PLL.PLLSource) ||
 80047a2:	f002 0303 	and.w	r3, r2, #3
      if (((RCC_OscInitStruct->PLL.PLLState) == RCC_PLL_OFF) ||
 80047a6:	6aa1      	ldr	r1, [r4, #40]	@ 0x28
 80047a8:	428b      	cmp	r3, r1
 80047aa:	f47f aea0 	bne.w	80044ee <HAL_RCC_OscConfig+0x20e>
          ((READ_BIT(temp1_pllckcfg, RCC_PLLCKSELR_DIVM1) >> RCC_PLLCKSELR_DIVM1_Pos) != RCC_OscInitStruct->PLL.PLLM) ||
 80047ae:	f3c2 1205 	ubfx	r2, r2, #4, #6
          (READ_BIT(temp1_pllckcfg, RCC_PLLCKSELR_PLLSRC) != RCC_OscInitStruct->PLL.PLLSource) ||
 80047b2:	6ae3      	ldr	r3, [r4, #44]	@ 0x2c
 80047b4:	429a      	cmp	r2, r3
 80047b6:	f47f ae9a 	bne.w	80044ee <HAL_RCC_OscConfig+0x20e>
          (READ_BIT(temp2_pllckcfg, RCC_PLL1DIVR_N1) != (RCC_OscInitStruct->PLL.PLLN - 1U)) ||
 80047ba:	6b23      	ldr	r3, [r4, #48]	@ 0x30
 80047bc:	f3c0 0208 	ubfx	r2, r0, #0, #9
 80047c0:	3b01      	subs	r3, #1
          ((READ_BIT(temp1_pllckcfg, RCC_PLLCKSELR_DIVM1) >> RCC_PLLCKSELR_DIVM1_Pos) != RCC_OscInitStruct->PLL.PLLM) ||
 80047c2:	429a      	cmp	r2, r3
 80047c4:	f47f ae93 	bne.w	80044ee <HAL_RCC_OscConfig+0x20e>
          ((READ_BIT(temp2_pllckcfg, RCC_PLL1DIVR_P1) >> RCC_PLL1DIVR_P1_Pos) != (RCC_OscInitStruct->PLL.PLLP - 1U)) ||
 80047c8:	6b63      	ldr	r3, [r4, #52]	@ 0x34
 80047ca:	f3c0 2246 	ubfx	r2, r0, #9, #7
 80047ce:	3b01      	subs	r3, #1
          (READ_BIT(temp2_pllckcfg, RCC_PLL1DIVR_N1) != (RCC_OscInitStruct->PLL.PLLN - 1U)) ||
 80047d0:	429a      	cmp	r2, r3
 80047d2:	f47f ae8c 	bne.w	80044ee <HAL_RCC_OscConfig+0x20e>
          ((READ_BIT(temp2_pllckcfg, RCC_PLL1DIVR_Q1) >> RCC_PLL1DIVR_Q1_Pos) != (RCC_OscInitStruct->PLL.PLLQ - 1U)) ||
 80047d6:	6ba3      	ldr	r3, [r4, #56]	@ 0x38
 80047d8:	f3c0 4206 	ubfx	r2, r0, #16, #7
 80047dc:	3b01      	subs	r3, #1
          ((READ_BIT(temp2_pllckcfg, RCC_PLL1DIVR_P1) >> RCC_PLL1DIVR_P1_Pos) != (RCC_OscInitStruct->PLL.PLLP - 1U)) ||
 80047de:	429a      	cmp	r2, r3
 80047e0:	f47f ae85 	bne.w	80044ee <HAL_RCC_OscConfig+0x20e>
          ((READ_BIT(temp2_pllckcfg, RCC_PLL1DIVR_R1) >> RCC_PLL1DIVR_R1_Pos) != (RCC_OscInitStruct->PLL.PLLR - 1U)))
 80047e4:	6be3      	ldr	r3, [r4, #60]	@ 0x3c
 80047e6:	f3c0 6006 	ubfx	r0, r0, #24, #7
 80047ea:	3b01      	subs	r3, #1
          ((READ_BIT(temp2_pllckcfg, RCC_PLL1DIVR_Q1) >> RCC_PLL1DIVR_Q1_Pos) != (RCC_OscInitStruct->PLL.PLLQ - 1U)) ||
 80047ec:	4298      	cmp	r0, r3
 80047ee:	f47f ae7e 	bne.w	80044ee <HAL_RCC_OscConfig+0x20e>
        temp1_pllckcfg = ((RCC->PLL1FRACR & RCC_PLL1FRACR_FRACN1) >> RCC_PLL1FRACR_FRACN1_Pos);
 80047f2:	6b6b      	ldr	r3, [r5, #52]	@ 0x34
        if (RCC_OscInitStruct->PLL.PLLFRACN != temp1_pllckcfg)
 80047f4:	6ca2      	ldr	r2, [r4, #72]	@ 0x48
        temp1_pllckcfg = ((RCC->PLL1FRACR & RCC_PLL1FRACR_FRACN1) >> RCC_PLL1FRACR_FRACN1_Pos);
 80047f6:	f3c3 03cc 	ubfx	r3, r3, #3, #13
        if (RCC_OscInitStruct->PLL.PLLFRACN != temp1_pllckcfg)
 80047fa:	429a      	cmp	r2, r3
 80047fc:	f43f ae18 	beq.w	8004430 <HAL_RCC_OscConfig+0x150>
          __HAL_RCC_PLLFRACN_DISABLE();
 8004800:	4a2d      	ldr	r2, [pc, #180]	@ (80048b8 <HAL_RCC_OscConfig+0x5d8>)
 8004802:	6ad3      	ldr	r3, [r2, #44]	@ 0x2c
 8004804:	f023 0301 	bic.w	r3, r3, #1
 8004808:	62d3      	str	r3, [r2, #44]	@ 0x2c
          tickstart = HAL_GetTick();
 800480a:	f7fd f85d 	bl	80018c8 <HAL_GetTick>
 800480e:	4605      	mov	r5, r0
          while ((HAL_GetTick() - tickstart) < PLL_FRAC_TIMEOUT_VALUE)
 8004810:	f7fd f85a 	bl	80018c8 <HAL_GetTick>
 8004814:	42a8      	cmp	r0, r5
 8004816:	d0fb      	beq.n	8004810 <HAL_RCC_OscConfig+0x530>
          __HAL_RCC_PLLFRACN_CONFIG(RCC_OscInitStruct->PLL.PLLFRACN);
 8004818:	4a27      	ldr	r2, [pc, #156]	@ (80048b8 <HAL_RCC_OscConfig+0x5d8>)
 800481a:	6ca1      	ldr	r1, [r4, #72]	@ 0x48
 800481c:	6b53      	ldr	r3, [r2, #52]	@ 0x34
 800481e:	f36f 03cf 	bfc	r3, #3, #13
 8004822:	ea43 03c1 	orr.w	r3, r3, r1, lsl #3
 8004826:	6353      	str	r3, [r2, #52]	@ 0x34
          __HAL_RCC_PLLFRACN_ENABLE();
 8004828:	6ad3      	ldr	r3, [r2, #44]	@ 0x2c
 800482a:	f043 0301 	orr.w	r3, r3, #1
 800482e:	62d3      	str	r3, [r2, #44]	@ 0x2c
 8004830:	e5fe      	b.n	8004430 <HAL_RCC_OscConfig+0x150>
      __HAL_RCC_HSE_CONFIG(RCC_OscInitStruct->HSEState);
 8004832:	f442 2280 	orr.w	r2, r2, #262144	@ 0x40000
 8004836:	601a      	str	r2, [r3, #0]
 8004838:	681a      	ldr	r2, [r3, #0]
 800483a:	f442 3280 	orr.w	r2, r2, #65536	@ 0x10000
 800483e:	601a      	str	r2, [r3, #0]
      if (RCC_OscInitStruct->HSEState != RCC_HSE_OFF)
 8004840:	e576      	b.n	8004330 <HAL_RCC_OscConfig+0x50>
    __HAL_RCC_LSE_CONFIG(RCC_OscInitStruct->LSEState);
 8004842:	4d1d      	ldr	r5, [pc, #116]	@ (80048b8 <HAL_RCC_OscConfig+0x5d8>)
        if ((HAL_GetTick() - tickstart) > RCC_LSE_TIMEOUT_VALUE)
 8004844:	f241 3788 	movw	r7, #5000	@ 0x1388
    __HAL_RCC_LSE_CONFIG(RCC_OscInitStruct->LSEState);
 8004848:	6f2b      	ldr	r3, [r5, #112]	@ 0x70
 800484a:	f023 0301 	bic.w	r3, r3, #1
 800484e:	672b      	str	r3, [r5, #112]	@ 0x70
 8004850:	6f2b      	ldr	r3, [r5, #112]	@ 0x70
 8004852:	f023 0304 	bic.w	r3, r3, #4
 8004856:	672b      	str	r3, [r5, #112]	@ 0x70
      tickstart = HAL_GetTick();
 8004858:	f7fd f836 	bl	80018c8 <HAL_GetTick>
 800485c:	4606      	mov	r6, r0
      while (__HAL_RCC_GET_FLAG(RCC_FLAG_LSERDY) != 0U)
 800485e:	e005      	b.n	800486c <HAL_RCC_OscConfig+0x58c>
        if ((HAL_GetTick() - tickstart) > RCC_LSE_TIMEOUT_VALUE)
 8004860:	f7fd f832 	bl	80018c8 <HAL_GetTick>
 8004864:	1b80      	subs	r0, r0, r6
 8004866:	42b8      	cmp	r0, r7
 8004868:	f63f aeba 	bhi.w	80045e0 <HAL_RCC_OscConfig+0x300>
      while (__HAL_RCC_GET_FLAG(RCC_FLAG_LSERDY) != 0U)
 800486c:	6f2b      	ldr	r3, [r5, #112]	@ 0x70
 800486e:	0798      	lsls	r0, r3, #30
 8004870:	d4f6      	bmi.n	8004860 <HAL_RCC_OscConfig+0x580>
 8004872:	e5d9      	b.n	8004428 <HAL_RCC_OscConfig+0x148>
        __HAL_RCC_CSI_CALIBRATIONVALUE_ADJUST(RCC_OscInitStruct->CSICalibrationValue);
 8004874:	68eb      	ldr	r3, [r5, #12]
 8004876:	6a22      	ldr	r2, [r4, #32]
 8004878:	f023 537c 	bic.w	r3, r3, #1056964608	@ 0x3f000000
 800487c:	ea43 6302 	orr.w	r3, r3, r2, lsl #24
 8004880:	60eb      	str	r3, [r5, #12]
  if (((RCC_OscInitStruct->OscillatorType) & RCC_OSCILLATORTYPE_LSI) == RCC_OSCILLATORTYPE_LSI)
 8004882:	6823      	ldr	r3, [r4, #0]
 8004884:	e59b      	b.n	80043be <HAL_RCC_OscConfig+0xde>
    __HAL_RCC_LSE_CONFIG(RCC_OscInitStruct->LSEState);
 8004886:	4a0c      	ldr	r2, [pc, #48]	@ (80048b8 <HAL_RCC_OscConfig+0x5d8>)
 8004888:	6f13      	ldr	r3, [r2, #112]	@ 0x70
 800488a:	f043 0301 	orr.w	r3, r3, #1
 800488e:	6713      	str	r3, [r2, #112]	@ 0x70
    if ((RCC_OscInitStruct->LSEState) != RCC_LSE_OFF)
 8004890:	e67d      	b.n	800458e <HAL_RCC_OscConfig+0x2ae>
        __HAL_RCC_CSI_CALIBRATIONVALUE_ADJUST(RCC_OscInitStruct->CSICalibrationValue);
 8004892:	4a09      	ldr	r2, [pc, #36]	@ (80048b8 <HAL_RCC_OscConfig+0x5d8>)
 8004894:	6853      	ldr	r3, [r2, #4]
 8004896:	f023 43f8 	bic.w	r3, r3, #2080374784	@ 0x7c000000
 800489a:	f043 4380 	orr.w	r3, r3, #1073741824	@ 0x40000000
 800489e:	6053      	str	r3, [r2, #4]
  if (((RCC_OscInitStruct->OscillatorType) & RCC_OSCILLATORTYPE_LSI) == RCC_OSCILLATORTYPE_LSI)
 80048a0:	6823      	ldr	r3, [r4, #0]
 80048a2:	e58c      	b.n	80043be <HAL_RCC_OscConfig+0xde>
    __HAL_RCC_LSE_CONFIG(RCC_OscInitStruct->LSEState);
 80048a4:	f042 0204 	orr.w	r2, r2, #4
 80048a8:	671a      	str	r2, [r3, #112]	@ 0x70
 80048aa:	6f1a      	ldr	r2, [r3, #112]	@ 0x70
 80048ac:	f042 0201 	orr.w	r2, r2, #1
 80048b0:	671a      	str	r2, [r3, #112]	@ 0x70
    if ((RCC_OscInitStruct->LSEState) != RCC_LSE_OFF)
 80048b2:	e66c      	b.n	800458e <HAL_RCC_OscConfig+0x2ae>
    return HAL_ERROR;
 80048b4:	2001      	movs	r0, #1
}
 80048b6:	4770      	bx	lr
 80048b8:	58024400 	.word	0x58024400

080048bc <HAL_RCC_GetSysClockFreq>:
  switch (RCC->CFGR & RCC_CFGR_SWS)
 80048bc:	4a3f      	ldr	r2, [pc, #252]	@ (80049bc <HAL_RCC_GetSysClockFreq+0x100>)
 80048be:	6913      	ldr	r3, [r2, #16]
 80048c0:	f003 0338 	and.w	r3, r3, #56	@ 0x38
 80048c4:	2b10      	cmp	r3, #16
 80048c6:	d04f      	beq.n	8004968 <HAL_RCC_GetSysClockFreq+0xac>
 80048c8:	2b18      	cmp	r3, #24
 80048ca:	d00a      	beq.n	80048e2 <HAL_RCC_GetSysClockFreq+0x26>
 80048cc:	2b00      	cmp	r3, #0
 80048ce:	d14d      	bne.n	800496c <HAL_RCC_GetSysClockFreq+0xb0>
      if (__HAL_RCC_GET_FLAG(RCC_FLAG_HSIDIV) != 0U)
 80048d0:	6813      	ldr	r3, [r2, #0]
 80048d2:	0699      	lsls	r1, r3, #26
 80048d4:	d54c      	bpl.n	8004970 <HAL_RCC_GetSysClockFreq+0xb4>
        sysclockfreq = (uint32_t)(HSI_VALUE >> (__HAL_RCC_GET_HSI_DIVIDER() >> 3));
 80048d6:	6813      	ldr	r3, [r2, #0]
 80048d8:	4839      	ldr	r0, [pc, #228]	@ (80049c0 <HAL_RCC_GetSysClockFreq+0x104>)
 80048da:	f3c3 03c1 	ubfx	r3, r3, #3, #2
 80048de:	40d8      	lsrs	r0, r3
 80048e0:	4770      	bx	lr
      pllsource = (RCC->PLLCKSELR & RCC_PLLCKSELR_PLLSRC);
 80048e2:	6a91      	ldr	r1, [r2, #40]	@ 0x28
{
 80048e4:	b430      	push	{r4, r5}
      pllm = ((RCC->PLLCKSELR & RCC_PLLCKSELR_DIVM1) >> 4)  ;
 80048e6:	6a94      	ldr	r4, [r2, #40]	@ 0x28
      pllfracen = ((RCC-> PLLCFGR & RCC_PLLCFGR_PLL1FRACEN) >> RCC_PLLCFGR_PLL1FRACEN_Pos);
 80048e8:	6ad5      	ldr	r5, [r2, #44]	@ 0x2c
      if (pllm != 0U)
 80048ea:	f414 7f7c 	tst.w	r4, #1008	@ 0x3f0
      fracn1 = (float_t)(uint32_t)(pllfracen * ((RCC->PLL1FRACR & RCC_PLL1FRACR_FRACN1) >> 3));
 80048ee:	6b53      	ldr	r3, [r2, #52]	@ 0x34
      pllm = ((RCC->PLLCKSELR & RCC_PLLCKSELR_DIVM1) >> 4)  ;
 80048f0:	f3c4 1005 	ubfx	r0, r4, #4, #6
      if (pllm != 0U)
 80048f4:	d036      	beq.n	8004964 <HAL_RCC_GetSysClockFreq+0xa8>
      fracn1 = (float_t)(uint32_t)(pllfracen * ((RCC->PLL1FRACR & RCC_PLL1FRACR_FRACN1) >> 3));
 80048f6:	f3c3 03cc 	ubfx	r3, r3, #3, #13
      pllfracen = ((RCC-> PLLCFGR & RCC_PLLCFGR_PLL1FRACEN) >> RCC_PLLCFGR_PLL1FRACEN_Pos);
 80048fa:	f005 0501 	and.w	r5, r5, #1
      pllsource = (RCC->PLLCKSELR & RCC_PLLCKSELR_PLLSRC);
 80048fe:	f001 0103 	and.w	r1, r1, #3
              pllvco = ((float_t)hsivalue / (float_t)pllm) * ((float_t)(uint32_t)(RCC->PLL1DIVR & RCC_PLL1DIVR_N1) + (fracn1 / (float_t)0x2000) + (float_t)1);
 8004902:	ee07 0a90 	vmov	s15, r0
      fracn1 = (float_t)(uint32_t)(pllfracen * ((RCC->PLL1FRACR & RCC_PLL1FRACR_FRACN1) >> 3));
 8004906:	fb05 f303 	mul.w	r3, r5, r3
        switch (pllsource)
 800490a:	2901      	cmp	r1, #1
              pllvco = ((float_t)hsivalue / (float_t)pllm) * ((float_t)(uint32_t)(RCC->PLL1DIVR & RCC_PLL1DIVR_N1) + (fracn1 / (float_t)0x2000) + (float_t)1);
 800490c:	eef8 7ae7 	vcvt.f32.s32	s15, s15
 8004910:	ee06 3a90 	vmov	s13, r3
 8004914:	eefa 6ae9 	vcvt.f32.s32	s13, s13, #13
        switch (pllsource)
 8004918:	d002      	beq.n	8004920 <HAL_RCC_GetSysClockFreq+0x64>
 800491a:	2902      	cmp	r1, #2
 800491c:	d048      	beq.n	80049b0 <HAL_RCC_GetSysClockFreq+0xf4>
 800491e:	b349      	cbz	r1, 8004974 <HAL_RCC_GetSysClockFreq+0xb8>
            pllvco = ((float_t)CSI_VALUE / (float_t)pllm) * ((float_t)(uint32_t)(RCC->PLL1DIVR & RCC_PLL1DIVR_N1) + (fracn1 / (float_t)0x2000) + (float_t)1);
 8004920:	ed9f 7a28 	vldr	s14, [pc, #160]	@ 80049c4 <HAL_RCC_GetSysClockFreq+0x108>
 8004924:	ee87 6a27 	vdiv.f32	s12, s14, s15
 8004928:	6b13      	ldr	r3, [r2, #48]	@ 0x30
 800492a:	f3c3 0308 	ubfx	r3, r3, #0, #9
 800492e:	ee07 3a10 	vmov	s14, r3
 8004932:	eef7 5a00 	vmov.f32	s11, #112	@ 0x3f800000  1.0
 8004936:	eeb8 7ac7 	vcvt.f32.s32	s14, s14
 800493a:	ee37 7a25 	vadd.f32	s14, s14, s11
 800493e:	ee37 7a26 	vadd.f32	s14, s14, s13
 8004942:	ee27 7a06 	vmul.f32	s14, s14, s12
        pllp = (((RCC->PLL1DIVR & RCC_PLL1DIVR_P1) >> 9) + 1U) ;
 8004946:	4b1d      	ldr	r3, [pc, #116]	@ (80049bc <HAL_RCC_GetSysClockFreq+0x100>)
 8004948:	6b1b      	ldr	r3, [r3, #48]	@ 0x30
 800494a:	f3c3 2346 	ubfx	r3, r3, #9, #7
 800494e:	3301      	adds	r3, #1
        sysclockfreq = (uint32_t)(float_t)(pllvco / (float_t)pllp);
 8004950:	ee07 3a90 	vmov	s15, r3
 8004954:	eef8 6ae7 	vcvt.f32.s32	s13, s15
 8004958:	eec7 7a26 	vdiv.f32	s15, s14, s13
 800495c:	eefc 7ae7 	vcvt.u32.f32	s15, s15
 8004960:	ee17 0a90 	vmov	r0, s15
}
 8004964:	bc30      	pop	{r4, r5}
 8004966:	4770      	bx	lr
  switch (RCC->CFGR & RCC_CFGR_SWS)
 8004968:	4817      	ldr	r0, [pc, #92]	@ (80049c8 <HAL_RCC_GetSysClockFreq+0x10c>)
 800496a:	4770      	bx	lr
      sysclockfreq = CSI_VALUE;
 800496c:	4817      	ldr	r0, [pc, #92]	@ (80049cc <HAL_RCC_GetSysClockFreq+0x110>)
 800496e:	4770      	bx	lr
        sysclockfreq = (uint32_t) HSI_VALUE;
 8004970:	4813      	ldr	r0, [pc, #76]	@ (80049c0 <HAL_RCC_GetSysClockFreq+0x104>)
}
 8004972:	4770      	bx	lr
            if (__HAL_RCC_GET_FLAG(RCC_FLAG_HSIDIV) != 0U)
 8004974:	6813      	ldr	r3, [r2, #0]
 8004976:	069b      	lsls	r3, r3, #26
 8004978:	d51d      	bpl.n	80049b6 <HAL_RCC_GetSysClockFreq+0xfa>
              hsivalue = (HSI_VALUE >> (__HAL_RCC_GET_HSI_DIVIDER() >> 3));
 800497a:	6810      	ldr	r0, [r2, #0]
              pllvco = ((float_t)hsivalue / (float_t)pllm) * ((float_t)(uint32_t)(RCC->PLL1DIVR & RCC_PLL1DIVR_N1) + (fracn1 / (float_t)0x2000) + (float_t)1);
 800497c:	eeb7 7a00 	vmov.f32	s14, #112	@ 0x3f800000  1.0
 8004980:	6b13      	ldr	r3, [r2, #48]	@ 0x30
              hsivalue = (HSI_VALUE >> (__HAL_RCC_GET_HSI_DIVIDER() >> 3));
 8004982:	490f      	ldr	r1, [pc, #60]	@ (80049c0 <HAL_RCC_GetSysClockFreq+0x104>)
 8004984:	f3c0 02c1 	ubfx	r2, r0, #3, #2
              pllvco = ((float_t)hsivalue / (float_t)pllm) * ((float_t)(uint32_t)(RCC->PLL1DIVR & RCC_PLL1DIVR_N1) + (fracn1 / (float_t)0x2000) + (float_t)1);
 8004988:	f3c3 0308 	ubfx	r3, r3, #0, #9
              hsivalue = (HSI_VALUE >> (__HAL_RCC_GET_HSI_DIVIDER() >> 3));
 800498c:	40d1      	lsrs	r1, r2
              pllvco = ((float_t)hsivalue / (float_t)pllm) * ((float_t)(uint32_t)(RCC->PLL1DIVR & RCC_PLL1DIVR_N1) + (fracn1 / (float_t)0x2000) + (float_t)1);
 800498e:	ee06 3a10 	vmov	s12, r3
 8004992:	ee05 1a90 	vmov	s11, r1
 8004996:	eeb8 6ac6 	vcvt.f32.s32	s12, s12
 800499a:	eef8 5ae5 	vcvt.f32.s32	s11, s11
 800499e:	ee36 6a07 	vadd.f32	s12, s12, s14
 80049a2:	ee85 7aa7 	vdiv.f32	s14, s11, s15
 80049a6:	ee76 7a26 	vadd.f32	s15, s12, s13
 80049aa:	ee27 7a27 	vmul.f32	s14, s14, s15
 80049ae:	e7ca      	b.n	8004946 <HAL_RCC_GetSysClockFreq+0x8a>
            pllvco = ((float_t)HSE_VALUE / (float_t)pllm) * ((float_t)(uint32_t)(RCC->PLL1DIVR & RCC_PLL1DIVR_N1) + (fracn1 / (float_t)0x2000) + (float_t)1);
 80049b0:	ed9f 7a07 	vldr	s14, [pc, #28]	@ 80049d0 <HAL_RCC_GetSysClockFreq+0x114>
 80049b4:	e7b6      	b.n	8004924 <HAL_RCC_GetSysClockFreq+0x68>
              pllvco = ((float_t)HSI_VALUE / (float_t)pllm) * ((float_t)(uint32_t)(RCC->PLL1DIVR & RCC_PLL1DIVR_N1) + (fracn1 / (float_t)0x2000) + (float_t)1);
 80049b6:	ed9f 7a07 	vldr	s14, [pc, #28]	@ 80049d4 <HAL_RCC_GetSysClockFreq+0x118>
 80049ba:	e7b3      	b.n	8004924 <HAL_RCC_GetSysClockFreq+0x68>
 80049bc:	58024400 	.word	0x58024400
 80049c0:	03d09000 	.word	0x03d09000
 80049c4:	4a742400 	.word	0x4a742400
 80049c8:	017d7840 	.word	0x017d7840
 80049cc:	003d0900 	.word	0x003d0900
 80049d0:	4bbebc20 	.word	0x4bbebc20
 80049d4:	4c742400 	.word	0x4c742400

080049d8 <HAL_RCC_ClockConfig>:
  if (RCC_ClkInitStruct == NULL)
 80049d8:	2800      	cmp	r0, #0
 80049da:	f000 810e 	beq.w	8004bfa <HAL_RCC_ClockConfig+0x222>
  if (FLatency > __HAL_FLASH_GET_LATENCY())
 80049de:	4a8d      	ldr	r2, [pc, #564]	@ (8004c14 <HAL_RCC_ClockConfig+0x23c>)
 80049e0:	6813      	ldr	r3, [r2, #0]
 80049e2:	f003 030f 	and.w	r3, r3, #15
 80049e6:	428b      	cmp	r3, r1
{
 80049e8:	e92d 41f0 	stmdb	sp!, {r4, r5, r6, r7, r8, lr}
 80049ec:	4604      	mov	r4, r0
 80049ee:	460d      	mov	r5, r1
  if (FLatency > __HAL_FLASH_GET_LATENCY())
 80049f0:	d20c      	bcs.n	8004a0c <HAL_RCC_ClockConfig+0x34>
    __HAL_FLASH_SET_LATENCY(FLatency);
 80049f2:	6813      	ldr	r3, [r2, #0]
 80049f4:	f023 030f 	bic.w	r3, r3, #15
 80049f8:	430b      	orrs	r3, r1
 80049fa:	6013      	str	r3, [r2, #0]
    if (__HAL_FLASH_GET_LATENCY() != FLatency)
 80049fc:	6813      	ldr	r3, [r2, #0]
 80049fe:	f003 030f 	and.w	r3, r3, #15
 8004a02:	428b      	cmp	r3, r1
 8004a04:	d002      	beq.n	8004a0c <HAL_RCC_ClockConfig+0x34>
    return HAL_ERROR;
 8004a06:	2001      	movs	r0, #1
}
 8004a08:	e8bd 81f0 	ldmia.w	sp!, {r4, r5, r6, r7, r8, pc}
  if (((RCC_ClkInitStruct->ClockType) & RCC_CLOCKTYPE_D1PCLK1) == RCC_CLOCKTYPE_D1PCLK1)
 8004a0c:	6823      	ldr	r3, [r4, #0]
 8004a0e:	0758      	lsls	r0, r3, #29
 8004a10:	d50b      	bpl.n	8004a2a <HAL_RCC_ClockConfig+0x52>
    if ((RCC_ClkInitStruct->APB3CLKDivider) > (RCC->D1CFGR & RCC_D1CFGR_D1PPRE))
 8004a12:	4981      	ldr	r1, [pc, #516]	@ (8004c18 <HAL_RCC_ClockConfig+0x240>)
 8004a14:	6920      	ldr	r0, [r4, #16]
 8004a16:	698a      	ldr	r2, [r1, #24]
 8004a18:	f002 0270 	and.w	r2, r2, #112	@ 0x70
 8004a1c:	4290      	cmp	r0, r2
 8004a1e:	d904      	bls.n	8004a2a <HAL_RCC_ClockConfig+0x52>
      MODIFY_REG(RCC->D1CFGR, RCC_D1CFGR_D1PPRE, RCC_ClkInitStruct->APB3CLKDivider);
 8004a20:	698a      	ldr	r2, [r1, #24]
 8004a22:	f022 0270 	bic.w	r2, r2, #112	@ 0x70
 8004a26:	4302      	orrs	r2, r0
 8004a28:	618a      	str	r2, [r1, #24]
  if (((RCC_ClkInitStruct->ClockType) & RCC_CLOCKTYPE_PCLK1) == RCC_CLOCKTYPE_PCLK1)
 8004a2a:	0719      	lsls	r1, r3, #28
 8004a2c:	d50b      	bpl.n	8004a46 <HAL_RCC_ClockConfig+0x6e>
    if ((RCC_ClkInitStruct->APB1CLKDivider) > (RCC->D2CFGR & RCC_D2CFGR_D2PPRE1))
 8004a2e:	497a      	ldr	r1, [pc, #488]	@ (8004c18 <HAL_RCC_ClockConfig+0x240>)
 8004a30:	6960      	ldr	r0, [r4, #20]
 8004a32:	69ca      	ldr	r2, [r1, #28]
 8004a34:	f002 0270 	and.w	r2, r2, #112	@ 0x70
 8004a38:	4290      	cmp	r0, r2
 8004a3a:	d904      	bls.n	8004a46 <HAL_RCC_ClockConfig+0x6e>
      MODIFY_REG(RCC->D2CFGR, RCC_D2CFGR_D2PPRE1, (RCC_ClkInitStruct->APB1CLKDivider));
 8004a3c:	69ca      	ldr	r2, [r1, #28]
 8004a3e:	f022 0270 	bic.w	r2, r2, #112	@ 0x70
 8004a42:	4302      	orrs	r2, r0
 8004a44:	61ca      	str	r2, [r1, #28]
  if (((RCC_ClkInitStruct->ClockType) & RCC_CLOCKTYPE_PCLK2) == RCC_CLOCKTYPE_PCLK2)
 8004a46:	06da      	lsls	r2, r3, #27
 8004a48:	d50b      	bpl.n	8004a62 <HAL_RCC_ClockConfig+0x8a>
    if ((RCC_ClkInitStruct->APB2CLKDivider) > (RCC->D2CFGR & RCC_D2CFGR_D2PPRE2))
 8004a4a:	4973      	ldr	r1, [pc, #460]	@ (8004c18 <HAL_RCC_ClockConfig+0x240>)
 8004a4c:	69a0      	ldr	r0, [r4, #24]
 8004a4e:	69ca      	ldr	r2, [r1, #28]
 8004a50:	f402 62e0 	and.w	r2, r2, #1792	@ 0x700
 8004a54:	4290      	cmp	r0, r2
 8004a56:	d904      	bls.n	8004a62 <HAL_RCC_ClockConfig+0x8a>
      MODIFY_REG(RCC->D2CFGR, RCC_D2CFGR_D2PPRE2, (RCC_ClkInitStruct->APB2CLKDivider));
 8004a58:	69ca      	ldr	r2, [r1, #28]
 8004a5a:	f422 62e0 	bic.w	r2, r2, #1792	@ 0x700
 8004a5e:	4302      	orrs	r2, r0
 8004a60:	61ca      	str	r2, [r1, #28]
  if (((RCC_ClkInitStruct->ClockType) & RCC_CLOCKTYPE_D3PCLK1) == RCC_CLOCKTYPE_D3PCLK1)
 8004a62:	069f      	lsls	r7, r3, #26
 8004a64:	d50b      	bpl.n	8004a7e <HAL_RCC_ClockConfig+0xa6>
    if ((RCC_ClkInitStruct->APB4CLKDivider) > (RCC->D3CFGR & RCC_D3CFGR_D3PPRE))
 8004a66:	496c      	ldr	r1, [pc, #432]	@ (8004c18 <HAL_RCC_ClockConfig+0x240>)
 8004a68:	69e0      	ldr	r0, [r4, #28]
 8004a6a:	6a0a      	ldr	r2, [r1, #32]
 8004a6c:	f002 0270 	and.w	r2, r2, #112	@ 0x70
 8004a70:	4290      	cmp	r0, r2
 8004a72:	d904      	bls.n	8004a7e <HAL_RCC_ClockConfig+0xa6>
      MODIFY_REG(RCC->D3CFGR, RCC_D3CFGR_D3PPRE, (RCC_ClkInitStruct->APB4CLKDivider));
 8004a74:	6a0a      	ldr	r2, [r1, #32]
 8004a76:	f022 0270 	bic.w	r2, r2, #112	@ 0x70
 8004a7a:	4302      	orrs	r2, r0
 8004a7c:	620a      	str	r2, [r1, #32]
  if (((RCC_ClkInitStruct->ClockType) & RCC_CLOCKTYPE_HCLK) == RCC_CLOCKTYPE_HCLK)
 8004a7e:	079e      	lsls	r6, r3, #30
  if (((RCC_ClkInitStruct->ClockType) & RCC_CLOCKTYPE_SYSCLK) == RCC_CLOCKTYPE_SYSCLK)
 8004a80:	f003 0201 	and.w	r2, r3, #1
  if (((RCC_ClkInitStruct->ClockType) & RCC_CLOCKTYPE_HCLK) == RCC_CLOCKTYPE_HCLK)
 8004a84:	f140 80ab 	bpl.w	8004bde <HAL_RCC_ClockConfig+0x206>
    if ((RCC_ClkInitStruct->AHBCLKDivider) > (RCC->D1CFGR & RCC_D1CFGR_HPRE))
 8004a88:	4e63      	ldr	r6, [pc, #396]	@ (8004c18 <HAL_RCC_ClockConfig+0x240>)
 8004a8a:	68e0      	ldr	r0, [r4, #12]
 8004a8c:	69b1      	ldr	r1, [r6, #24]
 8004a8e:	f001 010f 	and.w	r1, r1, #15
 8004a92:	4288      	cmp	r0, r1
 8004a94:	d904      	bls.n	8004aa0 <HAL_RCC_ClockConfig+0xc8>
      MODIFY_REG(RCC->D1CFGR, RCC_D1CFGR_HPRE, RCC_ClkInitStruct->AHBCLKDivider);
 8004a96:	69b1      	ldr	r1, [r6, #24]
 8004a98:	f021 010f 	bic.w	r1, r1, #15
 8004a9c:	4301      	orrs	r1, r0
 8004a9e:	61b1      	str	r1, [r6, #24]
  if (((RCC_ClkInitStruct->ClockType) & RCC_CLOCKTYPE_SYSCLK) == RCC_CLOCKTYPE_SYSCLK)
 8004aa0:	2a00      	cmp	r2, #0
 8004aa2:	d030      	beq.n	8004b06 <HAL_RCC_ClockConfig+0x12e>
    MODIFY_REG(RCC->D1CFGR, RCC_D1CFGR_D1CPRE, RCC_ClkInitStruct->SYSCLKDivider);
 8004aa4:	4a5c      	ldr	r2, [pc, #368]	@ (8004c18 <HAL_RCC_ClockConfig+0x240>)
 8004aa6:	68a1      	ldr	r1, [r4, #8]
 8004aa8:	6993      	ldr	r3, [r2, #24]
 8004aaa:	f423 6370 	bic.w	r3, r3, #3840	@ 0xf00
 8004aae:	430b      	orrs	r3, r1
 8004ab0:	6193      	str	r3, [r2, #24]
    if (RCC_ClkInitStruct->SYSCLKSource == RCC_SYSCLKSOURCE_HSE)
 8004ab2:	6861      	ldr	r1, [r4, #4]
      if (__HAL_RCC_GET_FLAG(RCC_FLAG_HSERDY) == 0U)
 8004ab4:	6813      	ldr	r3, [r2, #0]
    if (RCC_ClkInitStruct->SYSCLKSource == RCC_SYSCLKSOURCE_HSE)
 8004ab6:	2902      	cmp	r1, #2
 8004ab8:	f000 80a1 	beq.w	8004bfe <HAL_RCC_ClockConfig+0x226>
    else if (RCC_ClkInitStruct->SYSCLKSource == RCC_SYSCLKSOURCE_PLLCLK)
 8004abc:	2903      	cmp	r1, #3
 8004abe:	f000 8098 	beq.w	8004bf2 <HAL_RCC_ClockConfig+0x21a>
    else if (RCC_ClkInitStruct->SYSCLKSource == RCC_SYSCLKSOURCE_CSI)
 8004ac2:	2901      	cmp	r1, #1
 8004ac4:	f000 80a1 	beq.w	8004c0a <HAL_RCC_ClockConfig+0x232>
      if (__HAL_RCC_GET_FLAG(RCC_FLAG_HSIRDY) == 0U)
 8004ac8:	075f      	lsls	r7, r3, #29
 8004aca:	d59c      	bpl.n	8004a06 <HAL_RCC_ClockConfig+0x2e>
    MODIFY_REG(RCC->CFGR, RCC_CFGR_SW, RCC_ClkInitStruct->SYSCLKSource);
 8004acc:	4e52      	ldr	r6, [pc, #328]	@ (8004c18 <HAL_RCC_ClockConfig+0x240>)
      if ((HAL_GetTick() - tickstart) > CLOCKSWITCH_TIMEOUT_VALUE)
 8004ace:	f241 3888 	movw	r8, #5000	@ 0x1388
    MODIFY_REG(RCC->CFGR, RCC_CFGR_SW, RCC_ClkInitStruct->SYSCLKSource);
 8004ad2:	6933      	ldr	r3, [r6, #16]
 8004ad4:	f023 0307 	bic.w	r3, r3, #7
 8004ad8:	430b      	orrs	r3, r1
 8004ada:	6133      	str	r3, [r6, #16]
    tickstart = HAL_GetTick();
 8004adc:	f7fc fef4 	bl	80018c8 <HAL_GetTick>
 8004ae0:	4607      	mov	r7, r0
    while (__HAL_RCC_GET_SYSCLK_SOURCE() != (RCC_ClkInitStruct->SYSCLKSource << RCC_CFGR_SWS_Pos))
 8004ae2:	e005      	b.n	8004af0 <HAL_RCC_ClockConfig+0x118>
      if ((HAL_GetTick() - tickstart) > CLOCKSWITCH_TIMEOUT_VALUE)
 8004ae4:	f7fc fef0 	bl	80018c8 <HAL_GetTick>
 8004ae8:	1bc0      	subs	r0, r0, r7
 8004aea:	4540      	cmp	r0, r8
 8004aec:	f200 808b 	bhi.w	8004c06 <HAL_RCC_ClockConfig+0x22e>
    while (__HAL_RCC_GET_SYSCLK_SOURCE() != (RCC_ClkInitStruct->SYSCLKSource << RCC_CFGR_SWS_Pos))
 8004af0:	6933      	ldr	r3, [r6, #16]
 8004af2:	6862      	ldr	r2, [r4, #4]
 8004af4:	f003 0338 	and.w	r3, r3, #56	@ 0x38
 8004af8:	ebb3 0fc2 	cmp.w	r3, r2, lsl #3
 8004afc:	d1f2      	bne.n	8004ae4 <HAL_RCC_ClockConfig+0x10c>
  if (((RCC_ClkInitStruct->ClockType) & RCC_CLOCKTYPE_HCLK) == RCC_CLOCKTYPE_HCLK)
 8004afe:	6823      	ldr	r3, [r4, #0]
 8004b00:	079e      	lsls	r6, r3, #30
 8004b02:	d506      	bpl.n	8004b12 <HAL_RCC_ClockConfig+0x13a>
    if ((RCC_ClkInitStruct->AHBCLKDivider) < (RCC->D1CFGR & RCC_D1CFGR_HPRE))
 8004b04:	68e0      	ldr	r0, [r4, #12]
 8004b06:	4944      	ldr	r1, [pc, #272]	@ (8004c18 <HAL_RCC_ClockConfig+0x240>)
 8004b08:	698a      	ldr	r2, [r1, #24]
 8004b0a:	f002 020f 	and.w	r2, r2, #15
 8004b0e:	4290      	cmp	r0, r2
 8004b10:	d369      	bcc.n	8004be6 <HAL_RCC_ClockConfig+0x20e>
  if (FLatency < __HAL_FLASH_GET_LATENCY())
 8004b12:	4940      	ldr	r1, [pc, #256]	@ (8004c14 <HAL_RCC_ClockConfig+0x23c>)
 8004b14:	680a      	ldr	r2, [r1, #0]
 8004b16:	f002 020f 	and.w	r2, r2, #15
 8004b1a:	42aa      	cmp	r2, r5
 8004b1c:	d90a      	bls.n	8004b34 <HAL_RCC_ClockConfig+0x15c>
    __HAL_FLASH_SET_LATENCY(FLatency);
 8004b1e:	680a      	ldr	r2, [r1, #0]
 8004b20:	f022 020f 	bic.w	r2, r2, #15
 8004b24:	432a      	orrs	r2, r5
 8004b26:	600a      	str	r2, [r1, #0]
    if (__HAL_FLASH_GET_LATENCY() != FLatency)
 8004b28:	680a      	ldr	r2, [r1, #0]
 8004b2a:	f002 020f 	and.w	r2, r2, #15
 8004b2e:	42aa      	cmp	r2, r5
 8004b30:	f47f af69 	bne.w	8004a06 <HAL_RCC_ClockConfig+0x2e>
  if (((RCC_ClkInitStruct->ClockType) & RCC_CLOCKTYPE_D1PCLK1) == RCC_CLOCKTYPE_D1PCLK1)
 8004b34:	0758      	lsls	r0, r3, #29
 8004b36:	d50b      	bpl.n	8004b50 <HAL_RCC_ClockConfig+0x178>
    if ((RCC_ClkInitStruct->APB3CLKDivider) < (RCC->D1CFGR & RCC_D1CFGR_D1PPRE))
 8004b38:	4937      	ldr	r1, [pc, #220]	@ (8004c18 <HAL_RCC_ClockConfig+0x240>)
 8004b3a:	6920      	ldr	r0, [r4, #16]
 8004b3c:	698a      	ldr	r2, [r1, #24]
 8004b3e:	f002 0270 	and.w	r2, r2, #112	@ 0x70
 8004b42:	4290      	cmp	r0, r2
 8004b44:	d204      	bcs.n	8004b50 <HAL_RCC_ClockConfig+0x178>
      MODIFY_REG(RCC->D1CFGR, RCC_D1CFGR_D1PPRE, RCC_ClkInitStruct->APB3CLKDivider);
 8004b46:	698a      	ldr	r2, [r1, #24]
 8004b48:	f022 0270 	bic.w	r2, r2, #112	@ 0x70
 8004b4c:	4302      	orrs	r2, r0
 8004b4e:	618a      	str	r2, [r1, #24]
  if (((RCC_ClkInitStruct->ClockType) & RCC_CLOCKTYPE_PCLK1) == RCC_CLOCKTYPE_PCLK1)
 8004b50:	0719      	lsls	r1, r3, #28
 8004b52:	d50b      	bpl.n	8004b6c <HAL_RCC_ClockConfig+0x194>
    if ((RCC_ClkInitStruct->APB1CLKDivider) < (RCC->D2CFGR & RCC_D2CFGR_D2PPRE1))
 8004b54:	4930      	ldr	r1, [pc, #192]	@ (8004c18 <HAL_RCC_ClockConfig+0x240>)
 8004b56:	6960      	ldr	r0, [r4, #20]
 8004b58:	69ca      	ldr	r2, [r1, #28]
 8004b5a:	f002 0270 	and.w	r2, r2, #112	@ 0x70
 8004b5e:	4290      	cmp	r0, r2
 8004b60:	d204      	bcs.n	8004b6c <HAL_RCC_ClockConfig+0x194>
      MODIFY_REG(RCC->D2CFGR, RCC_D2CFGR_D2PPRE1, (RCC_ClkInitStruct->APB1CLKDivider));
 8004b62:	69ca      	ldr	r2, [r1, #28]
 8004b64:	f022 0270 	bic.w	r2, r2, #112	@ 0x70
 8004b68:	4302      	orrs	r2, r0
 8004b6a:	61ca      	str	r2, [r1, #28]
  if (((RCC_ClkInitStruct->ClockType) & RCC_CLOCKTYPE_PCLK2) == RCC_CLOCKTYPE_PCLK2)
 8004b6c:	06da      	lsls	r2, r3, #27
 8004b6e:	d50b      	bpl.n	8004b88 <HAL_RCC_ClockConfig+0x1b0>
    if ((RCC_ClkInitStruct->APB2CLKDivider) < (RCC->D2CFGR & RCC_D2CFGR_D2PPRE2))
 8004b70:	4929      	ldr	r1, [pc, #164]	@ (8004c18 <HAL_RCC_ClockConfig+0x240>)
 8004b72:	69a0      	ldr	r0, [r4, #24]
 8004b74:	69ca      	ldr	r2, [r1, #28]
 8004b76:	f402 62e0 	and.w	r2, r2, #1792	@ 0x700
 8004b7a:	4290      	cmp	r0, r2
 8004b7c:	d204      	bcs.n	8004b88 <HAL_RCC_ClockConfig+0x1b0>
      MODIFY_REG(RCC->D2CFGR, RCC_D2CFGR_D2PPRE2, (RCC_ClkInitStruct->APB2CLKDivider));
 8004b7e:	69ca      	ldr	r2, [r1, #28]
 8004b80:	f422 62e0 	bic.w	r2, r2, #1792	@ 0x700
 8004b84:	4302      	orrs	r2, r0
 8004b86:	61ca      	str	r2, [r1, #28]
  if (((RCC_ClkInitStruct->ClockType) & RCC_CLOCKTYPE_D3PCLK1) == RCC_CLOCKTYPE_D3PCLK1)
 8004b88:	069b      	lsls	r3, r3, #26
 8004b8a:	d50b      	bpl.n	8004ba4 <HAL_RCC_ClockConfig+0x1cc>
    if ((RCC_ClkInitStruct->APB4CLKDivider) < (RCC->D3CFGR & RCC_D3CFGR_D3PPRE))
 8004b8c:	4a22      	ldr	r2, [pc, #136]	@ (8004c18 <HAL_RCC_ClockConfig+0x240>)
 8004b8e:	69e1      	ldr	r1, [r4, #28]
 8004b90:	6a13      	ldr	r3, [r2, #32]
 8004b92:	f003 0370 	and.w	r3, r3, #112	@ 0x70
 8004b96:	4299      	cmp	r1, r3
 8004b98:	d204      	bcs.n	8004ba4 <HAL_RCC_ClockConfig+0x1cc>
      MODIFY_REG(RCC->D3CFGR, RCC_D3CFGR_D3PPRE, (RCC_ClkInitStruct->APB4CLKDivider));
 8004b9a:	6a13      	ldr	r3, [r2, #32]
 8004b9c:	f023 0370 	bic.w	r3, r3, #112	@ 0x70
 8004ba0:	430b      	orrs	r3, r1
 8004ba2:	6213      	str	r3, [r2, #32]
  common_system_clock = HAL_RCC_GetSysClockFreq() >> ((D1CorePrescTable[(RCC->D1CFGR & RCC_D1CFGR_D1CPRE) >> RCC_D1CFGR_D1CPRE_Pos]) & 0x1FU);
 8004ba4:	f7ff fe8a 	bl	80048bc <HAL_RCC_GetSysClockFreq>
 8004ba8:	4a1b      	ldr	r2, [pc, #108]	@ (8004c18 <HAL_RCC_ClockConfig+0x240>)
 8004baa:	4603      	mov	r3, r0
 8004bac:	481b      	ldr	r0, [pc, #108]	@ (8004c1c <HAL_RCC_ClockConfig+0x244>)
 8004bae:	6991      	ldr	r1, [r2, #24]
  SystemD2Clock = (common_system_clock >> ((D1CorePrescTable[(RCC->D1CFGR & RCC_D1CFGR_HPRE) >> RCC_D1CFGR_HPRE_Pos]) & 0x1FU));
 8004bb0:	6992      	ldr	r2, [r2, #24]
  common_system_clock = HAL_RCC_GetSysClockFreq() >> ((D1CorePrescTable[(RCC->D1CFGR & RCC_D1CFGR_D1CPRE) >> RCC_D1CFGR_D1CPRE_Pos]) & 0x1FU);
 8004bb2:	f3c1 2103 	ubfx	r1, r1, #8, #4
  SystemCoreClock = common_system_clock;
 8004bb6:	4d1a      	ldr	r5, [pc, #104]	@ (8004c20 <HAL_RCC_ClockConfig+0x248>)
  SystemD2Clock = (common_system_clock >> ((D1CorePrescTable[(RCC->D1CFGR & RCC_D1CFGR_HPRE) >> RCC_D1CFGR_HPRE_Pos]) & 0x1FU));
 8004bb8:	f002 020f 	and.w	r2, r2, #15
 8004bbc:	4c19      	ldr	r4, [pc, #100]	@ (8004c24 <HAL_RCC_ClockConfig+0x24c>)
  common_system_clock = HAL_RCC_GetSysClockFreq() >> ((D1CorePrescTable[(RCC->D1CFGR & RCC_D1CFGR_D1CPRE) >> RCC_D1CFGR_D1CPRE_Pos]) & 0x1FU);
 8004bbe:	5c41      	ldrb	r1, [r0, r1]
  SystemD2Clock = (common_system_clock >> ((D1CorePrescTable[(RCC->D1CFGR & RCC_D1CFGR_HPRE) >> RCC_D1CFGR_HPRE_Pos]) & 0x1FU));
 8004bc0:	5c82      	ldrb	r2, [r0, r2]
  common_system_clock = HAL_RCC_GetSysClockFreq() >> ((D1CorePrescTable[(RCC->D1CFGR & RCC_D1CFGR_D1CPRE) >> RCC_D1CFGR_D1CPRE_Pos]) & 0x1FU);
 8004bc2:	f001 011f 	and.w	r1, r1, #31
  halstatus = HAL_InitTick(uwTickPrio);
 8004bc6:	4818      	ldr	r0, [pc, #96]	@ (8004c28 <HAL_RCC_ClockConfig+0x250>)
  SystemD2Clock = (common_system_clock >> ((D1CorePrescTable[(RCC->D1CFGR & RCC_D1CFGR_HPRE) >> RCC_D1CFGR_HPRE_Pos]) & 0x1FU));
 8004bc8:	f002 021f 	and.w	r2, r2, #31
  common_system_clock = HAL_RCC_GetSysClockFreq() >> ((D1CorePrescTable[(RCC->D1CFGR & RCC_D1CFGR_D1CPRE) >> RCC_D1CFGR_D1CPRE_Pos]) & 0x1FU);
 8004bcc:	40cb      	lsrs	r3, r1
  halstatus = HAL_InitTick(uwTickPrio);
 8004bce:	6800      	ldr	r0, [r0, #0]
  SystemCoreClock = common_system_clock;
 8004bd0:	602b      	str	r3, [r5, #0]
  SystemD2Clock = (common_system_clock >> ((D1CorePrescTable[(RCC->D1CFGR & RCC_D1CFGR_HPRE) >> RCC_D1CFGR_HPRE_Pos]) & 0x1FU));
 8004bd2:	40d3      	lsrs	r3, r2
 8004bd4:	6023      	str	r3, [r4, #0]
}
 8004bd6:	e8bd 41f0 	ldmia.w	sp!, {r4, r5, r6, r7, r8, lr}
  halstatus = HAL_InitTick(uwTickPrio);
 8004bda:	f7fc be13 	b.w	8001804 <HAL_InitTick>
  if (((RCC_ClkInitStruct->ClockType) & RCC_CLOCKTYPE_SYSCLK) == RCC_CLOCKTYPE_SYSCLK)
 8004bde:	2a00      	cmp	r2, #0
 8004be0:	f47f af60 	bne.w	8004aa4 <HAL_RCC_ClockConfig+0xcc>
 8004be4:	e795      	b.n	8004b12 <HAL_RCC_ClockConfig+0x13a>
      MODIFY_REG(RCC->D1CFGR, RCC_D1CFGR_HPRE, RCC_ClkInitStruct->AHBCLKDivider);
 8004be6:	698a      	ldr	r2, [r1, #24]
 8004be8:	f022 020f 	bic.w	r2, r2, #15
 8004bec:	4302      	orrs	r2, r0
 8004bee:	618a      	str	r2, [r1, #24]
 8004bf0:	e78f      	b.n	8004b12 <HAL_RCC_ClockConfig+0x13a>
      if (__HAL_RCC_GET_FLAG(RCC_FLAG_PLLRDY) == 0U)
 8004bf2:	019a      	lsls	r2, r3, #6
 8004bf4:	f53f af6a 	bmi.w	8004acc <HAL_RCC_ClockConfig+0xf4>
 8004bf8:	e705      	b.n	8004a06 <HAL_RCC_ClockConfig+0x2e>
    return HAL_ERROR;
 8004bfa:	2001      	movs	r0, #1
}
 8004bfc:	4770      	bx	lr
      if (__HAL_RCC_GET_FLAG(RCC_FLAG_HSERDY) == 0U)
 8004bfe:	0398      	lsls	r0, r3, #14
 8004c00:	f53f af64 	bmi.w	8004acc <HAL_RCC_ClockConfig+0xf4>
 8004c04:	e6ff      	b.n	8004a06 <HAL_RCC_ClockConfig+0x2e>
        return HAL_TIMEOUT;
 8004c06:	2003      	movs	r0, #3
 8004c08:	e6fe      	b.n	8004a08 <HAL_RCC_ClockConfig+0x30>
      if (__HAL_RCC_GET_FLAG(RCC_FLAG_CSIRDY) == 0U)
 8004c0a:	05db      	lsls	r3, r3, #23
 8004c0c:	f53f af5e 	bmi.w	8004acc <HAL_RCC_ClockConfig+0xf4>
 8004c10:	e6f9      	b.n	8004a06 <HAL_RCC_ClockConfig+0x2e>
 8004c12:	bf00      	nop
 8004c14:	52002000 	.word	0x52002000
 8004c18:	58024400 	.word	0x58024400
 8004c1c:	0806b724 	.word	0x0806b724
 8004c20:	2400004c 	.word	0x2400004c
 8004c24:	24000048 	.word	0x24000048
 8004c28:	24000054 	.word	0x24000054

08004c2c <HAL_RCC_GetHCLKFreq>:
  switch (RCC->CFGR & RCC_CFGR_SWS)
 8004c2c:	4a18      	ldr	r2, [pc, #96]	@ (8004c90 <HAL_RCC_GetHCLKFreq+0x64>)
  * @note   The SystemD2Clock CMSIS variable is used to store System domain2 Clock Frequency
  *         and updated within this function
  * @retval HCLK frequency
  */
uint32_t HAL_RCC_GetHCLKFreq(void)
{
 8004c2e:	b538      	push	{r3, r4, r5, lr}
  switch (RCC->CFGR & RCC_CFGR_SWS)
 8004c30:	6913      	ldr	r3, [r2, #16]
 8004c32:	f003 0338 	and.w	r3, r3, #56	@ 0x38
 8004c36:	2b10      	cmp	r3, #16
 8004c38:	d024      	beq.n	8004c84 <HAL_RCC_GetHCLKFreq+0x58>
 8004c3a:	2b18      	cmp	r3, #24
 8004c3c:	d009      	beq.n	8004c52 <HAL_RCC_GetHCLKFreq+0x26>
 8004c3e:	bb1b      	cbnz	r3, 8004c88 <HAL_RCC_GetHCLKFreq+0x5c>
      if (__HAL_RCC_GET_FLAG(RCC_FLAG_HSIDIV) != 0U)
 8004c40:	6813      	ldr	r3, [r2, #0]
 8004c42:	069b      	lsls	r3, r3, #26
 8004c44:	d522      	bpl.n	8004c8c <HAL_RCC_GetHCLKFreq+0x60>
        sysclockfreq = (uint32_t)(HSI_VALUE >> (__HAL_RCC_GET_HSI_DIVIDER() >> 3));
 8004c46:	6812      	ldr	r2, [r2, #0]
 8004c48:	4b12      	ldr	r3, [pc, #72]	@ (8004c94 <HAL_RCC_GetHCLKFreq+0x68>)
 8004c4a:	f3c2 02c1 	ubfx	r2, r2, #3, #2
 8004c4e:	40d3      	lsrs	r3, r2
 8004c50:	e002      	b.n	8004c58 <HAL_RCC_GetHCLKFreq+0x2c>
 8004c52:	f7ff fad3 	bl	80041fc <HAL_RCC_GetSysClockFreq.part.0>
 8004c56:	4603      	mov	r3, r0
  uint32_t common_system_clock;

#if defined(RCC_D1CFGR_D1CPRE)
  common_system_clock = HAL_RCC_GetSysClockFreq() >> (D1CorePrescTable[(RCC->D1CFGR & RCC_D1CFGR_D1CPRE) >> RCC_D1CFGR_D1CPRE_Pos] & 0x1FU);
 8004c58:	490d      	ldr	r1, [pc, #52]	@ (8004c90 <HAL_RCC_GetHCLKFreq+0x64>)
 8004c5a:	480f      	ldr	r0, [pc, #60]	@ (8004c98 <HAL_RCC_GetHCLKFreq+0x6c>)
 8004c5c:	698a      	ldr	r2, [r1, #24]
#else
  common_system_clock = HAL_RCC_GetSysClockFreq() >> (D1CorePrescTable[(RCC->CDCFGR1 & RCC_CDCFGR1_CDCPRE) >> RCC_CDCFGR1_CDCPRE_Pos] & 0x1FU);
#endif

#if defined(RCC_D1CFGR_HPRE)
  SystemD2Clock = (common_system_clock >> ((D1CorePrescTable[(RCC->D1CFGR & RCC_D1CFGR_HPRE) >> RCC_D1CFGR_HPRE_Pos]) & 0x1FU));
 8004c5e:	6989      	ldr	r1, [r1, #24]
  common_system_clock = HAL_RCC_GetSysClockFreq() >> (D1CorePrescTable[(RCC->D1CFGR & RCC_D1CFGR_D1CPRE) >> RCC_D1CFGR_D1CPRE_Pos] & 0x1FU);
 8004c60:	f3c2 2203 	ubfx	r2, r2, #8, #4
  SystemD2Clock = (common_system_clock >> ((D1CorePrescTable[(RCC->D1CFGR & RCC_D1CFGR_HPRE) >> RCC_D1CFGR_HPRE_Pos]) & 0x1FU));
 8004c64:	4c0d      	ldr	r4, [pc, #52]	@ (8004c9c <HAL_RCC_GetHCLKFreq+0x70>)
 8004c66:	f001 010f 	and.w	r1, r1, #15
#endif

#if defined(DUAL_CORE) && defined(CORE_CM4)
  SystemCoreClock = SystemD2Clock;
#else
  SystemCoreClock = common_system_clock;
 8004c6a:	4d0d      	ldr	r5, [pc, #52]	@ (8004ca0 <HAL_RCC_GetHCLKFreq+0x74>)
  common_system_clock = HAL_RCC_GetSysClockFreq() >> (D1CorePrescTable[(RCC->D1CFGR & RCC_D1CFGR_D1CPRE) >> RCC_D1CFGR_D1CPRE_Pos] & 0x1FU);
 8004c6c:	5c82      	ldrb	r2, [r0, r2]
  SystemD2Clock = (common_system_clock >> ((D1CorePrescTable[(RCC->D1CFGR & RCC_D1CFGR_HPRE) >> RCC_D1CFGR_HPRE_Pos]) & 0x1FU));
 8004c6e:	5c40      	ldrb	r0, [r0, r1]
  common_system_clock = HAL_RCC_GetSysClockFreq() >> (D1CorePrescTable[(RCC->D1CFGR & RCC_D1CFGR_D1CPRE) >> RCC_D1CFGR_D1CPRE_Pos] & 0x1FU);
 8004c70:	f002 021f 	and.w	r2, r2, #31
  SystemD2Clock = (common_system_clock >> ((D1CorePrescTable[(RCC->D1CFGR & RCC_D1CFGR_HPRE) >> RCC_D1CFGR_HPRE_Pos]) & 0x1FU));
 8004c74:	f000 001f 	and.w	r0, r0, #31
  common_system_clock = HAL_RCC_GetSysClockFreq() >> (D1CorePrescTable[(RCC->D1CFGR & RCC_D1CFGR_D1CPRE) >> RCC_D1CFGR_D1CPRE_Pos] & 0x1FU);
 8004c78:	40d3      	lsrs	r3, r2
  SystemD2Clock = (common_system_clock >> ((D1CorePrescTable[(RCC->D1CFGR & RCC_D1CFGR_HPRE) >> RCC_D1CFGR_HPRE_Pos]) & 0x1FU));
 8004c7a:	fa23 f000 	lsr.w	r0, r3, r0
  SystemCoreClock = common_system_clock;
 8004c7e:	602b      	str	r3, [r5, #0]
  SystemD2Clock = (common_system_clock >> ((D1CorePrescTable[(RCC->D1CFGR & RCC_D1CFGR_HPRE) >> RCC_D1CFGR_HPRE_Pos]) & 0x1FU));
 8004c80:	6020      	str	r0, [r4, #0]
#endif /* DUAL_CORE && CORE_CM4 */

  return SystemD2Clock;
}
 8004c82:	bd38      	pop	{r3, r4, r5, pc}
  switch (RCC->CFGR & RCC_CFGR_SWS)
 8004c84:	4b07      	ldr	r3, [pc, #28]	@ (8004ca4 <HAL_RCC_GetHCLKFreq+0x78>)
 8004c86:	e7e7      	b.n	8004c58 <HAL_RCC_GetHCLKFreq+0x2c>
      sysclockfreq = CSI_VALUE;
 8004c88:	4b07      	ldr	r3, [pc, #28]	@ (8004ca8 <HAL_RCC_GetHCLKFreq+0x7c>)
 8004c8a:	e7e5      	b.n	8004c58 <HAL_RCC_GetHCLKFreq+0x2c>
        sysclockfreq = (uint32_t) HSI_VALUE;
 8004c8c:	4b01      	ldr	r3, [pc, #4]	@ (8004c94 <HAL_RCC_GetHCLKFreq+0x68>)
 8004c8e:	e7e3      	b.n	8004c58 <HAL_RCC_GetHCLKFreq+0x2c>
 8004c90:	58024400 	.word	0x58024400
 8004c94:	03d09000 	.word	0x03d09000
 8004c98:	0806b724 	.word	0x0806b724
 8004c9c:	24000048 	.word	0x24000048
 8004ca0:	2400004c 	.word	0x2400004c
 8004ca4:	017d7840 	.word	0x017d7840
 8004ca8:	003d0900 	.word	0x003d0900

08004cac <HAL_RCC_GetPCLK1Freq>:
  switch (RCC->CFGR & RCC_CFGR_SWS)
 8004cac:	4a1c      	ldr	r2, [pc, #112]	@ (8004d20 <HAL_RCC_GetPCLK1Freq+0x74>)
  * @note   Each time PCLK1 changes, this function must be called to update the
  *         right PCLK1 value. Otherwise, any configuration based on this function will be incorrect.
  * @retval PCLK1 frequency
  */
uint32_t HAL_RCC_GetPCLK1Freq(void)
{
 8004cae:	b538      	push	{r3, r4, r5, lr}
  switch (RCC->CFGR & RCC_CFGR_SWS)
 8004cb0:	6913      	ldr	r3, [r2, #16]
 8004cb2:	f003 0338 	and.w	r3, r3, #56	@ 0x38
 8004cb6:	2b10      	cmp	r3, #16
 8004cb8:	d02b      	beq.n	8004d12 <HAL_RCC_GetPCLK1Freq+0x66>
 8004cba:	2b18      	cmp	r3, #24
 8004cbc:	d009      	beq.n	8004cd2 <HAL_RCC_GetPCLK1Freq+0x26>
 8004cbe:	bb53      	cbnz	r3, 8004d16 <HAL_RCC_GetPCLK1Freq+0x6a>
      if (__HAL_RCC_GET_FLAG(RCC_FLAG_HSIDIV) != 0U)
 8004cc0:	6813      	ldr	r3, [r2, #0]
 8004cc2:	069b      	lsls	r3, r3, #26
 8004cc4:	d529      	bpl.n	8004d1a <HAL_RCC_GetPCLK1Freq+0x6e>
        sysclockfreq = (uint32_t)(HSI_VALUE >> (__HAL_RCC_GET_HSI_DIVIDER() >> 3));
 8004cc6:	6812      	ldr	r2, [r2, #0]
 8004cc8:	4b16      	ldr	r3, [pc, #88]	@ (8004d24 <HAL_RCC_GetPCLK1Freq+0x78>)
 8004cca:	f3c2 02c1 	ubfx	r2, r2, #3, #2
 8004cce:	40d3      	lsrs	r3, r2
 8004cd0:	e002      	b.n	8004cd8 <HAL_RCC_GetPCLK1Freq+0x2c>
 8004cd2:	f7ff fa93 	bl	80041fc <HAL_RCC_GetSysClockFreq.part.0>
 8004cd6:	4603      	mov	r3, r0
  common_system_clock = HAL_RCC_GetSysClockFreq() >> (D1CorePrescTable[(RCC->D1CFGR & RCC_D1CFGR_D1CPRE) >> RCC_D1CFGR_D1CPRE_Pos] & 0x1FU);
 8004cd8:	4a11      	ldr	r2, [pc, #68]	@ (8004d20 <HAL_RCC_GetPCLK1Freq+0x74>)
 8004cda:	4913      	ldr	r1, [pc, #76]	@ (8004d28 <HAL_RCC_GetPCLK1Freq+0x7c>)
 8004cdc:	6990      	ldr	r0, [r2, #24]
  SystemCoreClock = common_system_clock;
 8004cde:	4d13      	ldr	r5, [pc, #76]	@ (8004d2c <HAL_RCC_GetPCLK1Freq+0x80>)
  common_system_clock = HAL_RCC_GetSysClockFreq() >> (D1CorePrescTable[(RCC->D1CFGR & RCC_D1CFGR_D1CPRE) >> RCC_D1CFGR_D1CPRE_Pos] & 0x1FU);
 8004ce0:	f3c0 2003 	ubfx	r0, r0, #8, #4
  SystemD2Clock = (common_system_clock >> ((D1CorePrescTable[(RCC->D1CFGR & RCC_D1CFGR_HPRE) >> RCC_D1CFGR_HPRE_Pos]) & 0x1FU));
 8004ce4:	4c12      	ldr	r4, [pc, #72]	@ (8004d30 <HAL_RCC_GetPCLK1Freq+0x84>)
  common_system_clock = HAL_RCC_GetSysClockFreq() >> (D1CorePrescTable[(RCC->D1CFGR & RCC_D1CFGR_D1CPRE) >> RCC_D1CFGR_D1CPRE_Pos] & 0x1FU);
 8004ce6:	5c08      	ldrb	r0, [r1, r0]
 8004ce8:	f000 001f 	and.w	r0, r0, #31
 8004cec:	40c3      	lsrs	r3, r0
  SystemD2Clock = (common_system_clock >> ((D1CorePrescTable[(RCC->D1CFGR & RCC_D1CFGR_HPRE) >> RCC_D1CFGR_HPRE_Pos]) & 0x1FU));
 8004cee:	6990      	ldr	r0, [r2, #24]
 8004cf0:	f000 000f 	and.w	r0, r0, #15
  SystemCoreClock = common_system_clock;
 8004cf4:	602b      	str	r3, [r5, #0]
  SystemD2Clock = (common_system_clock >> ((D1CorePrescTable[(RCC->D1CFGR & RCC_D1CFGR_HPRE) >> RCC_D1CFGR_HPRE_Pos]) & 0x1FU));
 8004cf6:	5c08      	ldrb	r0, [r1, r0]
 8004cf8:	f000 001f 	and.w	r0, r0, #31
 8004cfc:	40c3      	lsrs	r3, r0
 8004cfe:	6023      	str	r3, [r4, #0]
#if defined (RCC_D2CFGR_D2PPRE1)
  /* Get HCLK source and Compute PCLK1 frequency ---------------------------*/
  return (HAL_RCC_GetHCLKFreq() >> ((D1CorePrescTable[(RCC->D2CFGR & RCC_D2CFGR_D2PPRE1) >> RCC_D2CFGR_D2PPRE1_Pos]) & 0x1FU));
 8004d00:	69d2      	ldr	r2, [r2, #28]
 8004d02:	f3c2 1202 	ubfx	r2, r2, #4, #3
 8004d06:	5c88      	ldrb	r0, [r1, r2]
 8004d08:	f000 001f 	and.w	r0, r0, #31
#else
  /* Get HCLK source and Compute PCLK1 frequency ---------------------------*/
  return (HAL_RCC_GetHCLKFreq() >> ((D1CorePrescTable[(RCC->CDCFGR2 & RCC_CDCFGR2_CDPPRE1) >> RCC_CDCFGR2_CDPPRE1_Pos]) & 0x1FU));
#endif
}
 8004d0c:	fa23 f000 	lsr.w	r0, r3, r0
 8004d10:	bd38      	pop	{r3, r4, r5, pc}
  switch (RCC->CFGR & RCC_CFGR_SWS)
 8004d12:	4b08      	ldr	r3, [pc, #32]	@ (8004d34 <HAL_RCC_GetPCLK1Freq+0x88>)
 8004d14:	e7e0      	b.n	8004cd8 <HAL_RCC_GetPCLK1Freq+0x2c>
      sysclockfreq = CSI_VALUE;
 8004d16:	4b08      	ldr	r3, [pc, #32]	@ (8004d38 <HAL_RCC_GetPCLK1Freq+0x8c>)
 8004d18:	e7de      	b.n	8004cd8 <HAL_RCC_GetPCLK1Freq+0x2c>
        sysclockfreq = (uint32_t) HSI_VALUE;
 8004d1a:	4b02      	ldr	r3, [pc, #8]	@ (8004d24 <HAL_RCC_GetPCLK1Freq+0x78>)
 8004d1c:	e7dc      	b.n	8004cd8 <HAL_RCC_GetPCLK1Freq+0x2c>
 8004d1e:	bf00      	nop
 8004d20:	58024400 	.word	0x58024400
 8004d24:	03d09000 	.word	0x03d09000
 8004d28:	0806b724 	.word	0x0806b724
 8004d2c:	2400004c 	.word	0x2400004c
 8004d30:	24000048 	.word	0x24000048
 8004d34:	017d7840 	.word	0x017d7840
 8004d38:	003d0900 	.word	0x003d0900

08004d3c <RCCEx_PLL2_Config.part.0>:
  * @param  Divider  divider parameter to be updated
  * @note   PLL2 is temporary disabled to apply new parameters
  *
  * @retval HAL status
  */
static HAL_StatusTypeDef RCCEx_PLL2_Config(const RCC_PLL2InitTypeDef *pll2, uint32_t Divider)
 8004d3c:	b5f8      	push	{r3, r4, r5, r6, r7, lr}


  else
  {
    /* Disable  PLL2. */
    __HAL_RCC_PLL2_DISABLE();
 8004d3e:	4c36      	ldr	r4, [pc, #216]	@ (8004e18 <RCCEx_PLL2_Config.part.0+0xdc>)
static HAL_StatusTypeDef RCCEx_PLL2_Config(const RCC_PLL2InitTypeDef *pll2, uint32_t Divider)
 8004d40:	4606      	mov	r6, r0
 8004d42:	460f      	mov	r7, r1
    __HAL_RCC_PLL2_DISABLE();
 8004d44:	6823      	ldr	r3, [r4, #0]
 8004d46:	f023 6380 	bic.w	r3, r3, #67108864	@ 0x4000000
 8004d4a:	6023      	str	r3, [r4, #0]

    /* Get Start Tick*/
    tickstart = HAL_GetTick();
 8004d4c:	f7fc fdbc 	bl	80018c8 <HAL_GetTick>
 8004d50:	4605      	mov	r5, r0

    /* Wait till PLL is disabled */
    while (__HAL_RCC_GET_FLAG(RCC_FLAG_PLL2RDY) != 0U)
 8004d52:	e004      	b.n	8004d5e <RCCEx_PLL2_Config.part.0+0x22>
    {
      if ((HAL_GetTick() - tickstart) > PLL2_TIMEOUT_VALUE)
 8004d54:	f7fc fdb8 	bl	80018c8 <HAL_GetTick>
 8004d58:	1b40      	subs	r0, r0, r5
 8004d5a:	2802      	cmp	r0, #2
 8004d5c:	d856      	bhi.n	8004e0c <RCCEx_PLL2_Config.part.0+0xd0>
    while (__HAL_RCC_GET_FLAG(RCC_FLAG_PLL2RDY) != 0U)
 8004d5e:	6823      	ldr	r3, [r4, #0]
 8004d60:	011a      	lsls	r2, r3, #4
 8004d62:	d4f7      	bmi.n	8004d54 <RCCEx_PLL2_Config.part.0+0x18>
        return HAL_TIMEOUT;
      }
    }

    /* Configure PLL2 multiplication and division factors. */
    __HAL_RCC_PLL2_CONFIG(pll2->PLL2M,
 8004d64:	6aa3      	ldr	r3, [r4, #40]	@ 0x28
 8004d66:	6832      	ldr	r2, [r6, #0]
 8004d68:	f423 337c 	bic.w	r3, r3, #258048	@ 0x3f000
 8004d6c:	ea43 3302 	orr.w	r3, r3, r2, lsl #12
 8004d70:	62a3      	str	r3, [r4, #40]	@ 0x28
 8004d72:	e9d6 3202 	ldrd	r3, r2, [r6, #8]
 8004d76:	3b01      	subs	r3, #1
 8004d78:	3a01      	subs	r2, #1
 8004d7a:	025b      	lsls	r3, r3, #9
 8004d7c:	0412      	lsls	r2, r2, #16
 8004d7e:	b29b      	uxth	r3, r3
 8004d80:	f402 02fe 	and.w	r2, r2, #8323072	@ 0x7f0000
 8004d84:	4313      	orrs	r3, r2
 8004d86:	6872      	ldr	r2, [r6, #4]
 8004d88:	3a01      	subs	r2, #1
 8004d8a:	f3c2 0208 	ubfx	r2, r2, #0, #9
 8004d8e:	4313      	orrs	r3, r2
 8004d90:	6932      	ldr	r2, [r6, #16]
 8004d92:	3a01      	subs	r2, #1
 8004d94:	0612      	lsls	r2, r2, #24
 8004d96:	f002 42fe 	and.w	r2, r2, #2130706432	@ 0x7f000000
 8004d9a:	4313      	orrs	r3, r2
 8004d9c:	63a3      	str	r3, [r4, #56]	@ 0x38
                          pll2->PLL2P,
                          pll2->PLL2Q,
                          pll2->PLL2R);

    /* Select PLL2 input reference frequency range: VCI */
    __HAL_RCC_PLL2_VCIRANGE(pll2->PLL2RGE) ;
 8004d9e:	6ae3      	ldr	r3, [r4, #44]	@ 0x2c
 8004da0:	6972      	ldr	r2, [r6, #20]
 8004da2:	f023 03c0 	bic.w	r3, r3, #192	@ 0xc0
 8004da6:	4313      	orrs	r3, r2
 8004da8:	62e3      	str	r3, [r4, #44]	@ 0x2c

    /* Select PLL2 output frequency range : VCO */
    __HAL_RCC_PLL2_VCORANGE(pll2->PLL2VCOSEL) ;
 8004daa:	6ae3      	ldr	r3, [r4, #44]	@ 0x2c
 8004dac:	69b2      	ldr	r2, [r6, #24]
 8004dae:	f023 0320 	bic.w	r3, r3, #32
 8004db2:	4313      	orrs	r3, r2
 8004db4:	62e3      	str	r3, [r4, #44]	@ 0x2c

    /* Disable PLL2FRACN . */
    __HAL_RCC_PLL2FRACN_DISABLE();
 8004db6:	6ae3      	ldr	r3, [r4, #44]	@ 0x2c
 8004db8:	f023 0310 	bic.w	r3, r3, #16
 8004dbc:	62e3      	str	r3, [r4, #44]	@ 0x2c

    /* Configures PLL2 clock Fractional Part Of The Multiplication Factor */
    __HAL_RCC_PLL2FRACN_CONFIG(pll2->PLL2FRACN);
 8004dbe:	6be3      	ldr	r3, [r4, #60]	@ 0x3c
 8004dc0:	69f2      	ldr	r2, [r6, #28]
 8004dc2:	f36f 03cf 	bfc	r3, #3, #13
 8004dc6:	ea43 03c2 	orr.w	r3, r3, r2, lsl #3
 8004dca:	63e3      	str	r3, [r4, #60]	@ 0x3c

    /* Enable PLL2FRACN . */
    __HAL_RCC_PLL2FRACN_ENABLE();
 8004dcc:	6ae3      	ldr	r3, [r4, #44]	@ 0x2c
 8004dce:	f043 0310 	orr.w	r3, r3, #16
 8004dd2:	62e3      	str	r3, [r4, #44]	@ 0x2c

    /* Enable the PLL2 clock output */
    if (Divider == DIVIDER_P_UPDATE)
    {
      __HAL_RCC_PLL2CLKOUT_ENABLE(RCC_PLL2_DIVP);
 8004dd4:	6ae3      	ldr	r3, [r4, #44]	@ 0x2c
    if (Divider == DIVIDER_P_UPDATE)
 8004dd6:	b1df      	cbz	r7, 8004e10 <RCCEx_PLL2_Config.part.0+0xd4>
    }
    else if (Divider == DIVIDER_Q_UPDATE)
 8004dd8:	2f01      	cmp	r7, #1
    {
      __HAL_RCC_PLL2CLKOUT_ENABLE(RCC_PLL2_DIVQ);
 8004dda:	bf0c      	ite	eq
 8004ddc:	f443 1380 	orreq.w	r3, r3, #1048576	@ 0x100000
    }
    else
    {
      __HAL_RCC_PLL2CLKOUT_ENABLE(RCC_PLL2_DIVR);
 8004de0:	f443 1300 	orrne.w	r3, r3, #2097152	@ 0x200000
 8004de4:	62e3      	str	r3, [r4, #44]	@ 0x2c
    }

    /* Enable  PLL2. */
    __HAL_RCC_PLL2_ENABLE();
 8004de6:	4c0c      	ldr	r4, [pc, #48]	@ (8004e18 <RCCEx_PLL2_Config.part.0+0xdc>)
 8004de8:	6823      	ldr	r3, [r4, #0]
 8004dea:	f043 6380 	orr.w	r3, r3, #67108864	@ 0x4000000
 8004dee:	6023      	str	r3, [r4, #0]

    /* Get Start Tick*/
    tickstart = HAL_GetTick();
 8004df0:	f7fc fd6a 	bl	80018c8 <HAL_GetTick>
 8004df4:	4605      	mov	r5, r0

    /* Wait till PLL2 is ready */
    while (__HAL_RCC_GET_FLAG(RCC_FLAG_PLL2RDY) == 0U)
 8004df6:	e004      	b.n	8004e02 <RCCEx_PLL2_Config.part.0+0xc6>
    {
      if ((HAL_GetTick() - tickstart) > PLL2_TIMEOUT_VALUE)
 8004df8:	f7fc fd66 	bl	80018c8 <HAL_GetTick>
 8004dfc:	1b40      	subs	r0, r0, r5
 8004dfe:	2802      	cmp	r0, #2
 8004e00:	d804      	bhi.n	8004e0c <RCCEx_PLL2_Config.part.0+0xd0>
    while (__HAL_RCC_GET_FLAG(RCC_FLAG_PLL2RDY) == 0U)
 8004e02:	6823      	ldr	r3, [r4, #0]
 8004e04:	011b      	lsls	r3, r3, #4
 8004e06:	d5f7      	bpl.n	8004df8 <RCCEx_PLL2_Config.part.0+0xbc>
    }

  }


  return status;
 8004e08:	2000      	movs	r0, #0
}
 8004e0a:	bdf8      	pop	{r3, r4, r5, r6, r7, pc}
        return HAL_TIMEOUT;
 8004e0c:	2003      	movs	r0, #3
}
 8004e0e:	bdf8      	pop	{r3, r4, r5, r6, r7, pc}
      __HAL_RCC_PLL2CLKOUT_ENABLE(RCC_PLL2_DIVP);
 8004e10:	f443 2300 	orr.w	r3, r3, #524288	@ 0x80000
 8004e14:	62e3      	str	r3, [r4, #44]	@ 0x2c
 8004e16:	e7e6      	b.n	8004de6 <RCCEx_PLL2_Config.part.0+0xaa>
 8004e18:	58024400 	.word	0x58024400

08004e1c <RCCEx_PLL3_Config.part.0>:
  * @param  Divider  divider parameter to be updated
  * @note   PLL3 is temporary disabled to apply new parameters
  *
  * @retval HAL status
  */
static HAL_StatusTypeDef RCCEx_PLL3_Config(const RCC_PLL3InitTypeDef *pll3, uint32_t Divider)
 8004e1c:	b5f8      	push	{r3, r4, r5, r6, r7, lr}


  else
  {
    /* Disable  PLL3. */
    __HAL_RCC_PLL3_DISABLE();
 8004e1e:	4c36      	ldr	r4, [pc, #216]	@ (8004ef8 <RCCEx_PLL3_Config.part.0+0xdc>)
static HAL_StatusTypeDef RCCEx_PLL3_Config(const RCC_PLL3InitTypeDef *pll3, uint32_t Divider)
 8004e20:	4606      	mov	r6, r0
 8004e22:	460f      	mov	r7, r1
    __HAL_RCC_PLL3_DISABLE();
 8004e24:	6823      	ldr	r3, [r4, #0]
 8004e26:	f023 5380 	bic.w	r3, r3, #268435456	@ 0x10000000
 8004e2a:	6023      	str	r3, [r4, #0]

    /* Get Start Tick*/
    tickstart = HAL_GetTick();
 8004e2c:	f7fc fd4c 	bl	80018c8 <HAL_GetTick>
 8004e30:	4605      	mov	r5, r0
    /* Wait till PLL3 is ready */
    while (__HAL_RCC_GET_FLAG(RCC_FLAG_PLL3RDY) != 0U)
 8004e32:	e004      	b.n	8004e3e <RCCEx_PLL3_Config.part.0+0x22>
    {
      if ((HAL_GetTick() - tickstart) > PLL3_TIMEOUT_VALUE)
 8004e34:	f7fc fd48 	bl	80018c8 <HAL_GetTick>
 8004e38:	1b40      	subs	r0, r0, r5
 8004e3a:	2802      	cmp	r0, #2
 8004e3c:	d856      	bhi.n	8004eec <RCCEx_PLL3_Config.part.0+0xd0>
    while (__HAL_RCC_GET_FLAG(RCC_FLAG_PLL3RDY) != 0U)
 8004e3e:	6823      	ldr	r3, [r4, #0]
 8004e40:	009a      	lsls	r2, r3, #2
 8004e42:	d4f7      	bmi.n	8004e34 <RCCEx_PLL3_Config.part.0+0x18>
        return HAL_TIMEOUT;
      }
    }

    /* Configure the PLL3  multiplication and division factors. */
    __HAL_RCC_PLL3_CONFIG(pll3->PLL3M,
 8004e44:	6aa3      	ldr	r3, [r4, #40]	@ 0x28
 8004e46:	6832      	ldr	r2, [r6, #0]
 8004e48:	f023 737c 	bic.w	r3, r3, #66060288	@ 0x3f00000
 8004e4c:	ea43 5302 	orr.w	r3, r3, r2, lsl #20
 8004e50:	62a3      	str	r3, [r4, #40]	@ 0x28
 8004e52:	e9d6 3202 	ldrd	r3, r2, [r6, #8]
 8004e56:	3b01      	subs	r3, #1
 8004e58:	3a01      	subs	r2, #1
 8004e5a:	025b      	lsls	r3, r3, #9
 8004e5c:	0412      	lsls	r2, r2, #16
 8004e5e:	b29b      	uxth	r3, r3
 8004e60:	f402 02fe 	and.w	r2, r2, #8323072	@ 0x7f0000
 8004e64:	4313      	orrs	r3, r2
 8004e66:	6872      	ldr	r2, [r6, #4]
 8004e68:	3a01      	subs	r2, #1
 8004e6a:	f3c2 0208 	ubfx	r2, r2, #0, #9
 8004e6e:	4313      	orrs	r3, r2
 8004e70:	6932      	ldr	r2, [r6, #16]
 8004e72:	3a01      	subs	r2, #1
 8004e74:	0612      	lsls	r2, r2, #24
 8004e76:	f002 42fe 	and.w	r2, r2, #2130706432	@ 0x7f000000
 8004e7a:	4313      	orrs	r3, r2
 8004e7c:	6423      	str	r3, [r4, #64]	@ 0x40
                          pll3->PLL3P,
                          pll3->PLL3Q,
                          pll3->PLL3R);

    /* Select PLL3 input reference frequency range: VCI */
    __HAL_RCC_PLL3_VCIRANGE(pll3->PLL3RGE) ;
 8004e7e:	6ae3      	ldr	r3, [r4, #44]	@ 0x2c
 8004e80:	6972      	ldr	r2, [r6, #20]
 8004e82:	f423 6340 	bic.w	r3, r3, #3072	@ 0xc00
 8004e86:	4313      	orrs	r3, r2
 8004e88:	62e3      	str	r3, [r4, #44]	@ 0x2c

    /* Select PLL3 output frequency range : VCO */
    __HAL_RCC_PLL3_VCORANGE(pll3->PLL3VCOSEL) ;
 8004e8a:	6ae3      	ldr	r3, [r4, #44]	@ 0x2c
 8004e8c:	69b2      	ldr	r2, [r6, #24]
 8004e8e:	f423 7300 	bic.w	r3, r3, #512	@ 0x200
 8004e92:	4313      	orrs	r3, r2
 8004e94:	62e3      	str	r3, [r4, #44]	@ 0x2c

    /* Disable PLL3FRACN . */
    __HAL_RCC_PLL3FRACN_DISABLE();
 8004e96:	6ae3      	ldr	r3, [r4, #44]	@ 0x2c
 8004e98:	f423 7380 	bic.w	r3, r3, #256	@ 0x100
 8004e9c:	62e3      	str	r3, [r4, #44]	@ 0x2c

    /* Configures PLL3 clock Fractional Part Of The Multiplication Factor */
    __HAL_RCC_PLL3FRACN_CONFIG(pll3->PLL3FRACN);
 8004e9e:	6c63      	ldr	r3, [r4, #68]	@ 0x44
 8004ea0:	69f2      	ldr	r2, [r6, #28]
 8004ea2:	f36f 03cf 	bfc	r3, #3, #13
 8004ea6:	ea43 03c2 	orr.w	r3, r3, r2, lsl #3
 8004eaa:	6463      	str	r3, [r4, #68]	@ 0x44

    /* Enable PLL3FRACN . */
    __HAL_RCC_PLL3FRACN_ENABLE();
 8004eac:	6ae3      	ldr	r3, [r4, #44]	@ 0x2c
 8004eae:	f443 7380 	orr.w	r3, r3, #256	@ 0x100
 8004eb2:	62e3      	str	r3, [r4, #44]	@ 0x2c

    /* Enable the PLL3 clock output */
    if (Divider == DIVIDER_P_UPDATE)
    {
      __HAL_RCC_PLL3CLKOUT_ENABLE(RCC_PLL3_DIVP);
 8004eb4:	6ae3      	ldr	r3, [r4, #44]	@ 0x2c
    if (Divider == DIVIDER_P_UPDATE)
 8004eb6:	b1df      	cbz	r7, 8004ef0 <RCCEx_PLL3_Config.part.0+0xd4>
    }
    else if (Divider == DIVIDER_Q_UPDATE)
 8004eb8:	2f01      	cmp	r7, #1
    {
      __HAL_RCC_PLL3CLKOUT_ENABLE(RCC_PLL3_DIVQ);
 8004eba:	bf0c      	ite	eq
 8004ebc:	f443 0300 	orreq.w	r3, r3, #8388608	@ 0x800000
    }
    else
    {
      __HAL_RCC_PLL3CLKOUT_ENABLE(RCC_PLL3_DIVR);
 8004ec0:	f043 7380 	orrne.w	r3, r3, #16777216	@ 0x1000000
 8004ec4:	62e3      	str	r3, [r4, #44]	@ 0x2c
    }

    /* Enable  PLL3. */
    __HAL_RCC_PLL3_ENABLE();
 8004ec6:	4c0c      	ldr	r4, [pc, #48]	@ (8004ef8 <RCCEx_PLL3_Config.part.0+0xdc>)
 8004ec8:	6823      	ldr	r3, [r4, #0]
 8004eca:	f043 5380 	orr.w	r3, r3, #268435456	@ 0x10000000
 8004ece:	6023      	str	r3, [r4, #0]

    /* Get Start Tick*/
    tickstart = HAL_GetTick();
 8004ed0:	f7fc fcfa 	bl	80018c8 <HAL_GetTick>
 8004ed4:	4605      	mov	r5, r0

    /* Wait till PLL3 is ready */
    while (__HAL_RCC_GET_FLAG(RCC_FLAG_PLL3RDY) == 0U)
 8004ed6:	e004      	b.n	8004ee2 <RCCEx_PLL3_Config.part.0+0xc6>
    {
      if ((HAL_GetTick() - tickstart) > PLL3_TIMEOUT_VALUE)
 8004ed8:	f7fc fcf6 	bl	80018c8 <HAL_GetTick>
 8004edc:	1b40      	subs	r0, r0, r5
 8004ede:	2802      	cmp	r0, #2
 8004ee0:	d804      	bhi.n	8004eec <RCCEx_PLL3_Config.part.0+0xd0>
    while (__HAL_RCC_GET_FLAG(RCC_FLAG_PLL3RDY) == 0U)
 8004ee2:	6823      	ldr	r3, [r4, #0]
 8004ee4:	009b      	lsls	r3, r3, #2
 8004ee6:	d5f7      	bpl.n	8004ed8 <RCCEx_PLL3_Config.part.0+0xbc>
    }

  }


  return status;
 8004ee8:	2000      	movs	r0, #0
}
 8004eea:	bdf8      	pop	{r3, r4, r5, r6, r7, pc}
        return HAL_TIMEOUT;
 8004eec:	2003      	movs	r0, #3
}
 8004eee:	bdf8      	pop	{r3, r4, r5, r6, r7, pc}
      __HAL_RCC_PLL3CLKOUT_ENABLE(RCC_PLL3_DIVP);
 8004ef0:	f443 0380 	orr.w	r3, r3, #4194304	@ 0x400000
 8004ef4:	62e3      	str	r3, [r4, #44]	@ 0x2c
 8004ef6:	e7e6      	b.n	8004ec6 <RCCEx_PLL3_Config.part.0+0xaa>
 8004ef8:	58024400 	.word	0x58024400

08004efc <HAL_RCCEx_PeriphCLKConfig>:
{
 8004efc:	e92d 43f8 	stmdb	sp!, {r3, r4, r5, r6, r7, r8, r9, lr}
  if (((PeriphClkInit->PeriphClockSelection) & RCC_PERIPHCLK_SPDIFRX) == RCC_PERIPHCLK_SPDIFRX)
 8004f00:	e9d0 3200 	ldrd	r3, r2, [r0]
{
 8004f04:	4604      	mov	r4, r0
  if (((PeriphClkInit->PeriphClockSelection) & RCC_PERIPHCLK_SPDIFRX) == RCC_PERIPHCLK_SPDIFRX)
 8004f06:	011d      	lsls	r5, r3, #4
 8004f08:	f003 6600 	and.w	r6, r3, #134217728	@ 0x8000000
 8004f0c:	d524      	bpl.n	8004f58 <HAL_RCCEx_PeriphCLKConfig+0x5c>
    switch (PeriphClkInit->SpdifrxClockSelection)
 8004f0e:	6e81      	ldr	r1, [r0, #104]	@ 0x68
 8004f10:	f5b1 1f00 	cmp.w	r1, #2097152	@ 0x200000
 8004f14:	f000 85df 	beq.w	8005ad6 <HAL_RCCEx_PeriphCLKConfig+0xbda>
 8004f18:	f200 86a8 	bhi.w	8005c6c <HAL_RCCEx_PeriphCLKConfig+0xd70>
 8004f1c:	2900      	cmp	r1, #0
 8004f1e:	f000 85f6 	beq.w	8005b0e <HAL_RCCEx_PeriphCLKConfig+0xc12>
 8004f22:	f5b1 1f80 	cmp.w	r1, #1048576	@ 0x100000
 8004f26:	f040 86a5 	bne.w	8005c74 <HAL_RCCEx_PeriphCLKConfig+0xd78>
  if (__HAL_RCC_GET_PLL_OSCSOURCE() == RCC_PLLSOURCE_NONE)
 8004f2a:	49a9      	ldr	r1, [pc, #676]	@ (80051d0 <HAL_RCCEx_PeriphCLKConfig+0x2d4>)
 8004f2c:	6a89      	ldr	r1, [r1, #40]	@ 0x28
 8004f2e:	f001 0103 	and.w	r1, r1, #3
 8004f32:	2903      	cmp	r1, #3
 8004f34:	f000 869e 	beq.w	8005c74 <HAL_RCCEx_PeriphCLKConfig+0xd78>
 8004f38:	2102      	movs	r1, #2
 8004f3a:	3008      	adds	r0, #8
 8004f3c:	f7ff fefe 	bl	8004d3c <RCCEx_PLL2_Config.part.0>
 8004f40:	4606      	mov	r6, r0
  if (((PeriphClkInit->PeriphClockSelection) & RCC_PERIPHCLK_SAI1) == RCC_PERIPHCLK_SAI1)
 8004f42:	e9d4 3200 	ldrd	r3, r2, [r4]
    if (ret == HAL_OK)
 8004f46:	b93e      	cbnz	r6, 8004f58 <HAL_RCCEx_PeriphCLKConfig+0x5c>
      __HAL_RCC_SPDIFRX_CONFIG(PeriphClkInit->SpdifrxClockSelection);
 8004f48:	6ea1      	ldr	r1, [r4, #104]	@ 0x68
 8004f4a:	4da1      	ldr	r5, [pc, #644]	@ (80051d0 <HAL_RCCEx_PeriphCLKConfig+0x2d4>)
  HAL_StatusTypeDef ret = HAL_OK;      /* Intermediate status */
 8004f4c:	2600      	movs	r6, #0
      __HAL_RCC_SPDIFRX_CONFIG(PeriphClkInit->SpdifrxClockSelection);
 8004f4e:	6d28      	ldr	r0, [r5, #80]	@ 0x50
 8004f50:	f420 1040 	bic.w	r0, r0, #3145728	@ 0x300000
 8004f54:	4301      	orrs	r1, r0
 8004f56:	6529      	str	r1, [r5, #80]	@ 0x50
  if (((PeriphClkInit->PeriphClockSelection) & RCC_PERIPHCLK_SAI1) == RCC_PERIPHCLK_SAI1)
 8004f58:	05d8      	lsls	r0, r3, #23
 8004f5a:	d50a      	bpl.n	8004f72 <HAL_RCCEx_PeriphCLKConfig+0x76>
    switch (PeriphClkInit->Sai1ClockSelection)
 8004f5c:	6da1      	ldr	r1, [r4, #88]	@ 0x58
 8004f5e:	2904      	cmp	r1, #4
 8004f60:	d806      	bhi.n	8004f70 <HAL_RCCEx_PeriphCLKConfig+0x74>
 8004f62:	e8df f011 	tbh	[pc, r1, lsl #1]
 8004f66:	03ff      	.short	0x03ff
 8004f68:	0582056d 	.word	0x0582056d
 8004f6c:	04040404 	.word	0x04040404
      status = ret;
 8004f70:	2601      	movs	r6, #1
        ret = HAL_ERROR;
 8004f72:	4635      	mov	r5, r6
  if (((PeriphClkInit->PeriphClockSelection) & RCC_PERIPHCLK_SAI23) == RCC_PERIPHCLK_SAI23)
 8004f74:	0599      	lsls	r1, r3, #22
 8004f76:	d524      	bpl.n	8004fc2 <HAL_RCCEx_PeriphCLKConfig+0xc6>
    switch (PeriphClkInit->Sai23ClockSelection)
 8004f78:	6de1      	ldr	r1, [r4, #92]	@ 0x5c
 8004f7a:	2980      	cmp	r1, #128	@ 0x80
 8004f7c:	f000 854b 	beq.w	8005a16 <HAL_RCCEx_PeriphCLKConfig+0xb1a>
 8004f80:	f200 8687 	bhi.w	8005c92 <HAL_RCCEx_PeriphCLKConfig+0xd96>
 8004f84:	2900      	cmp	r1, #0
 8004f86:	f000 85bb 	beq.w	8005b00 <HAL_RCCEx_PeriphCLKConfig+0xc04>
 8004f8a:	2940      	cmp	r1, #64	@ 0x40
 8004f8c:	f040 8688 	bne.w	8005ca0 <HAL_RCCEx_PeriphCLKConfig+0xda4>
  if (__HAL_RCC_GET_PLL_OSCSOURCE() == RCC_PLLSOURCE_NONE)
 8004f90:	498f      	ldr	r1, [pc, #572]	@ (80051d0 <HAL_RCCEx_PeriphCLKConfig+0x2d4>)
 8004f92:	6a89      	ldr	r1, [r1, #40]	@ 0x28
 8004f94:	f001 0103 	and.w	r1, r1, #3
 8004f98:	2903      	cmp	r1, #3
 8004f9a:	f000 8681 	beq.w	8005ca0 <HAL_RCCEx_PeriphCLKConfig+0xda4>
 8004f9e:	2100      	movs	r1, #0
 8004fa0:	f104 0008 	add.w	r0, r4, #8
 8004fa4:	f7ff feca 	bl	8004d3c <RCCEx_PLL2_Config.part.0>
 8004fa8:	4605      	mov	r5, r0
  if (((PeriphClkInit->PeriphClockSelection) & RCC_PERIPHCLK_SAI4A) == RCC_PERIPHCLK_SAI4A)
 8004faa:	e9d4 3200 	ldrd	r3, r2, [r4]
    if (ret == HAL_OK)
 8004fae:	2d00      	cmp	r5, #0
 8004fb0:	f040 8543 	bne.w	8005a3a <HAL_RCCEx_PeriphCLKConfig+0xb3e>
      __HAL_RCC_SAI23_CONFIG(PeriphClkInit->Sai23ClockSelection);
 8004fb4:	4f86      	ldr	r7, [pc, #536]	@ (80051d0 <HAL_RCCEx_PeriphCLKConfig+0x2d4>)
 8004fb6:	6de0      	ldr	r0, [r4, #92]	@ 0x5c
 8004fb8:	6d39      	ldr	r1, [r7, #80]	@ 0x50
 8004fba:	f421 71e0 	bic.w	r1, r1, #448	@ 0x1c0
 8004fbe:	4301      	orrs	r1, r0
 8004fc0:	6539      	str	r1, [r7, #80]	@ 0x50
  if (((PeriphClkInit->PeriphClockSelection) & RCC_PERIPHCLK_SAI4A) == RCC_PERIPHCLK_SAI4A)
 8004fc2:	055f      	lsls	r7, r3, #21
 8004fc4:	d528      	bpl.n	8005018 <HAL_RCCEx_PeriphCLKConfig+0x11c>
    switch (PeriphClkInit->Sai4AClockSelection)
 8004fc6:	f8d4 10a8 	ldr.w	r1, [r4, #168]	@ 0xa8
 8004fca:	f5b1 0f80 	cmp.w	r1, #4194304	@ 0x400000
 8004fce:	f000 855c 	beq.w	8005a8a <HAL_RCCEx_PeriphCLKConfig+0xb8e>
 8004fd2:	f200 8652 	bhi.w	8005c7a <HAL_RCCEx_PeriphCLKConfig+0xd7e>
 8004fd6:	2900      	cmp	r1, #0
 8004fd8:	f000 858b 	beq.w	8005af2 <HAL_RCCEx_PeriphCLKConfig+0xbf6>
 8004fdc:	f5b1 1f00 	cmp.w	r1, #2097152	@ 0x200000
 8004fe0:	f040 8653 	bne.w	8005c8a <HAL_RCCEx_PeriphCLKConfig+0xd8e>
  if (__HAL_RCC_GET_PLL_OSCSOURCE() == RCC_PLLSOURCE_NONE)
 8004fe4:	497a      	ldr	r1, [pc, #488]	@ (80051d0 <HAL_RCCEx_PeriphCLKConfig+0x2d4>)
 8004fe6:	6a89      	ldr	r1, [r1, #40]	@ 0x28
 8004fe8:	f001 0103 	and.w	r1, r1, #3
 8004fec:	2903      	cmp	r1, #3
 8004fee:	f000 864c 	beq.w	8005c8a <HAL_RCCEx_PeriphCLKConfig+0xd8e>
 8004ff2:	2100      	movs	r1, #0
 8004ff4:	f104 0008 	add.w	r0, r4, #8
 8004ff8:	f7ff fea0 	bl	8004d3c <RCCEx_PLL2_Config.part.0>
 8004ffc:	4605      	mov	r5, r0
  if (((PeriphClkInit->PeriphClockSelection) & RCC_PERIPHCLK_SAI4B) == RCC_PERIPHCLK_SAI4B)
 8004ffe:	e9d4 3200 	ldrd	r3, r2, [r4]
    if (ret == HAL_OK)
 8005002:	2d00      	cmp	r5, #0
 8005004:	f040 8553 	bne.w	8005aae <HAL_RCCEx_PeriphCLKConfig+0xbb2>
      __HAL_RCC_SAI4A_CONFIG(PeriphClkInit->Sai4AClockSelection);
 8005008:	4f71      	ldr	r7, [pc, #452]	@ (80051d0 <HAL_RCCEx_PeriphCLKConfig+0x2d4>)
 800500a:	f8d4 00a8 	ldr.w	r0, [r4, #168]	@ 0xa8
 800500e:	6db9      	ldr	r1, [r7, #88]	@ 0x58
 8005010:	f421 0160 	bic.w	r1, r1, #14680064	@ 0xe00000
 8005014:	4301      	orrs	r1, r0
 8005016:	65b9      	str	r1, [r7, #88]	@ 0x58
  if (((PeriphClkInit->PeriphClockSelection) & RCC_PERIPHCLK_SAI4B) == RCC_PERIPHCLK_SAI4B)
 8005018:	0518      	lsls	r0, r3, #20
 800501a:	d528      	bpl.n	800506e <HAL_RCCEx_PeriphCLKConfig+0x172>
    switch (PeriphClkInit->Sai4BClockSelection)
 800501c:	f8d4 10ac 	ldr.w	r1, [r4, #172]	@ 0xac
 8005020:	f1b1 7f00 	cmp.w	r1, #33554432	@ 0x2000000
 8005024:	f000 8546 	beq.w	8005ab4 <HAL_RCCEx_PeriphCLKConfig+0xbb8>
 8005028:	f200 8614 	bhi.w	8005c54 <HAL_RCCEx_PeriphCLKConfig+0xd58>
 800502c:	2900      	cmp	r1, #0
 800502e:	f000 84d6 	beq.w	80059de <HAL_RCCEx_PeriphCLKConfig+0xae2>
 8005032:	f1b1 7f80 	cmp.w	r1, #16777216	@ 0x1000000
 8005036:	f040 8615 	bne.w	8005c64 <HAL_RCCEx_PeriphCLKConfig+0xd68>
  if (__HAL_RCC_GET_PLL_OSCSOURCE() == RCC_PLLSOURCE_NONE)
 800503a:	4965      	ldr	r1, [pc, #404]	@ (80051d0 <HAL_RCCEx_PeriphCLKConfig+0x2d4>)
 800503c:	6a89      	ldr	r1, [r1, #40]	@ 0x28
 800503e:	f001 0103 	and.w	r1, r1, #3
 8005042:	2903      	cmp	r1, #3
 8005044:	f000 860e 	beq.w	8005c64 <HAL_RCCEx_PeriphCLKConfig+0xd68>
 8005048:	2100      	movs	r1, #0
 800504a:	f104 0008 	add.w	r0, r4, #8
 800504e:	f7ff fe75 	bl	8004d3c <RCCEx_PLL2_Config.part.0>
 8005052:	4605      	mov	r5, r0
  if (((PeriphClkInit->PeriphClockSelection) & RCC_PERIPHCLK_QSPI) == RCC_PERIPHCLK_QSPI)
 8005054:	e9d4 3200 	ldrd	r3, r2, [r4]
    if (ret == HAL_OK)
 8005058:	2d00      	cmp	r5, #0
 800505a:	f040 84c8 	bne.w	80059ee <HAL_RCCEx_PeriphCLKConfig+0xaf2>
      __HAL_RCC_SAI4B_CONFIG(PeriphClkInit->Sai4BClockSelection);
 800505e:	4f5c      	ldr	r7, [pc, #368]	@ (80051d0 <HAL_RCCEx_PeriphCLKConfig+0x2d4>)
 8005060:	f8d4 00ac 	ldr.w	r0, [r4, #172]	@ 0xac
 8005064:	6db9      	ldr	r1, [r7, #88]	@ 0x58
 8005066:	f021 61e0 	bic.w	r1, r1, #117440512	@ 0x7000000
 800506a:	4301      	orrs	r1, r0
 800506c:	65b9      	str	r1, [r7, #88]	@ 0x58
  if (((PeriphClkInit->PeriphClockSelection) & RCC_PERIPHCLK_QSPI) == RCC_PERIPHCLK_QSPI)
 800506e:	0199      	lsls	r1, r3, #6
 8005070:	d518      	bpl.n	80050a4 <HAL_RCCEx_PeriphCLKConfig+0x1a8>
    switch (PeriphClkInit->QspiClockSelection)
 8005072:	6ce1      	ldr	r1, [r4, #76]	@ 0x4c
 8005074:	2920      	cmp	r1, #32
 8005076:	f000 8434 	beq.w	80058e2 <HAL_RCCEx_PeriphCLKConfig+0x9e6>
 800507a:	f200 8615 	bhi.w	8005ca8 <HAL_RCCEx_PeriphCLKConfig+0xdac>
 800507e:	b139      	cbz	r1, 8005090 <HAL_RCCEx_PeriphCLKConfig+0x194>
 8005080:	2910      	cmp	r1, #16
 8005082:	f040 8614 	bne.w	8005cae <HAL_RCCEx_PeriphCLKConfig+0xdb2>
        __HAL_RCC_PLLCLKOUT_ENABLE(RCC_PLL1_DIVQ);
 8005086:	4852      	ldr	r0, [pc, #328]	@ (80051d0 <HAL_RCCEx_PeriphCLKConfig+0x2d4>)
 8005088:	6ac1      	ldr	r1, [r0, #44]	@ 0x2c
 800508a:	f441 3100 	orr.w	r1, r1, #131072	@ 0x20000
 800508e:	62c1      	str	r1, [r0, #44]	@ 0x2c
    if (ret == HAL_OK)
 8005090:	2d00      	cmp	r5, #0
 8005092:	f040 83bf 	bne.w	8005814 <HAL_RCCEx_PeriphCLKConfig+0x918>
      __HAL_RCC_QSPI_CONFIG(PeriphClkInit->QspiClockSelection);
 8005096:	4f4e      	ldr	r7, [pc, #312]	@ (80051d0 <HAL_RCCEx_PeriphCLKConfig+0x2d4>)
 8005098:	6ce0      	ldr	r0, [r4, #76]	@ 0x4c
 800509a:	6cf9      	ldr	r1, [r7, #76]	@ 0x4c
 800509c:	f021 0130 	bic.w	r1, r1, #48	@ 0x30
 80050a0:	4301      	orrs	r1, r0
 80050a2:	64f9      	str	r1, [r7, #76]	@ 0x4c
  if (((PeriphClkInit->PeriphClockSelection) & RCC_PERIPHCLK_SPI123) == RCC_PERIPHCLK_SPI123)
 80050a4:	04df      	lsls	r7, r3, #19
 80050a6:	d526      	bpl.n	80050f6 <HAL_RCCEx_PeriphCLKConfig+0x1fa>
    switch (PeriphClkInit->Spi123ClockSelection)
 80050a8:	6e21      	ldr	r1, [r4, #96]	@ 0x60
 80050aa:	f5b1 5f00 	cmp.w	r1, #8192	@ 0x2000
 80050ae:	f000 84a1 	beq.w	80059f4 <HAL_RCCEx_PeriphCLKConfig+0xaf8>
 80050b2:	f200 85c3 	bhi.w	8005c3c <HAL_RCCEx_PeriphCLKConfig+0xd40>
 80050b6:	2900      	cmp	r1, #0
 80050b8:	f000 8486 	beq.w	80059c8 <HAL_RCCEx_PeriphCLKConfig+0xacc>
 80050bc:	f5b1 5f80 	cmp.w	r1, #4096	@ 0x1000
 80050c0:	f040 85c4 	bne.w	8005c4c <HAL_RCCEx_PeriphCLKConfig+0xd50>
  if (__HAL_RCC_GET_PLL_OSCSOURCE() == RCC_PLLSOURCE_NONE)
 80050c4:	4942      	ldr	r1, [pc, #264]	@ (80051d0 <HAL_RCCEx_PeriphCLKConfig+0x2d4>)
 80050c6:	6a89      	ldr	r1, [r1, #40]	@ 0x28
 80050c8:	f001 0103 	and.w	r1, r1, #3
 80050cc:	2903      	cmp	r1, #3
 80050ce:	f000 85bd 	beq.w	8005c4c <HAL_RCCEx_PeriphCLKConfig+0xd50>
 80050d2:	2100      	movs	r1, #0
 80050d4:	f104 0008 	add.w	r0, r4, #8
 80050d8:	f7ff fe30 	bl	8004d3c <RCCEx_PLL2_Config.part.0>
 80050dc:	4605      	mov	r5, r0
  if (((PeriphClkInit->PeriphClockSelection) & RCC_PERIPHCLK_SPI45) == RCC_PERIPHCLK_SPI45)
 80050de:	e9d4 3200 	ldrd	r3, r2, [r4]
    if (ret == HAL_OK)
 80050e2:	2d00      	cmp	r5, #0
 80050e4:	f040 8478 	bne.w	80059d8 <HAL_RCCEx_PeriphCLKConfig+0xadc>
      __HAL_RCC_SPI123_CONFIG(PeriphClkInit->Spi123ClockSelection);
 80050e8:	4f39      	ldr	r7, [pc, #228]	@ (80051d0 <HAL_RCCEx_PeriphCLKConfig+0x2d4>)
 80050ea:	6e20      	ldr	r0, [r4, #96]	@ 0x60
 80050ec:	6d39      	ldr	r1, [r7, #80]	@ 0x50
 80050ee:	f421 41e0 	bic.w	r1, r1, #28672	@ 0x7000
 80050f2:	4301      	orrs	r1, r0
 80050f4:	6539      	str	r1, [r7, #80]	@ 0x50
  if (((PeriphClkInit->PeriphClockSelection) & RCC_PERIPHCLK_SPI45) == RCC_PERIPHCLK_SPI45)
 80050f6:	0498      	lsls	r0, r3, #18
 80050f8:	d524      	bpl.n	8005144 <HAL_RCCEx_PeriphCLKConfig+0x248>
    switch (PeriphClkInit->Spi45ClockSelection)
 80050fa:	6e61      	ldr	r1, [r4, #100]	@ 0x64
 80050fc:	f5b1 3f00 	cmp.w	r1, #131072	@ 0x20000
 8005100:	f000 8415 	beq.w	800592e <HAL_RCCEx_PeriphCLKConfig+0xa32>
 8005104:	f200 8556 	bhi.w	8005bb4 <HAL_RCCEx_PeriphCLKConfig+0xcb8>
 8005108:	b191      	cbz	r1, 8005130 <HAL_RCCEx_PeriphCLKConfig+0x234>
 800510a:	f5b1 3f80 	cmp.w	r1, #65536	@ 0x10000
 800510e:	f040 855b 	bne.w	8005bc8 <HAL_RCCEx_PeriphCLKConfig+0xccc>
  if (__HAL_RCC_GET_PLL_OSCSOURCE() == RCC_PLLSOURCE_NONE)
 8005112:	492f      	ldr	r1, [pc, #188]	@ (80051d0 <HAL_RCCEx_PeriphCLKConfig+0x2d4>)
 8005114:	6a89      	ldr	r1, [r1, #40]	@ 0x28
 8005116:	f001 0103 	and.w	r1, r1, #3
 800511a:	2903      	cmp	r1, #3
 800511c:	f000 8554 	beq.w	8005bc8 <HAL_RCCEx_PeriphCLKConfig+0xccc>
 8005120:	2101      	movs	r1, #1
 8005122:	f104 0008 	add.w	r0, r4, #8
 8005126:	f7ff fe09 	bl	8004d3c <RCCEx_PLL2_Config.part.0>
 800512a:	4605      	mov	r5, r0
  if (((PeriphClkInit->PeriphClockSelection) & RCC_PERIPHCLK_SPI6) == RCC_PERIPHCLK_SPI6)
 800512c:	e9d4 3200 	ldrd	r3, r2, [r4]
    if (ret == HAL_OK)
 8005130:	2d00      	cmp	r5, #0
 8005132:	f040 838f 	bne.w	8005854 <HAL_RCCEx_PeriphCLKConfig+0x958>
      __HAL_RCC_SPI45_CONFIG(PeriphClkInit->Spi45ClockSelection);
 8005136:	4f26      	ldr	r7, [pc, #152]	@ (80051d0 <HAL_RCCEx_PeriphCLKConfig+0x2d4>)
 8005138:	6e60      	ldr	r0, [r4, #100]	@ 0x64
 800513a:	6d39      	ldr	r1, [r7, #80]	@ 0x50
 800513c:	f421 21e0 	bic.w	r1, r1, #458752	@ 0x70000
 8005140:	4301      	orrs	r1, r0
 8005142:	6539      	str	r1, [r7, #80]	@ 0x50
  if (((PeriphClkInit->PeriphClockSelection) & RCC_PERIPHCLK_SPI6) == RCC_PERIPHCLK_SPI6)
 8005144:	0459      	lsls	r1, r3, #17
 8005146:	d526      	bpl.n	8005196 <HAL_RCCEx_PeriphCLKConfig+0x29a>
    switch (PeriphClkInit->Spi6ClockSelection)
 8005148:	f8d4 10b0 	ldr.w	r1, [r4, #176]	@ 0xb0
 800514c:	f1b1 5f00 	cmp.w	r1, #536870912	@ 0x20000000
 8005150:	f000 8426 	beq.w	80059a0 <HAL_RCCEx_PeriphCLKConfig+0xaa4>
 8005154:	f200 854a 	bhi.w	8005bec <HAL_RCCEx_PeriphCLKConfig+0xcf0>
 8005158:	b191      	cbz	r1, 8005180 <HAL_RCCEx_PeriphCLKConfig+0x284>
 800515a:	f1b1 5f80 	cmp.w	r1, #268435456	@ 0x10000000
 800515e:	f040 854f 	bne.w	8005c00 <HAL_RCCEx_PeriphCLKConfig+0xd04>
  if (__HAL_RCC_GET_PLL_OSCSOURCE() == RCC_PLLSOURCE_NONE)
 8005162:	491b      	ldr	r1, [pc, #108]	@ (80051d0 <HAL_RCCEx_PeriphCLKConfig+0x2d4>)
 8005164:	6a89      	ldr	r1, [r1, #40]	@ 0x28
 8005166:	f001 0103 	and.w	r1, r1, #3
 800516a:	2903      	cmp	r1, #3
 800516c:	f000 8548 	beq.w	8005c00 <HAL_RCCEx_PeriphCLKConfig+0xd04>
 8005170:	2101      	movs	r1, #1
 8005172:	f104 0008 	add.w	r0, r4, #8
 8005176:	f7ff fde1 	bl	8004d3c <RCCEx_PLL2_Config.part.0>
 800517a:	4605      	mov	r5, r0
  if (((PeriphClkInit->PeriphClockSelection) & RCC_PERIPHCLK_FDCAN) == RCC_PERIPHCLK_FDCAN)
 800517c:	e9d4 3200 	ldrd	r3, r2, [r4]
    if (ret == HAL_OK)
 8005180:	2d00      	cmp	r5, #0
 8005182:	f040 835b 	bne.w	800583c <HAL_RCCEx_PeriphCLKConfig+0x940>
      __HAL_RCC_SPI6_CONFIG(PeriphClkInit->Spi6ClockSelection);
 8005186:	4f12      	ldr	r7, [pc, #72]	@ (80051d0 <HAL_RCCEx_PeriphCLKConfig+0x2d4>)
 8005188:	f8d4 00b0 	ldr.w	r0, [r4, #176]	@ 0xb0
 800518c:	6db9      	ldr	r1, [r7, #88]	@ 0x58
 800518e:	f021 41e0 	bic.w	r1, r1, #1879048192	@ 0x70000000
 8005192:	4301      	orrs	r1, r0
 8005194:	65b9      	str	r1, [r7, #88]	@ 0x58
  if (((PeriphClkInit->PeriphClockSelection) & RCC_PERIPHCLK_FDCAN) == RCC_PERIPHCLK_FDCAN)
 8005196:	041f      	lsls	r7, r3, #16
 8005198:	d50d      	bpl.n	80051b6 <HAL_RCCEx_PeriphCLKConfig+0x2ba>
    switch (PeriphClkInit->FdcanClockSelection)
 800519a:	6f21      	ldr	r1, [r4, #112]	@ 0x70
 800519c:	f1b1 5f80 	cmp.w	r1, #268435456	@ 0x10000000
 80051a0:	f000 8260 	beq.w	8005664 <HAL_RCCEx_PeriphCLKConfig+0x768>
 80051a4:	f1b1 5f00 	cmp.w	r1, #536870912	@ 0x20000000
 80051a8:	f000 8591 	beq.w	8005cce <HAL_RCCEx_PeriphCLKConfig+0xdd2>
 80051ac:	2900      	cmp	r1, #0
 80051ae:	f000 825e 	beq.w	800566e <HAL_RCCEx_PeriphCLKConfig+0x772>
      status = ret;
 80051b2:	2601      	movs	r6, #1
        ret = HAL_ERROR;
 80051b4:	4635      	mov	r5, r6
  if (((PeriphClkInit->PeriphClockSelection) & RCC_PERIPHCLK_FMC) == RCC_PERIPHCLK_FMC)
 80051b6:	01d8      	lsls	r0, r3, #7
 80051b8:	d515      	bpl.n	80051e6 <HAL_RCCEx_PeriphCLKConfig+0x2ea>
    switch (PeriphClkInit->FmcClockSelection)
 80051ba:	6ca1      	ldr	r1, [r4, #72]	@ 0x48
 80051bc:	2903      	cmp	r1, #3
 80051be:	f200 85b4 	bhi.w	8005d2a <HAL_RCCEx_PeriphCLKConfig+0xe2e>
 80051c2:	e8df f011 	tbh	[pc, r1, lsl #1]
 80051c6:	000c      	.short	0x000c
 80051c8:	03a10007 	.word	0x03a10007
 80051cc:	000c      	.short	0x000c
 80051ce:	bf00      	nop
 80051d0:	58024400 	.word	0x58024400
        __HAL_RCC_PLLCLKOUT_ENABLE(RCC_PLL1_DIVQ);
 80051d4:	4836      	ldr	r0, [pc, #216]	@ (80052b0 <HAL_RCCEx_PeriphCLKConfig+0x3b4>)
 80051d6:	6ac1      	ldr	r1, [r0, #44]	@ 0x2c
 80051d8:	f441 3100 	orr.w	r1, r1, #131072	@ 0x20000
 80051dc:	62c1      	str	r1, [r0, #44]	@ 0x2c
    if (ret == HAL_OK)
 80051de:	2d00      	cmp	r5, #0
 80051e0:	f000 831a 	beq.w	8005818 <HAL_RCCEx_PeriphCLKConfig+0x91c>
      status = ret;
 80051e4:	462e      	mov	r6, r5
  if (((PeriphClkInit->PeriphClockSelection) & RCC_PERIPHCLK_RTC) == RCC_PERIPHCLK_RTC)
 80051e6:	0259      	lsls	r1, r3, #9
 80051e8:	f100 827a 	bmi.w	80056e0 <HAL_RCCEx_PeriphCLKConfig+0x7e4>
  if (((PeriphClkInit->PeriphClockSelection) & RCC_PERIPHCLK_USART16) == RCC_PERIPHCLK_USART16)
 80051ec:	07df      	lsls	r7, r3, #31
 80051ee:	d52f      	bpl.n	8005250 <HAL_RCCEx_PeriphCLKConfig+0x354>
    switch (PeriphClkInit->Usart16ClockSelection)
 80051f0:	6fe1      	ldr	r1, [r4, #124]	@ 0x7c
 80051f2:	2928      	cmp	r1, #40	@ 0x28
 80051f4:	d82a      	bhi.n	800524c <HAL_RCCEx_PeriphCLKConfig+0x350>
 80051f6:	e8df f011 	tbh	[pc, r1, lsl #1]
 80051fa:	0257      	.short	0x0257
 80051fc:	00290029 	.word	0x00290029
 8005200:	00290029 	.word	0x00290029
 8005204:	00290029 	.word	0x00290029
 8005208:	02480029 	.word	0x02480029
 800520c:	00290029 	.word	0x00290029
 8005210:	00290029 	.word	0x00290029
 8005214:	00290029 	.word	0x00290029
 8005218:	04b90029 	.word	0x04b90029
 800521c:	00290029 	.word	0x00290029
 8005220:	00290029 	.word	0x00290029
 8005224:	00290029 	.word	0x00290029
 8005228:	02570029 	.word	0x02570029
 800522c:	00290029 	.word	0x00290029
 8005230:	00290029 	.word	0x00290029
 8005234:	00290029 	.word	0x00290029
 8005238:	02570029 	.word	0x02570029
 800523c:	00290029 	.word	0x00290029
 8005240:	00290029 	.word	0x00290029
 8005244:	00290029 	.word	0x00290029
 8005248:	02570029 	.word	0x02570029
      status = ret;
 800524c:	2601      	movs	r6, #1
        ret = HAL_ERROR;
 800524e:	4635      	mov	r5, r6
  if (((PeriphClkInit->PeriphClockSelection) & RCC_PERIPHCLK_USART234578) == RCC_PERIPHCLK_USART234578)
 8005250:	0798      	lsls	r0, r3, #30
 8005252:	d51e      	bpl.n	8005292 <HAL_RCCEx_PeriphCLKConfig+0x396>
    switch (PeriphClkInit->Usart234578ClockSelection)
 8005254:	6fa1      	ldr	r1, [r4, #120]	@ 0x78
 8005256:	2905      	cmp	r1, #5
 8005258:	f200 8550 	bhi.w	8005cfc <HAL_RCCEx_PeriphCLKConfig+0xe00>
 800525c:	e8df f011 	tbh	[pc, r1, lsl #1]
 8005260:	00060015 	.word	0x00060015
 8005264:	00150471 	.word	0x00150471
 8005268:	00150015 	.word	0x00150015
  if (__HAL_RCC_GET_PLL_OSCSOURCE() == RCC_PLLSOURCE_NONE)
 800526c:	4910      	ldr	r1, [pc, #64]	@ (80052b0 <HAL_RCCEx_PeriphCLKConfig+0x3b4>)
 800526e:	6a89      	ldr	r1, [r1, #40]	@ 0x28
 8005270:	f001 0103 	and.w	r1, r1, #3
 8005274:	2903      	cmp	r1, #3
 8005276:	f000 8541 	beq.w	8005cfc <HAL_RCCEx_PeriphCLKConfig+0xe00>
 800527a:	2101      	movs	r1, #1
 800527c:	f104 0008 	add.w	r0, r4, #8
 8005280:	f7ff fd5c 	bl	8004d3c <RCCEx_PLL2_Config.part.0>
 8005284:	4605      	mov	r5, r0
  if (((PeriphClkInit->PeriphClockSelection) & RCC_PERIPHCLK_LPUART1) == RCC_PERIPHCLK_LPUART1)
 8005286:	e9d4 3200 	ldrd	r3, r2, [r4]
    if (ret == HAL_OK)
 800528a:	2d00      	cmp	r5, #0
 800528c:	f000 82cc 	beq.w	8005828 <HAL_RCCEx_PeriphCLKConfig+0x92c>
      status = ret;
 8005290:	462e      	mov	r6, r5
  if (((PeriphClkInit->PeriphClockSelection) & RCC_PERIPHCLK_LPUART1) == RCC_PERIPHCLK_LPUART1)
 8005292:	0759      	lsls	r1, r3, #29
 8005294:	d521      	bpl.n	80052da <HAL_RCCEx_PeriphCLKConfig+0x3de>
    switch (PeriphClkInit->Lpuart1ClockSelection)
 8005296:	f8d4 1094 	ldr.w	r1, [r4, #148]	@ 0x94
 800529a:	2905      	cmp	r1, #5
 800529c:	f200 852a 	bhi.w	8005cf4 <HAL_RCCEx_PeriphCLKConfig+0xdf8>
 80052a0:	e8df f011 	tbh	[pc, r1, lsl #1]
 80052a4:	00080017 	.word	0x00080017
 80052a8:	0017043c 	.word	0x0017043c
 80052ac:	00170017 	.word	0x00170017
 80052b0:	58024400 	.word	0x58024400
  if (__HAL_RCC_GET_PLL_OSCSOURCE() == RCC_PLLSOURCE_NONE)
 80052b4:	49ae      	ldr	r1, [pc, #696]	@ (8005570 <HAL_RCCEx_PeriphCLKConfig+0x674>)
 80052b6:	6a89      	ldr	r1, [r1, #40]	@ 0x28
 80052b8:	f001 0103 	and.w	r1, r1, #3
 80052bc:	2903      	cmp	r1, #3
 80052be:	f000 8519 	beq.w	8005cf4 <HAL_RCCEx_PeriphCLKConfig+0xdf8>
 80052c2:	2101      	movs	r1, #1
 80052c4:	f104 0008 	add.w	r0, r4, #8
 80052c8:	f7ff fd38 	bl	8004d3c <RCCEx_PLL2_Config.part.0>
 80052cc:	4605      	mov	r5, r0
  if (((PeriphClkInit->PeriphClockSelection) & RCC_PERIPHCLK_LPTIM1) == RCC_PERIPHCLK_LPTIM1)
 80052ce:	e9d4 3200 	ldrd	r3, r2, [r4]
    if (ret == HAL_OK)
 80052d2:	2d00      	cmp	r5, #0
 80052d4:	f000 82c2 	beq.w	800585c <HAL_RCCEx_PeriphCLKConfig+0x960>
      status = ret;
 80052d8:	462e      	mov	r6, r5
  if (((PeriphClkInit->PeriphClockSelection) & RCC_PERIPHCLK_LPTIM1) == RCC_PERIPHCLK_LPTIM1)
 80052da:	069f      	lsls	r7, r3, #26
 80052dc:	d526      	bpl.n	800532c <HAL_RCCEx_PeriphCLKConfig+0x430>
    switch (PeriphClkInit->Lptim1ClockSelection)
 80052de:	f8d4 1090 	ldr.w	r1, [r4, #144]	@ 0x90
 80052e2:	f1b1 5f00 	cmp.w	r1, #536870912	@ 0x20000000
 80052e6:	f000 82c6 	beq.w	8005876 <HAL_RCCEx_PeriphCLKConfig+0x97a>
 80052ea:	f200 8455 	bhi.w	8005b98 <HAL_RCCEx_PeriphCLKConfig+0xc9c>
 80052ee:	b191      	cbz	r1, 8005316 <HAL_RCCEx_PeriphCLKConfig+0x41a>
 80052f0:	f1b1 5f80 	cmp.w	r1, #268435456	@ 0x10000000
 80052f4:	f040 845a 	bne.w	8005bac <HAL_RCCEx_PeriphCLKConfig+0xcb0>
  if (__HAL_RCC_GET_PLL_OSCSOURCE() == RCC_PLLSOURCE_NONE)
 80052f8:	499d      	ldr	r1, [pc, #628]	@ (8005570 <HAL_RCCEx_PeriphCLKConfig+0x674>)
 80052fa:	6a89      	ldr	r1, [r1, #40]	@ 0x28
 80052fc:	f001 0103 	and.w	r1, r1, #3
 8005300:	2903      	cmp	r1, #3
 8005302:	f000 8453 	beq.w	8005bac <HAL_RCCEx_PeriphCLKConfig+0xcb0>
 8005306:	2100      	movs	r1, #0
 8005308:	f104 0008 	add.w	r0, r4, #8
 800530c:	f7ff fd16 	bl	8004d3c <RCCEx_PLL2_Config.part.0>
 8005310:	4605      	mov	r5, r0
  if (((PeriphClkInit->PeriphClockSelection) & RCC_PERIPHCLK_LPTIM2) == RCC_PERIPHCLK_LPTIM2)
 8005312:	e9d4 3200 	ldrd	r3, r2, [r4]
    if (ret == HAL_OK)
 8005316:	2d00      	cmp	r5, #0
 8005318:	f040 828e 	bne.w	8005838 <HAL_RCCEx_PeriphCLKConfig+0x93c>
      __HAL_RCC_LPTIM1_CONFIG(PeriphClkInit->Lptim1ClockSelection);
 800531c:	4f94      	ldr	r7, [pc, #592]	@ (8005570 <HAL_RCCEx_PeriphCLKConfig+0x674>)
 800531e:	f8d4 0090 	ldr.w	r0, [r4, #144]	@ 0x90
 8005322:	6d79      	ldr	r1, [r7, #84]	@ 0x54
 8005324:	f021 41e0 	bic.w	r1, r1, #1879048192	@ 0x70000000
 8005328:	4301      	orrs	r1, r0
 800532a:	6579      	str	r1, [r7, #84]	@ 0x54
  if (((PeriphClkInit->PeriphClockSelection) & RCC_PERIPHCLK_LPTIM2) == RCC_PERIPHCLK_LPTIM2)
 800532c:	0658      	lsls	r0, r3, #25
 800532e:	d526      	bpl.n	800537e <HAL_RCCEx_PeriphCLKConfig+0x482>
    switch (PeriphClkInit->Lptim2ClockSelection)
 8005330:	f8d4 109c 	ldr.w	r1, [r4, #156]	@ 0x9c
 8005334:	f5b1 6f00 	cmp.w	r1, #2048	@ 0x800
 8005338:	f000 82af 	beq.w	800589a <HAL_RCCEx_PeriphCLKConfig+0x99e>
 800533c:	f200 8464 	bhi.w	8005c08 <HAL_RCCEx_PeriphCLKConfig+0xd0c>
 8005340:	b191      	cbz	r1, 8005368 <HAL_RCCEx_PeriphCLKConfig+0x46c>
 8005342:	f5b1 6f80 	cmp.w	r1, #1024	@ 0x400
 8005346:	f040 8469 	bne.w	8005c1c <HAL_RCCEx_PeriphCLKConfig+0xd20>
  if (__HAL_RCC_GET_PLL_OSCSOURCE() == RCC_PLLSOURCE_NONE)
 800534a:	4989      	ldr	r1, [pc, #548]	@ (8005570 <HAL_RCCEx_PeriphCLKConfig+0x674>)
 800534c:	6a89      	ldr	r1, [r1, #40]	@ 0x28
 800534e:	f001 0103 	and.w	r1, r1, #3
 8005352:	2903      	cmp	r1, #3
 8005354:	f000 8462 	beq.w	8005c1c <HAL_RCCEx_PeriphCLKConfig+0xd20>
 8005358:	2100      	movs	r1, #0
 800535a:	f104 0008 	add.w	r0, r4, #8
 800535e:	f7ff fced 	bl	8004d3c <RCCEx_PLL2_Config.part.0>
 8005362:	4605      	mov	r5, r0
  if (((PeriphClkInit->PeriphClockSelection) & RCC_PERIPHCLK_LPTIM345) == RCC_PERIPHCLK_LPTIM345)
 8005364:	e9d4 3200 	ldrd	r3, r2, [r4]
    if (ret == HAL_OK)
 8005368:	2d00      	cmp	r5, #0
 800536a:	f040 8269 	bne.w	8005840 <HAL_RCCEx_PeriphCLKConfig+0x944>
      __HAL_RCC_LPTIM2_CONFIG(PeriphClkInit->Lptim2ClockSelection);
 800536e:	4f80      	ldr	r7, [pc, #512]	@ (8005570 <HAL_RCCEx_PeriphCLKConfig+0x674>)
 8005370:	f8d4 009c 	ldr.w	r0, [r4, #156]	@ 0x9c
 8005374:	6db9      	ldr	r1, [r7, #88]	@ 0x58
 8005376:	f421 51e0 	bic.w	r1, r1, #7168	@ 0x1c00
 800537a:	4301      	orrs	r1, r0
 800537c:	65b9      	str	r1, [r7, #88]	@ 0x58
  if (((PeriphClkInit->PeriphClockSelection) & RCC_PERIPHCLK_LPTIM345) == RCC_PERIPHCLK_LPTIM345)
 800537e:	0619      	lsls	r1, r3, #24
 8005380:	d526      	bpl.n	80053d0 <HAL_RCCEx_PeriphCLKConfig+0x4d4>
    switch (PeriphClkInit->Lptim345ClockSelection)
 8005382:	f8d4 10a0 	ldr.w	r1, [r4, #160]	@ 0xa0
 8005386:	f5b1 4f80 	cmp.w	r1, #16384	@ 0x4000
 800538a:	f000 8298 	beq.w	80058be <HAL_RCCEx_PeriphCLKConfig+0x9c2>
 800538e:	f200 841f 	bhi.w	8005bd0 <HAL_RCCEx_PeriphCLKConfig+0xcd4>
 8005392:	b191      	cbz	r1, 80053ba <HAL_RCCEx_PeriphCLKConfig+0x4be>
 8005394:	f5b1 5f00 	cmp.w	r1, #8192	@ 0x2000
 8005398:	f040 8424 	bne.w	8005be4 <HAL_RCCEx_PeriphCLKConfig+0xce8>
  if (__HAL_RCC_GET_PLL_OSCSOURCE() == RCC_PLLSOURCE_NONE)
 800539c:	4974      	ldr	r1, [pc, #464]	@ (8005570 <HAL_RCCEx_PeriphCLKConfig+0x674>)
 800539e:	6a89      	ldr	r1, [r1, #40]	@ 0x28
 80053a0:	f001 0103 	and.w	r1, r1, #3
 80053a4:	2903      	cmp	r1, #3
 80053a6:	f000 841d 	beq.w	8005be4 <HAL_RCCEx_PeriphCLKConfig+0xce8>
 80053aa:	2100      	movs	r1, #0
 80053ac:	f104 0008 	add.w	r0, r4, #8
 80053b0:	f7ff fcc4 	bl	8004d3c <RCCEx_PLL2_Config.part.0>
 80053b4:	4605      	mov	r5, r0
  if (((PeriphClkInit->PeriphClockSelection) & RCC_PERIPHCLK_I2C123) == RCC_PERIPHCLK_I2C123)
 80053b6:	e9d4 3200 	ldrd	r3, r2, [r4]
    if (ret == HAL_OK)
 80053ba:	2d00      	cmp	r5, #0
 80053bc:	f040 8244 	bne.w	8005848 <HAL_RCCEx_PeriphCLKConfig+0x94c>
      __HAL_RCC_LPTIM345_CONFIG(PeriphClkInit->Lptim345ClockSelection);
 80053c0:	4f6b      	ldr	r7, [pc, #428]	@ (8005570 <HAL_RCCEx_PeriphCLKConfig+0x674>)
 80053c2:	f8d4 00a0 	ldr.w	r0, [r4, #160]	@ 0xa0
 80053c6:	6db9      	ldr	r1, [r7, #88]	@ 0x58
 80053c8:	f421 4160 	bic.w	r1, r1, #57344	@ 0xe000
 80053cc:	4301      	orrs	r1, r0
 80053ce:	65b9      	str	r1, [r7, #88]	@ 0x58
  if (((PeriphClkInit->PeriphClockSelection) & RCC_PERIPHCLK_I2C123) == RCC_PERIPHCLK_I2C123)
 80053d0:	071f      	lsls	r7, r3, #28
 80053d2:	d50b      	bpl.n	80053ec <HAL_RCCEx_PeriphCLKConfig+0x4f0>
    if ((PeriphClkInit->I2c123ClockSelection) == RCC_I2C123CLKSOURCE_PLL3)
 80053d4:	f8d4 0084 	ldr.w	r0, [r4, #132]	@ 0x84
 80053d8:	f5b0 5f80 	cmp.w	r0, #4096	@ 0x1000
 80053dc:	f000 81d4 	beq.w	8005788 <HAL_RCCEx_PeriphCLKConfig+0x88c>
    __HAL_RCC_I2C123_CONFIG(PeriphClkInit->I2c123ClockSelection);
 80053e0:	4f63      	ldr	r7, [pc, #396]	@ (8005570 <HAL_RCCEx_PeriphCLKConfig+0x674>)
 80053e2:	6d79      	ldr	r1, [r7, #84]	@ 0x54
 80053e4:	f421 5140 	bic.w	r1, r1, #12288	@ 0x3000
 80053e8:	4301      	orrs	r1, r0
 80053ea:	6579      	str	r1, [r7, #84]	@ 0x54
  if (((PeriphClkInit->PeriphClockSelection) & RCC_PERIPHCLK_I2C4) == RCC_PERIPHCLK_I2C4)
 80053ec:	06d8      	lsls	r0, r3, #27
 80053ee:	d50b      	bpl.n	8005408 <HAL_RCCEx_PeriphCLKConfig+0x50c>
    if ((PeriphClkInit->I2c4ClockSelection) == RCC_I2C4CLKSOURCE_PLL3)
 80053f0:	f8d4 0098 	ldr.w	r0, [r4, #152]	@ 0x98
 80053f4:	f5b0 7f80 	cmp.w	r0, #256	@ 0x100
 80053f8:	f000 81db 	beq.w	80057b2 <HAL_RCCEx_PeriphCLKConfig+0x8b6>
    __HAL_RCC_I2C4_CONFIG(PeriphClkInit->I2c4ClockSelection);
 80053fc:	4f5c      	ldr	r7, [pc, #368]	@ (8005570 <HAL_RCCEx_PeriphCLKConfig+0x674>)
 80053fe:	6db9      	ldr	r1, [r7, #88]	@ 0x58
 8005400:	f421 7140 	bic.w	r1, r1, #768	@ 0x300
 8005404:	4301      	orrs	r1, r0
 8005406:	65b9      	str	r1, [r7, #88]	@ 0x58
  if (((PeriphClkInit->PeriphClockSelection) & RCC_PERIPHCLK_ADC) == RCC_PERIPHCLK_ADC)
 8005408:	0319      	lsls	r1, r3, #12
 800540a:	d524      	bpl.n	8005456 <HAL_RCCEx_PeriphCLKConfig+0x55a>
    switch (PeriphClkInit->AdcClockSelection)
 800540c:	f8d4 10a4 	ldr.w	r1, [r4, #164]	@ 0xa4
 8005410:	f5b1 3f80 	cmp.w	r1, #65536	@ 0x10000
 8005414:	f000 82b1 	beq.w	800597a <HAL_RCCEx_PeriphCLKConfig+0xa7e>
 8005418:	f5b1 3f00 	cmp.w	r1, #131072	@ 0x20000
 800541c:	d010      	beq.n	8005440 <HAL_RCCEx_PeriphCLKConfig+0x544>
 800541e:	2900      	cmp	r1, #0
 8005420:	f040 8130 	bne.w	8005684 <HAL_RCCEx_PeriphCLKConfig+0x788>
  if (__HAL_RCC_GET_PLL_OSCSOURCE() == RCC_PLLSOURCE_NONE)
 8005424:	4852      	ldr	r0, [pc, #328]	@ (8005570 <HAL_RCCEx_PeriphCLKConfig+0x674>)
 8005426:	6a80      	ldr	r0, [r0, #40]	@ 0x28
 8005428:	f000 0003 	and.w	r0, r0, #3
 800542c:	2803      	cmp	r0, #3
 800542e:	f000 8129 	beq.w	8005684 <HAL_RCCEx_PeriphCLKConfig+0x788>
 8005432:	f104 0008 	add.w	r0, r4, #8
 8005436:	f7ff fc81 	bl	8004d3c <RCCEx_PLL2_Config.part.0>
 800543a:	4605      	mov	r5, r0
  if (((PeriphClkInit->PeriphClockSelection) & RCC_PERIPHCLK_USB) == RCC_PERIPHCLK_USB)
 800543c:	e9d4 3200 	ldrd	r3, r2, [r4]
    if (ret == HAL_OK)
 8005440:	2d00      	cmp	r5, #0
 8005442:	f040 81ff 	bne.w	8005844 <HAL_RCCEx_PeriphCLKConfig+0x948>
      __HAL_RCC_ADC_CONFIG(PeriphClkInit->AdcClockSelection);
 8005446:	4f4a      	ldr	r7, [pc, #296]	@ (8005570 <HAL_RCCEx_PeriphCLKConfig+0x674>)
 8005448:	f8d4 00a4 	ldr.w	r0, [r4, #164]	@ 0xa4
 800544c:	6db9      	ldr	r1, [r7, #88]	@ 0x58
 800544e:	f421 3140 	bic.w	r1, r1, #196608	@ 0x30000
 8005452:	4301      	orrs	r1, r0
 8005454:	65b9      	str	r1, [r7, #88]	@ 0x58
  if (((PeriphClkInit->PeriphClockSelection) & RCC_PERIPHCLK_USB) == RCC_PERIPHCLK_USB)
 8005456:	035f      	lsls	r7, r3, #13
 8005458:	d50f      	bpl.n	800547a <HAL_RCCEx_PeriphCLKConfig+0x57e>
    switch (PeriphClkInit->UsbClockSelection)
 800545a:	f8d4 1088 	ldr.w	r1, [r4, #136]	@ 0x88
 800545e:	f5b1 1f00 	cmp.w	r1, #2097152	@ 0x200000
 8005462:	f000 8277 	beq.w	8005954 <HAL_RCCEx_PeriphCLKConfig+0xa58>
 8005466:	f5b1 1f40 	cmp.w	r1, #3145728	@ 0x300000
 800546a:	f000 812d 	beq.w	80056c8 <HAL_RCCEx_PeriphCLKConfig+0x7cc>
 800546e:	f5b1 1f80 	cmp.w	r1, #1048576	@ 0x100000
 8005472:	f000 8124 	beq.w	80056be <HAL_RCCEx_PeriphCLKConfig+0x7c2>
      status = ret;
 8005476:	2601      	movs	r6, #1
        ret = HAL_ERROR;
 8005478:	4635      	mov	r5, r6
  if (((PeriphClkInit->PeriphClockSelection) & RCC_PERIPHCLK_SDMMC) == RCC_PERIPHCLK_SDMMC)
 800547a:	03d8      	lsls	r0, r3, #15
 800547c:	d520      	bpl.n	80054c0 <HAL_RCCEx_PeriphCLKConfig+0x5c4>
    switch (PeriphClkInit->SdmmcClockSelection)
 800547e:	6d21      	ldr	r1, [r4, #80]	@ 0x50
 8005480:	2900      	cmp	r1, #0
 8005482:	f000 81aa 	beq.w	80057da <HAL_RCCEx_PeriphCLKConfig+0x8de>
 8005486:	f5b1 3f80 	cmp.w	r1, #65536	@ 0x10000
 800548a:	f040 80e8 	bne.w	800565e <HAL_RCCEx_PeriphCLKConfig+0x762>
  if (__HAL_RCC_GET_PLL_OSCSOURCE() == RCC_PLLSOURCE_NONE)
 800548e:	4938      	ldr	r1, [pc, #224]	@ (8005570 <HAL_RCCEx_PeriphCLKConfig+0x674>)
 8005490:	6a89      	ldr	r1, [r1, #40]	@ 0x28
 8005492:	f001 0103 	and.w	r1, r1, #3
 8005496:	2903      	cmp	r1, #3
 8005498:	f000 80e1 	beq.w	800565e <HAL_RCCEx_PeriphCLKConfig+0x762>
 800549c:	2102      	movs	r1, #2
 800549e:	f104 0008 	add.w	r0, r4, #8
 80054a2:	f7ff fc4b 	bl	8004d3c <RCCEx_PLL2_Config.part.0>
 80054a6:	4605      	mov	r5, r0
  if (((PeriphClkInit->PeriphClockSelection) & RCC_PERIPHCLK_LTDC) == RCC_PERIPHCLK_LTDC)
 80054a8:	e9d4 3200 	ldrd	r3, r2, [r4]
    if (ret == HAL_OK)
 80054ac:	2d00      	cmp	r5, #0
 80054ae:	f040 819c 	bne.w	80057ea <HAL_RCCEx_PeriphCLKConfig+0x8ee>
      __HAL_RCC_SDMMC_CONFIG(PeriphClkInit->SdmmcClockSelection);
 80054b2:	4f2f      	ldr	r7, [pc, #188]	@ (8005570 <HAL_RCCEx_PeriphCLKConfig+0x674>)
 80054b4:	6d20      	ldr	r0, [r4, #80]	@ 0x50
 80054b6:	6cf9      	ldr	r1, [r7, #76]	@ 0x4c
 80054b8:	f421 3180 	bic.w	r1, r1, #65536	@ 0x10000
 80054bc:	4301      	orrs	r1, r0
 80054be:	64f9      	str	r1, [r7, #76]	@ 0x4c
  if (((PeriphClkInit->PeriphClockSelection) & RCC_PERIPHCLK_LTDC) == RCC_PERIPHCLK_LTDC)
 80054c0:	0099      	lsls	r1, r3, #2
 80054c2:	d50e      	bpl.n	80054e2 <HAL_RCCEx_PeriphCLKConfig+0x5e6>
  if (__HAL_RCC_GET_PLL_OSCSOURCE() == RCC_PLLSOURCE_NONE)
 80054c4:	492a      	ldr	r1, [pc, #168]	@ (8005570 <HAL_RCCEx_PeriphCLKConfig+0x674>)
 80054c6:	6a89      	ldr	r1, [r1, #40]	@ 0x28
 80054c8:	f001 0103 	and.w	r1, r1, #3
 80054cc:	2903      	cmp	r1, #3
 80054ce:	d007      	beq.n	80054e0 <HAL_RCCEx_PeriphCLKConfig+0x5e4>
 80054d0:	2102      	movs	r1, #2
 80054d2:	f104 0028 	add.w	r0, r4, #40	@ 0x28
 80054d6:	f7ff fca1 	bl	8004e1c <RCCEx_PLL3_Config.part.0>
  if (((PeriphClkInit->PeriphClockSelection) & RCC_PERIPHCLK_RNG) == RCC_PERIPHCLK_RNG)
 80054da:	e9d4 3200 	ldrd	r3, r2, [r4]
    if (RCCEx_PLL3_Config(&(PeriphClkInit->PLL3), DIVIDER_R_UPDATE) != HAL_OK)
 80054de:	b100      	cbz	r0, 80054e2 <HAL_RCCEx_PeriphCLKConfig+0x5e6>
      status = HAL_ERROR;
 80054e0:	2601      	movs	r6, #1
  if (((PeriphClkInit->PeriphClockSelection) & RCC_PERIPHCLK_RNG) == RCC_PERIPHCLK_RNG)
 80054e2:	039f      	lsls	r7, r3, #14
 80054e4:	f100 80ab 	bmi.w	800563e <HAL_RCCEx_PeriphCLKConfig+0x742>
      status = HAL_ERROR;
 80054e8:	4635      	mov	r5, r6
  if (((PeriphClkInit->PeriphClockSelection) & RCC_PERIPHCLK_SWPMI1) == RCC_PERIPHCLK_SWPMI1)
 80054ea:	02d8      	lsls	r0, r3, #11
 80054ec:	d506      	bpl.n	80054fc <HAL_RCCEx_PeriphCLKConfig+0x600>
    __HAL_RCC_SWPMI1_CONFIG(PeriphClkInit->Swpmi1ClockSelection);
 80054ee:	4820      	ldr	r0, [pc, #128]	@ (8005570 <HAL_RCCEx_PeriphCLKConfig+0x674>)
 80054f0:	6f66      	ldr	r6, [r4, #116]	@ 0x74
 80054f2:	6d01      	ldr	r1, [r0, #80]	@ 0x50
 80054f4:	f021 4100 	bic.w	r1, r1, #2147483648	@ 0x80000000
 80054f8:	4331      	orrs	r1, r6
 80054fa:	6501      	str	r1, [r0, #80]	@ 0x50
  if (((PeriphClkInit->PeriphClockSelection) & RCC_PERIPHCLK_HRTIM1) == RCC_PERIPHCLK_HRTIM1)
 80054fc:	00d9      	lsls	r1, r3, #3
 80054fe:	d507      	bpl.n	8005510 <HAL_RCCEx_PeriphCLKConfig+0x614>
    __HAL_RCC_HRTIM1_CONFIG(PeriphClkInit->Hrtim1ClockSelection);
 8005500:	481b      	ldr	r0, [pc, #108]	@ (8005570 <HAL_RCCEx_PeriphCLKConfig+0x674>)
 8005502:	f8d4 60b8 	ldr.w	r6, [r4, #184]	@ 0xb8
 8005506:	6901      	ldr	r1, [r0, #16]
 8005508:	f421 4180 	bic.w	r1, r1, #16384	@ 0x4000
 800550c:	4331      	orrs	r1, r6
 800550e:	6101      	str	r1, [r0, #16]
  if (((PeriphClkInit->PeriphClockSelection) & RCC_PERIPHCLK_DFSDM1) == RCC_PERIPHCLK_DFSDM1)
 8005510:	029f      	lsls	r7, r3, #10
 8005512:	d506      	bpl.n	8005522 <HAL_RCCEx_PeriphCLKConfig+0x626>
    __HAL_RCC_DFSDM1_CONFIG(PeriphClkInit->Dfsdm1ClockSelection);
 8005514:	4816      	ldr	r0, [pc, #88]	@ (8005570 <HAL_RCCEx_PeriphCLKConfig+0x674>)
 8005516:	6ee6      	ldr	r6, [r4, #108]	@ 0x6c
 8005518:	6d01      	ldr	r1, [r0, #80]	@ 0x50
 800551a:	f021 7180 	bic.w	r1, r1, #16777216	@ 0x1000000
 800551e:	4331      	orrs	r1, r6
 8005520:	6501      	str	r1, [r0, #80]	@ 0x50
  if (((PeriphClkInit->PeriphClockSelection) & RCC_PERIPHCLK_TIM) == RCC_PERIPHCLK_TIM)
 8005522:	005e      	lsls	r6, r3, #1
 8005524:	d509      	bpl.n	800553a <HAL_RCCEx_PeriphCLKConfig+0x63e>
    __HAL_RCC_TIMCLKPRESCALER(PeriphClkInit->TIMPresSelection);
 8005526:	4912      	ldr	r1, [pc, #72]	@ (8005570 <HAL_RCCEx_PeriphCLKConfig+0x674>)
 8005528:	6908      	ldr	r0, [r1, #16]
 800552a:	f420 4000 	bic.w	r0, r0, #32768	@ 0x8000
 800552e:	6108      	str	r0, [r1, #16]
 8005530:	6908      	ldr	r0, [r1, #16]
 8005532:	f8d4 60bc 	ldr.w	r6, [r4, #188]	@ 0xbc
 8005536:	4330      	orrs	r0, r6
 8005538:	6108      	str	r0, [r1, #16]
  if (((PeriphClkInit->PeriphClockSelection) & RCC_PERIPHCLK_CKPER) == RCC_PERIPHCLK_CKPER)
 800553a:	2b00      	cmp	r3, #0
 800553c:	da06      	bge.n	800554c <HAL_RCCEx_PeriphCLKConfig+0x650>
    __HAL_RCC_CLKP_CONFIG(PeriphClkInit->CkperClockSelection);
 800553e:	480c      	ldr	r0, [pc, #48]	@ (8005570 <HAL_RCCEx_PeriphCLKConfig+0x674>)
 8005540:	6d66      	ldr	r6, [r4, #84]	@ 0x54
 8005542:	6cc1      	ldr	r1, [r0, #76]	@ 0x4c
 8005544:	f021 5140 	bic.w	r1, r1, #805306368	@ 0x30000000
 8005548:	4331      	orrs	r1, r6
 800554a:	64c1      	str	r1, [r0, #76]	@ 0x4c
  if (((PeriphClkInit->PeriphClockSelection) & RCC_PERIPHCLK_CEC) == RCC_PERIPHCLK_CEC)
 800554c:	0218      	lsls	r0, r3, #8
 800554e:	d507      	bpl.n	8005560 <HAL_RCCEx_PeriphCLKConfig+0x664>
    __HAL_RCC_CEC_CONFIG(PeriphClkInit->CecClockSelection);
 8005550:	4907      	ldr	r1, [pc, #28]	@ (8005570 <HAL_RCCEx_PeriphCLKConfig+0x674>)
 8005552:	f8d4 008c 	ldr.w	r0, [r4, #140]	@ 0x8c
 8005556:	6d4b      	ldr	r3, [r1, #84]	@ 0x54
 8005558:	f423 0340 	bic.w	r3, r3, #12582912	@ 0xc00000
 800555c:	4303      	orrs	r3, r0
 800555e:	654b      	str	r3, [r1, #84]	@ 0x54
  if (((PeriphClkInit->PeriphClockSelection) & RCC_PERIPHCLK_PLL2_DIVP) == RCC_PERIPHCLK_PLL2_DIVP)
 8005560:	07d1      	lsls	r1, r2, #31
 8005562:	d511      	bpl.n	8005588 <HAL_RCCEx_PeriphCLKConfig+0x68c>
  if (__HAL_RCC_GET_PLL_OSCSOURCE() == RCC_PLLSOURCE_NONE)
 8005564:	4b02      	ldr	r3, [pc, #8]	@ (8005570 <HAL_RCCEx_PeriphCLKConfig+0x674>)
 8005566:	6a9b      	ldr	r3, [r3, #40]	@ 0x28
 8005568:	f003 0303 	and.w	r3, r3, #3
 800556c:	2b03      	cmp	r3, #3
 800556e:	e001      	b.n	8005574 <HAL_RCCEx_PeriphCLKConfig+0x678>
 8005570:	58024400 	.word	0x58024400
 8005574:	f000 835c 	beq.w	8005c30 <HAL_RCCEx_PeriphCLKConfig+0xd34>
 8005578:	2100      	movs	r1, #0
 800557a:	f104 0008 	add.w	r0, r4, #8
 800557e:	f7ff fbdd 	bl	8004d3c <RCCEx_PLL2_Config.part.0>
  if (((PeriphClkInit->PeriphClockSelection) & RCC_PERIPHCLK_PLL2_DIVQ) == RCC_PERIPHCLK_PLL2_DIVQ)
 8005582:	6862      	ldr	r2, [r4, #4]
    if (ret == HAL_OK)
 8005584:	b100      	cbz	r0, 8005588 <HAL_RCCEx_PeriphCLKConfig+0x68c>
  if (((PeriphClkInit->PeriphClockSelection) & RCC_PERIPHCLK_PLL2_DIVQ) == RCC_PERIPHCLK_PLL2_DIVQ)
 8005586:	4605      	mov	r5, r0
 8005588:	0793      	lsls	r3, r2, #30
 800558a:	d50e      	bpl.n	80055aa <HAL_RCCEx_PeriphCLKConfig+0x6ae>
  if (__HAL_RCC_GET_PLL_OSCSOURCE() == RCC_PLLSOURCE_NONE)
 800558c:	4baf      	ldr	r3, [pc, #700]	@ (800584c <HAL_RCCEx_PeriphCLKConfig+0x950>)
 800558e:	6a9b      	ldr	r3, [r3, #40]	@ 0x28
 8005590:	f003 0303 	and.w	r3, r3, #3
 8005594:	2b03      	cmp	r3, #3
 8005596:	f000 834d 	beq.w	8005c34 <HAL_RCCEx_PeriphCLKConfig+0xd38>
 800559a:	2101      	movs	r1, #1
 800559c:	f104 0008 	add.w	r0, r4, #8
 80055a0:	f7ff fbcc 	bl	8004d3c <RCCEx_PLL2_Config.part.0>
  if (((PeriphClkInit->PeriphClockSelection) & RCC_PERIPHCLK_PLL2_DIVR) == RCC_PERIPHCLK_PLL2_DIVR)
 80055a4:	6862      	ldr	r2, [r4, #4]
    if (ret == HAL_OK)
 80055a6:	b100      	cbz	r0, 80055aa <HAL_RCCEx_PeriphCLKConfig+0x6ae>
  if (((PeriphClkInit->PeriphClockSelection) & RCC_PERIPHCLK_PLL2_DIVR) == RCC_PERIPHCLK_PLL2_DIVR)
 80055a8:	4605      	mov	r5, r0
 80055aa:	0757      	lsls	r7, r2, #29
 80055ac:	d50e      	bpl.n	80055cc <HAL_RCCEx_PeriphCLKConfig+0x6d0>
  if (__HAL_RCC_GET_PLL_OSCSOURCE() == RCC_PLLSOURCE_NONE)
 80055ae:	4ba7      	ldr	r3, [pc, #668]	@ (800584c <HAL_RCCEx_PeriphCLKConfig+0x950>)
 80055b0:	6a9b      	ldr	r3, [r3, #40]	@ 0x28
 80055b2:	f003 0303 	and.w	r3, r3, #3
 80055b6:	2b03      	cmp	r3, #3
 80055b8:	f000 833e 	beq.w	8005c38 <HAL_RCCEx_PeriphCLKConfig+0xd3c>
 80055bc:	2102      	movs	r1, #2
 80055be:	f104 0008 	add.w	r0, r4, #8
 80055c2:	f7ff fbbb 	bl	8004d3c <RCCEx_PLL2_Config.part.0>
  if (((PeriphClkInit->PeriphClockSelection) & RCC_PERIPHCLK_PLL3_DIVP) == RCC_PERIPHCLK_PLL3_DIVP)
 80055c6:	6862      	ldr	r2, [r4, #4]
    if (ret == HAL_OK)
 80055c8:	b100      	cbz	r0, 80055cc <HAL_RCCEx_PeriphCLKConfig+0x6d0>
  if (((PeriphClkInit->PeriphClockSelection) & RCC_PERIPHCLK_PLL3_DIVP) == RCC_PERIPHCLK_PLL3_DIVP)
 80055ca:	4605      	mov	r5, r0
 80055cc:	0716      	lsls	r6, r2, #28
 80055ce:	d50e      	bpl.n	80055ee <HAL_RCCEx_PeriphCLKConfig+0x6f2>
  if (__HAL_RCC_GET_PLL_OSCSOURCE() == RCC_PLLSOURCE_NONE)
 80055d0:	4b9e      	ldr	r3, [pc, #632]	@ (800584c <HAL_RCCEx_PeriphCLKConfig+0x950>)
 80055d2:	6a9b      	ldr	r3, [r3, #40]	@ 0x28
 80055d4:	f003 0303 	and.w	r3, r3, #3
 80055d8:	2b03      	cmp	r3, #3
 80055da:	f000 8323 	beq.w	8005c24 <HAL_RCCEx_PeriphCLKConfig+0xd28>
 80055de:	2100      	movs	r1, #0
 80055e0:	f104 0028 	add.w	r0, r4, #40	@ 0x28
 80055e4:	f7ff fc1a 	bl	8004e1c <RCCEx_PLL3_Config.part.0>
  if (((PeriphClkInit->PeriphClockSelection) & RCC_PERIPHCLK_PLL3_DIVQ) == RCC_PERIPHCLK_PLL3_DIVQ)
 80055e8:	6862      	ldr	r2, [r4, #4]
    if (ret == HAL_OK)
 80055ea:	b100      	cbz	r0, 80055ee <HAL_RCCEx_PeriphCLKConfig+0x6f2>
  if (((PeriphClkInit->PeriphClockSelection) & RCC_PERIPHCLK_PLL3_DIVQ) == RCC_PERIPHCLK_PLL3_DIVQ)
 80055ec:	4605      	mov	r5, r0
 80055ee:	06d0      	lsls	r0, r2, #27
 80055f0:	d50f      	bpl.n	8005612 <HAL_RCCEx_PeriphCLKConfig+0x716>
  if (__HAL_RCC_GET_PLL_OSCSOURCE() == RCC_PLLSOURCE_NONE)
 80055f2:	4b96      	ldr	r3, [pc, #600]	@ (800584c <HAL_RCCEx_PeriphCLKConfig+0x950>)
 80055f4:	6a9b      	ldr	r3, [r3, #40]	@ 0x28
 80055f6:	f003 0303 	and.w	r3, r3, #3
 80055fa:	2b03      	cmp	r3, #3
 80055fc:	f000 8314 	beq.w	8005c28 <HAL_RCCEx_PeriphCLKConfig+0xd2c>
 8005600:	2101      	movs	r1, #1
 8005602:	f104 0028 	add.w	r0, r4, #40	@ 0x28
 8005606:	f7ff fc09 	bl	8004e1c <RCCEx_PLL3_Config.part.0>
    if (ret == HAL_OK)
 800560a:	2800      	cmp	r0, #0
 800560c:	f040 8359 	bne.w	8005cc2 <HAL_RCCEx_PeriphCLKConfig+0xdc6>
  if (((PeriphClkInit->PeriphClockSelection) & RCC_PERIPHCLK_PLL3_DIVR) == RCC_PERIPHCLK_PLL3_DIVR)
 8005610:	6862      	ldr	r2, [r4, #4]
 8005612:	0693      	lsls	r3, r2, #26
 8005614:	d50e      	bpl.n	8005634 <HAL_RCCEx_PeriphCLKConfig+0x738>
  if (__HAL_RCC_GET_PLL_OSCSOURCE() == RCC_PLLSOURCE_NONE)
 8005616:	4b8d      	ldr	r3, [pc, #564]	@ (800584c <HAL_RCCEx_PeriphCLKConfig+0x950>)
 8005618:	6a9b      	ldr	r3, [r3, #40]	@ 0x28
 800561a:	f003 0303 	and.w	r3, r3, #3
 800561e:	2b03      	cmp	r3, #3
 8005620:	f000 82b7 	beq.w	8005b92 <HAL_RCCEx_PeriphCLKConfig+0xc96>
 8005624:	2102      	movs	r1, #2
 8005626:	f104 0028 	add.w	r0, r4, #40	@ 0x28
 800562a:	f7ff fbf7 	bl	8004e1c <RCCEx_PLL3_Config.part.0>
    if (ret == HAL_OK)
 800562e:	2800      	cmp	r0, #0
 8005630:	f040 82af 	bne.w	8005b92 <HAL_RCCEx_PeriphCLKConfig+0xc96>
  if (status == HAL_OK)
 8005634:	1e28      	subs	r0, r5, #0
 8005636:	bf18      	it	ne
 8005638:	2001      	movne	r0, #1
}
 800563a:	e8bd 83f8 	ldmia.w	sp!, {r3, r4, r5, r6, r7, r8, r9, pc}
    switch (PeriphClkInit->RngClockSelection)
 800563e:	f8d4 1080 	ldr.w	r1, [r4, #128]	@ 0x80
 8005642:	f5b1 7f80 	cmp.w	r1, #256	@ 0x100
 8005646:	f000 80d2 	beq.w	80057ee <HAL_RCCEx_PeriphCLKConfig+0x8f2>
 800564a:	f240 8110 	bls.w	800586e <HAL_RCCEx_PeriphCLKConfig+0x972>
 800564e:	f421 7080 	bic.w	r0, r1, #256	@ 0x100
 8005652:	f5b0 7f00 	cmp.w	r0, #512	@ 0x200
 8005656:	f000 80cf 	beq.w	80057f8 <HAL_RCCEx_PeriphCLKConfig+0x8fc>
 800565a:	2501      	movs	r5, #1
 800565c:	e745      	b.n	80054ea <HAL_RCCEx_PeriphCLKConfig+0x5ee>
      status = ret;
 800565e:	2601      	movs	r6, #1
        ret = HAL_ERROR;
 8005660:	4635      	mov	r5, r6
 8005662:	e72d      	b.n	80054c0 <HAL_RCCEx_PeriphCLKConfig+0x5c4>
        __HAL_RCC_PLLCLKOUT_ENABLE(RCC_PLL1_DIVQ);
 8005664:	4879      	ldr	r0, [pc, #484]	@ (800584c <HAL_RCCEx_PeriphCLKConfig+0x950>)
 8005666:	6ac1      	ldr	r1, [r0, #44]	@ 0x2c
 8005668:	f441 3100 	orr.w	r1, r1, #131072	@ 0x20000
 800566c:	62c1      	str	r1, [r0, #44]	@ 0x2c
    if (ret == HAL_OK)
 800566e:	2d00      	cmp	r5, #0
 8005670:	f040 80ce 	bne.w	8005810 <HAL_RCCEx_PeriphCLKConfig+0x914>
      __HAL_RCC_FDCAN_CONFIG(PeriphClkInit->FdcanClockSelection);
 8005674:	4f75      	ldr	r7, [pc, #468]	@ (800584c <HAL_RCCEx_PeriphCLKConfig+0x950>)
 8005676:	6f20      	ldr	r0, [r4, #112]	@ 0x70
 8005678:	6d39      	ldr	r1, [r7, #80]	@ 0x50
 800567a:	f021 5140 	bic.w	r1, r1, #805306368	@ 0x30000000
 800567e:	4301      	orrs	r1, r0
 8005680:	6539      	str	r1, [r7, #80]	@ 0x50
 8005682:	e598      	b.n	80051b6 <HAL_RCCEx_PeriphCLKConfig+0x2ba>
      status = ret;
 8005684:	2601      	movs	r6, #1
        ret = HAL_ERROR;
 8005686:	4635      	mov	r5, r6
 8005688:	e6e5      	b.n	8005456 <HAL_RCCEx_PeriphCLKConfig+0x55a>
  if (__HAL_RCC_GET_PLL_OSCSOURCE() == RCC_PLLSOURCE_NONE)
 800568a:	4970      	ldr	r1, [pc, #448]	@ (800584c <HAL_RCCEx_PeriphCLKConfig+0x950>)
 800568c:	6a89      	ldr	r1, [r1, #40]	@ 0x28
 800568e:	f001 0103 	and.w	r1, r1, #3
 8005692:	2903      	cmp	r1, #3
 8005694:	f43f adda 	beq.w	800524c <HAL_RCCEx_PeriphCLKConfig+0x350>
 8005698:	2101      	movs	r1, #1
 800569a:	f104 0008 	add.w	r0, r4, #8
 800569e:	f7ff fb4d 	bl	8004d3c <RCCEx_PLL2_Config.part.0>
 80056a2:	4605      	mov	r5, r0
  if (((PeriphClkInit->PeriphClockSelection) & RCC_PERIPHCLK_USART234578) == RCC_PERIPHCLK_USART234578)
 80056a4:	e9d4 3200 	ldrd	r3, r2, [r4]
    if (ret == HAL_OK)
 80056a8:	2d00      	cmp	r5, #0
 80056aa:	f040 80d5 	bne.w	8005858 <HAL_RCCEx_PeriphCLKConfig+0x95c>
      __HAL_RCC_USART16_CONFIG(PeriphClkInit->Usart16ClockSelection);
 80056ae:	4f67      	ldr	r7, [pc, #412]	@ (800584c <HAL_RCCEx_PeriphCLKConfig+0x950>)
 80056b0:	6fe0      	ldr	r0, [r4, #124]	@ 0x7c
 80056b2:	6d79      	ldr	r1, [r7, #84]	@ 0x54
 80056b4:	f021 0138 	bic.w	r1, r1, #56	@ 0x38
 80056b8:	4301      	orrs	r1, r0
 80056ba:	6579      	str	r1, [r7, #84]	@ 0x54
 80056bc:	e5c8      	b.n	8005250 <HAL_RCCEx_PeriphCLKConfig+0x354>
        __HAL_RCC_PLLCLKOUT_ENABLE(RCC_PLL1_DIVQ);
 80056be:	4863      	ldr	r0, [pc, #396]	@ (800584c <HAL_RCCEx_PeriphCLKConfig+0x950>)
 80056c0:	6ac1      	ldr	r1, [r0, #44]	@ 0x2c
 80056c2:	f441 3100 	orr.w	r1, r1, #131072	@ 0x20000
 80056c6:	62c1      	str	r1, [r0, #44]	@ 0x2c
    if (ret == HAL_OK)
 80056c8:	2d00      	cmp	r5, #0
 80056ca:	f040 809f 	bne.w	800580c <HAL_RCCEx_PeriphCLKConfig+0x910>
      __HAL_RCC_USB_CONFIG(PeriphClkInit->UsbClockSelection);
 80056ce:	4f5f      	ldr	r7, [pc, #380]	@ (800584c <HAL_RCCEx_PeriphCLKConfig+0x950>)
 80056d0:	f8d4 0088 	ldr.w	r0, [r4, #136]	@ 0x88
 80056d4:	6d79      	ldr	r1, [r7, #84]	@ 0x54
 80056d6:	f421 1140 	bic.w	r1, r1, #3145728	@ 0x300000
 80056da:	4301      	orrs	r1, r0
 80056dc:	6579      	str	r1, [r7, #84]	@ 0x54
 80056de:	e6cc      	b.n	800547a <HAL_RCCEx_PeriphCLKConfig+0x57e>
    SET_BIT(PWR->CR1, PWR_CR1_DBP);
 80056e0:	4f5b      	ldr	r7, [pc, #364]	@ (8005850 <HAL_RCCEx_PeriphCLKConfig+0x954>)
 80056e2:	683b      	ldr	r3, [r7, #0]
 80056e4:	f443 7380 	orr.w	r3, r3, #256	@ 0x100
 80056e8:	603b      	str	r3, [r7, #0]
    tickstart = HAL_GetTick();
 80056ea:	f7fc f8ed 	bl	80018c8 <HAL_GetTick>
 80056ee:	4680      	mov	r8, r0
    while ((PWR->CR1 & PWR_CR1_DBP) == 0U)
 80056f0:	e006      	b.n	8005700 <HAL_RCCEx_PeriphCLKConfig+0x804>
      if ((HAL_GetTick() - tickstart) > RCC_DBP_TIMEOUT_VALUE)
 80056f2:	f7fc f8e9 	bl	80018c8 <HAL_GetTick>
 80056f6:	eba0 0008 	sub.w	r0, r0, r8
 80056fa:	2864      	cmp	r0, #100	@ 0x64
 80056fc:	f200 82db 	bhi.w	8005cb6 <HAL_RCCEx_PeriphCLKConfig+0xdba>
    while ((PWR->CR1 & PWR_CR1_DBP) == 0U)
 8005700:	683b      	ldr	r3, [r7, #0]
 8005702:	05da      	lsls	r2, r3, #23
 8005704:	d5f5      	bpl.n	80056f2 <HAL_RCCEx_PeriphCLKConfig+0x7f6>
    if (ret == HAL_OK)
 8005706:	2d00      	cmp	r5, #0
 8005708:	f040 82d6 	bne.w	8005cb8 <HAL_RCCEx_PeriphCLKConfig+0xdbc>
      if ((RCC->BDCR & RCC_BDCR_RTCSEL) != (PeriphClkInit->RTCClockSelection & RCC_BDCR_RTCSEL))
 800570c:	4a4f      	ldr	r2, [pc, #316]	@ (800584c <HAL_RCCEx_PeriphCLKConfig+0x950>)
 800570e:	f8d4 30b4 	ldr.w	r3, [r4, #180]	@ 0xb4
 8005712:	6f11      	ldr	r1, [r2, #112]	@ 0x70
 8005714:	4059      	eors	r1, r3
 8005716:	f411 7f40 	tst.w	r1, #768	@ 0x300
 800571a:	d00b      	beq.n	8005734 <HAL_RCCEx_PeriphCLKConfig+0x838>
        tmpreg = (RCC->BDCR & ~(RCC_BDCR_RTCSEL));
 800571c:	6f11      	ldr	r1, [r2, #112]	@ 0x70
        __HAL_RCC_BACKUPRESET_FORCE();
 800571e:	6f10      	ldr	r0, [r2, #112]	@ 0x70
        tmpreg = (RCC->BDCR & ~(RCC_BDCR_RTCSEL));
 8005720:	f421 7140 	bic.w	r1, r1, #768	@ 0x300
        __HAL_RCC_BACKUPRESET_FORCE();
 8005724:	f440 3080 	orr.w	r0, r0, #65536	@ 0x10000
 8005728:	6710      	str	r0, [r2, #112]	@ 0x70
        __HAL_RCC_BACKUPRESET_RELEASE();
 800572a:	6f10      	ldr	r0, [r2, #112]	@ 0x70
 800572c:	f420 3080 	bic.w	r0, r0, #65536	@ 0x10000
 8005730:	6710      	str	r0, [r2, #112]	@ 0x70
        RCC->BDCR = tmpreg;
 8005732:	6711      	str	r1, [r2, #112]	@ 0x70
      if (PeriphClkInit->RTCClockSelection == RCC_RTCCLKSOURCE_LSE)
 8005734:	f5b3 7f80 	cmp.w	r3, #256	@ 0x100
 8005738:	f000 82fb 	beq.w	8005d32 <HAL_RCCEx_PeriphCLKConfig+0xe36>
        __HAL_RCC_RTC_CONFIG(PeriphClkInit->RTCClockSelection);
 800573c:	f403 7240 	and.w	r2, r3, #768	@ 0x300
 8005740:	f5b2 7f40 	cmp.w	r2, #768	@ 0x300
 8005744:	f000 8309 	beq.w	8005d5a <HAL_RCCEx_PeriphCLKConfig+0xe5e>
 8005748:	4940      	ldr	r1, [pc, #256]	@ (800584c <HAL_RCCEx_PeriphCLKConfig+0x950>)
 800574a:	690a      	ldr	r2, [r1, #16]
 800574c:	f422 527c 	bic.w	r2, r2, #16128	@ 0x3f00
 8005750:	610a      	str	r2, [r1, #16]
 8005752:	483e      	ldr	r0, [pc, #248]	@ (800584c <HAL_RCCEx_PeriphCLKConfig+0x950>)
 8005754:	f3c3 010b 	ubfx	r1, r3, #0, #12
 8005758:	6f07      	ldr	r7, [r0, #112]	@ 0x70
 800575a:	4339      	orrs	r1, r7
  if (((PeriphClkInit->PeriphClockSelection) & RCC_PERIPHCLK_USART16) == RCC_PERIPHCLK_USART16)
 800575c:	e9d4 3200 	ldrd	r3, r2, [r4]
        __HAL_RCC_RTC_CONFIG(PeriphClkInit->RTCClockSelection);
 8005760:	6701      	str	r1, [r0, #112]	@ 0x70
 8005762:	e543      	b.n	80051ec <HAL_RCCEx_PeriphCLKConfig+0x2f0>
        __HAL_RCC_PLLCLKOUT_ENABLE(RCC_PLL1_DIVQ);
 8005764:	4839      	ldr	r0, [pc, #228]	@ (800584c <HAL_RCCEx_PeriphCLKConfig+0x950>)
 8005766:	6ac1      	ldr	r1, [r0, #44]	@ 0x2c
 8005768:	f441 3100 	orr.w	r1, r1, #131072	@ 0x20000
 800576c:	62c1      	str	r1, [r0, #44]	@ 0x2c
        ret = HAL_ERROR;
 800576e:	4635      	mov	r5, r6
    if (ret == HAL_OK)
 8005770:	2d00      	cmp	r5, #0
 8005772:	f040 8177 	bne.w	8005a64 <HAL_RCCEx_PeriphCLKConfig+0xb68>
      __HAL_RCC_SAI1_CONFIG(PeriphClkInit->Sai1ClockSelection);
 8005776:	4f35      	ldr	r7, [pc, #212]	@ (800584c <HAL_RCCEx_PeriphCLKConfig+0x950>)
 8005778:	6da0      	ldr	r0, [r4, #88]	@ 0x58
 800577a:	6d39      	ldr	r1, [r7, #80]	@ 0x50
 800577c:	f021 0107 	bic.w	r1, r1, #7
 8005780:	4301      	orrs	r1, r0
 8005782:	6539      	str	r1, [r7, #80]	@ 0x50
 8005784:	f7ff bbf6 	b.w	8004f74 <HAL_RCCEx_PeriphCLKConfig+0x78>
  if (__HAL_RCC_GET_PLL_OSCSOURCE() == RCC_PLLSOURCE_NONE)
 8005788:	4930      	ldr	r1, [pc, #192]	@ (800584c <HAL_RCCEx_PeriphCLKConfig+0x950>)
 800578a:	6a89      	ldr	r1, [r1, #40]	@ 0x28
 800578c:	f001 0103 	and.w	r1, r1, #3
 8005790:	2903      	cmp	r1, #3
 8005792:	f000 82ba 	beq.w	8005d0a <HAL_RCCEx_PeriphCLKConfig+0xe0e>
 8005796:	2102      	movs	r1, #2
 8005798:	f104 0028 	add.w	r0, r4, #40	@ 0x28
 800579c:	f7ff fb3e 	bl	8004e1c <RCCEx_PLL3_Config.part.0>
      if (RCCEx_PLL3_Config(&(PeriphClkInit->PLL3), DIVIDER_R_UPDATE) != HAL_OK)
 80057a0:	2800      	cmp	r0, #0
 80057a2:	f000 82b5 	beq.w	8005d10 <HAL_RCCEx_PeriphCLKConfig+0xe14>
    __HAL_RCC_I2C123_CONFIG(PeriphClkInit->I2c123ClockSelection);
 80057a6:	f8d4 0084 	ldr.w	r0, [r4, #132]	@ 0x84
        status = HAL_ERROR;
 80057aa:	2601      	movs	r6, #1
  if (((PeriphClkInit->PeriphClockSelection) & RCC_PERIPHCLK_I2C4) == RCC_PERIPHCLK_I2C4)
 80057ac:	e9d4 3200 	ldrd	r3, r2, [r4]
 80057b0:	e616      	b.n	80053e0 <HAL_RCCEx_PeriphCLKConfig+0x4e4>
  if (__HAL_RCC_GET_PLL_OSCSOURCE() == RCC_PLLSOURCE_NONE)
 80057b2:	4926      	ldr	r1, [pc, #152]	@ (800584c <HAL_RCCEx_PeriphCLKConfig+0x950>)
 80057b4:	6a89      	ldr	r1, [r1, #40]	@ 0x28
 80057b6:	f001 0103 	and.w	r1, r1, #3
 80057ba:	2903      	cmp	r1, #3
 80057bc:	f000 82a2 	beq.w	8005d04 <HAL_RCCEx_PeriphCLKConfig+0xe08>
 80057c0:	2102      	movs	r1, #2
 80057c2:	f104 0028 	add.w	r0, r4, #40	@ 0x28
 80057c6:	f7ff fb29 	bl	8004e1c <RCCEx_PLL3_Config.part.0>
      if (RCCEx_PLL3_Config(&(PeriphClkInit->PLL3), DIVIDER_R_UPDATE) != HAL_OK)
 80057ca:	2800      	cmp	r0, #0
 80057cc:	f040 82a6 	bne.w	8005d1c <HAL_RCCEx_PeriphCLKConfig+0xe20>
    __HAL_RCC_I2C4_CONFIG(PeriphClkInit->I2c4ClockSelection);
 80057d0:	f8d4 0098 	ldr.w	r0, [r4, #152]	@ 0x98
  if (((PeriphClkInit->PeriphClockSelection) & RCC_PERIPHCLK_ADC) == RCC_PERIPHCLK_ADC)
 80057d4:	e9d4 3200 	ldrd	r3, r2, [r4]
 80057d8:	e610      	b.n	80053fc <HAL_RCCEx_PeriphCLKConfig+0x500>
        __HAL_RCC_PLLCLKOUT_ENABLE(RCC_PLL1_DIVQ);
 80057da:	481c      	ldr	r0, [pc, #112]	@ (800584c <HAL_RCCEx_PeriphCLKConfig+0x950>)
 80057dc:	6ac1      	ldr	r1, [r0, #44]	@ 0x2c
 80057de:	f441 3100 	orr.w	r1, r1, #131072	@ 0x20000
 80057e2:	62c1      	str	r1, [r0, #44]	@ 0x2c
    if (ret == HAL_OK)
 80057e4:	2d00      	cmp	r5, #0
 80057e6:	f43f ae64 	beq.w	80054b2 <HAL_RCCEx_PeriphCLKConfig+0x5b6>
      status = ret;
 80057ea:	462e      	mov	r6, r5
 80057ec:	e668      	b.n	80054c0 <HAL_RCCEx_PeriphCLKConfig+0x5c4>
        __HAL_RCC_PLLCLKOUT_ENABLE(RCC_PLL1_DIVQ);
 80057ee:	4f17      	ldr	r7, [pc, #92]	@ (800584c <HAL_RCCEx_PeriphCLKConfig+0x950>)
 80057f0:	6af8      	ldr	r0, [r7, #44]	@ 0x2c
 80057f2:	f440 3000 	orr.w	r0, r0, #131072	@ 0x20000
 80057f6:	62f8      	str	r0, [r7, #44]	@ 0x2c
    if (ret == HAL_OK)
 80057f8:	2d00      	cmp	r5, #0
 80057fa:	f47f ae76 	bne.w	80054ea <HAL_RCCEx_PeriphCLKConfig+0x5ee>
      __HAL_RCC_RNG_CONFIG(PeriphClkInit->RngClockSelection);
 80057fe:	4d13      	ldr	r5, [pc, #76]	@ (800584c <HAL_RCCEx_PeriphCLKConfig+0x950>)
 8005800:	6d68      	ldr	r0, [r5, #84]	@ 0x54
 8005802:	f420 7040 	bic.w	r0, r0, #768	@ 0x300
 8005806:	4301      	orrs	r1, r0
 8005808:	6569      	str	r1, [r5, #84]	@ 0x54
 800580a:	e66d      	b.n	80054e8 <HAL_RCCEx_PeriphCLKConfig+0x5ec>
      status = ret;
 800580c:	462e      	mov	r6, r5
 800580e:	e634      	b.n	800547a <HAL_RCCEx_PeriphCLKConfig+0x57e>
      status = ret;
 8005810:	462e      	mov	r6, r5
 8005812:	e4d0      	b.n	80051b6 <HAL_RCCEx_PeriphCLKConfig+0x2ba>
      status = ret;
 8005814:	462e      	mov	r6, r5
 8005816:	e445      	b.n	80050a4 <HAL_RCCEx_PeriphCLKConfig+0x1a8>
      __HAL_RCC_FMC_CONFIG(PeriphClkInit->FmcClockSelection);
 8005818:	4f0c      	ldr	r7, [pc, #48]	@ (800584c <HAL_RCCEx_PeriphCLKConfig+0x950>)
 800581a:	6ca0      	ldr	r0, [r4, #72]	@ 0x48
 800581c:	6cf9      	ldr	r1, [r7, #76]	@ 0x4c
 800581e:	f021 0103 	bic.w	r1, r1, #3
 8005822:	4301      	orrs	r1, r0
 8005824:	64f9      	str	r1, [r7, #76]	@ 0x4c
 8005826:	e4de      	b.n	80051e6 <HAL_RCCEx_PeriphCLKConfig+0x2ea>
      __HAL_RCC_USART234578_CONFIG(PeriphClkInit->Usart234578ClockSelection);
 8005828:	4f08      	ldr	r7, [pc, #32]	@ (800584c <HAL_RCCEx_PeriphCLKConfig+0x950>)
 800582a:	6fa0      	ldr	r0, [r4, #120]	@ 0x78
 800582c:	6d79      	ldr	r1, [r7, #84]	@ 0x54
 800582e:	f021 0107 	bic.w	r1, r1, #7
 8005832:	4301      	orrs	r1, r0
 8005834:	6579      	str	r1, [r7, #84]	@ 0x54
 8005836:	e52c      	b.n	8005292 <HAL_RCCEx_PeriphCLKConfig+0x396>
      status = ret;
 8005838:	462e      	mov	r6, r5
 800583a:	e577      	b.n	800532c <HAL_RCCEx_PeriphCLKConfig+0x430>
      status = ret;
 800583c:	462e      	mov	r6, r5
 800583e:	e4aa      	b.n	8005196 <HAL_RCCEx_PeriphCLKConfig+0x29a>
      status = ret;
 8005840:	462e      	mov	r6, r5
 8005842:	e59c      	b.n	800537e <HAL_RCCEx_PeriphCLKConfig+0x482>
      status = ret;
 8005844:	462e      	mov	r6, r5
 8005846:	e606      	b.n	8005456 <HAL_RCCEx_PeriphCLKConfig+0x55a>
      status = ret;
 8005848:	462e      	mov	r6, r5
 800584a:	e5c1      	b.n	80053d0 <HAL_RCCEx_PeriphCLKConfig+0x4d4>
 800584c:	58024400 	.word	0x58024400
 8005850:	58024800 	.word	0x58024800
      status = ret;
 8005854:	462e      	mov	r6, r5
 8005856:	e475      	b.n	8005144 <HAL_RCCEx_PeriphCLKConfig+0x248>
      status = ret;
 8005858:	462e      	mov	r6, r5
 800585a:	e4f9      	b.n	8005250 <HAL_RCCEx_PeriphCLKConfig+0x354>
      __HAL_RCC_LPUART1_CONFIG(PeriphClkInit->Lpuart1ClockSelection);
 800585c:	4fc2      	ldr	r7, [pc, #776]	@ (8005b68 <HAL_RCCEx_PeriphCLKConfig+0xc6c>)
 800585e:	f8d4 0094 	ldr.w	r0, [r4, #148]	@ 0x94
 8005862:	6db9      	ldr	r1, [r7, #88]	@ 0x58
 8005864:	f021 0107 	bic.w	r1, r1, #7
 8005868:	4301      	orrs	r1, r0
 800586a:	65b9      	str	r1, [r7, #88]	@ 0x58
 800586c:	e535      	b.n	80052da <HAL_RCCEx_PeriphCLKConfig+0x3de>
    switch (PeriphClkInit->RngClockSelection)
 800586e:	2900      	cmp	r1, #0
 8005870:	f47f aef3 	bne.w	800565a <HAL_RCCEx_PeriphCLKConfig+0x75e>
 8005874:	e7c0      	b.n	80057f8 <HAL_RCCEx_PeriphCLKConfig+0x8fc>
  if (__HAL_RCC_GET_PLL_OSCSOURCE() == RCC_PLLSOURCE_NONE)
 8005876:	49bc      	ldr	r1, [pc, #752]	@ (8005b68 <HAL_RCCEx_PeriphCLKConfig+0xc6c>)
 8005878:	6a89      	ldr	r1, [r1, #40]	@ 0x28
 800587a:	f001 0103 	and.w	r1, r1, #3
 800587e:	2903      	cmp	r1, #3
 8005880:	f000 8194 	beq.w	8005bac <HAL_RCCEx_PeriphCLKConfig+0xcb0>
 8005884:	2102      	movs	r1, #2
 8005886:	f104 0028 	add.w	r0, r4, #40	@ 0x28
 800588a:	f7ff fac7 	bl	8004e1c <RCCEx_PLL3_Config.part.0>
 800588e:	4605      	mov	r5, r0
  if (((PeriphClkInit->PeriphClockSelection) & RCC_PERIPHCLK_LPTIM2) == RCC_PERIPHCLK_LPTIM2)
 8005890:	e9d4 3200 	ldrd	r3, r2, [r4]
    if (ret == HAL_OK)
 8005894:	2d00      	cmp	r5, #0
 8005896:	d1cf      	bne.n	8005838 <HAL_RCCEx_PeriphCLKConfig+0x93c>
 8005898:	e540      	b.n	800531c <HAL_RCCEx_PeriphCLKConfig+0x420>
  if (__HAL_RCC_GET_PLL_OSCSOURCE() == RCC_PLLSOURCE_NONE)
 800589a:	49b3      	ldr	r1, [pc, #716]	@ (8005b68 <HAL_RCCEx_PeriphCLKConfig+0xc6c>)
 800589c:	6a89      	ldr	r1, [r1, #40]	@ 0x28
 800589e:	f001 0103 	and.w	r1, r1, #3
 80058a2:	2903      	cmp	r1, #3
 80058a4:	f000 81ba 	beq.w	8005c1c <HAL_RCCEx_PeriphCLKConfig+0xd20>
 80058a8:	2102      	movs	r1, #2
 80058aa:	f104 0028 	add.w	r0, r4, #40	@ 0x28
 80058ae:	f7ff fab5 	bl	8004e1c <RCCEx_PLL3_Config.part.0>
 80058b2:	4605      	mov	r5, r0
  if (((PeriphClkInit->PeriphClockSelection) & RCC_PERIPHCLK_LPTIM345) == RCC_PERIPHCLK_LPTIM345)
 80058b4:	e9d4 3200 	ldrd	r3, r2, [r4]
    if (ret == HAL_OK)
 80058b8:	2d00      	cmp	r5, #0
 80058ba:	d1c1      	bne.n	8005840 <HAL_RCCEx_PeriphCLKConfig+0x944>
 80058bc:	e557      	b.n	800536e <HAL_RCCEx_PeriphCLKConfig+0x472>
  if (__HAL_RCC_GET_PLL_OSCSOURCE() == RCC_PLLSOURCE_NONE)
 80058be:	49aa      	ldr	r1, [pc, #680]	@ (8005b68 <HAL_RCCEx_PeriphCLKConfig+0xc6c>)
 80058c0:	6a89      	ldr	r1, [r1, #40]	@ 0x28
 80058c2:	f001 0103 	and.w	r1, r1, #3
 80058c6:	2903      	cmp	r1, #3
 80058c8:	f000 818c 	beq.w	8005be4 <HAL_RCCEx_PeriphCLKConfig+0xce8>
 80058cc:	2102      	movs	r1, #2
 80058ce:	f104 0028 	add.w	r0, r4, #40	@ 0x28
 80058d2:	f7ff faa3 	bl	8004e1c <RCCEx_PLL3_Config.part.0>
 80058d6:	4605      	mov	r5, r0
  if (((PeriphClkInit->PeriphClockSelection) & RCC_PERIPHCLK_I2C123) == RCC_PERIPHCLK_I2C123)
 80058d8:	e9d4 3200 	ldrd	r3, r2, [r4]
    if (ret == HAL_OK)
 80058dc:	2d00      	cmp	r5, #0
 80058de:	d1b3      	bne.n	8005848 <HAL_RCCEx_PeriphCLKConfig+0x94c>
 80058e0:	e56e      	b.n	80053c0 <HAL_RCCEx_PeriphCLKConfig+0x4c4>
  if (__HAL_RCC_GET_PLL_OSCSOURCE() == RCC_PLLSOURCE_NONE)
 80058e2:	49a1      	ldr	r1, [pc, #644]	@ (8005b68 <HAL_RCCEx_PeriphCLKConfig+0xc6c>)
 80058e4:	6a89      	ldr	r1, [r1, #40]	@ 0x28
 80058e6:	f001 0103 	and.w	r1, r1, #3
 80058ea:	2903      	cmp	r1, #3
 80058ec:	f000 81df 	beq.w	8005cae <HAL_RCCEx_PeriphCLKConfig+0xdb2>
 80058f0:	2102      	movs	r1, #2
 80058f2:	f104 0008 	add.w	r0, r4, #8
 80058f6:	f7ff fa21 	bl	8004d3c <RCCEx_PLL2_Config.part.0>
 80058fa:	4605      	mov	r5, r0
  if (((PeriphClkInit->PeriphClockSelection) & RCC_PERIPHCLK_SPI123) == RCC_PERIPHCLK_SPI123)
 80058fc:	e9d4 3200 	ldrd	r3, r2, [r4]
    if (ret == HAL_OK)
 8005900:	2d00      	cmp	r5, #0
 8005902:	d187      	bne.n	8005814 <HAL_RCCEx_PeriphCLKConfig+0x918>
 8005904:	f7ff bbc7 	b.w	8005096 <HAL_RCCEx_PeriphCLKConfig+0x19a>
  if (__HAL_RCC_GET_PLL_OSCSOURCE() == RCC_PLLSOURCE_NONE)
 8005908:	4997      	ldr	r1, [pc, #604]	@ (8005b68 <HAL_RCCEx_PeriphCLKConfig+0xc6c>)
 800590a:	6a89      	ldr	r1, [r1, #40]	@ 0x28
 800590c:	f001 0103 	and.w	r1, r1, #3
 8005910:	2903      	cmp	r1, #3
 8005912:	f000 820a 	beq.w	8005d2a <HAL_RCCEx_PeriphCLKConfig+0xe2e>
 8005916:	2102      	movs	r1, #2
 8005918:	f104 0008 	add.w	r0, r4, #8
 800591c:	f7ff fa0e 	bl	8004d3c <RCCEx_PLL2_Config.part.0>
 8005920:	4605      	mov	r5, r0
  if (((PeriphClkInit->PeriphClockSelection) & RCC_PERIPHCLK_RTC) == RCC_PERIPHCLK_RTC)
 8005922:	e9d4 3200 	ldrd	r3, r2, [r4]
    if (ret == HAL_OK)
 8005926:	2d00      	cmp	r5, #0
 8005928:	f47f ac5c 	bne.w	80051e4 <HAL_RCCEx_PeriphCLKConfig+0x2e8>
 800592c:	e774      	b.n	8005818 <HAL_RCCEx_PeriphCLKConfig+0x91c>
  if (__HAL_RCC_GET_PLL_OSCSOURCE() == RCC_PLLSOURCE_NONE)
 800592e:	498e      	ldr	r1, [pc, #568]	@ (8005b68 <HAL_RCCEx_PeriphCLKConfig+0xc6c>)
 8005930:	6a89      	ldr	r1, [r1, #40]	@ 0x28
 8005932:	f001 0103 	and.w	r1, r1, #3
 8005936:	2903      	cmp	r1, #3
 8005938:	f000 8146 	beq.w	8005bc8 <HAL_RCCEx_PeriphCLKConfig+0xccc>
 800593c:	2101      	movs	r1, #1
 800593e:	f104 0028 	add.w	r0, r4, #40	@ 0x28
 8005942:	f7ff fa6b 	bl	8004e1c <RCCEx_PLL3_Config.part.0>
 8005946:	4605      	mov	r5, r0
  if (((PeriphClkInit->PeriphClockSelection) & RCC_PERIPHCLK_SPI6) == RCC_PERIPHCLK_SPI6)
 8005948:	e9d4 3200 	ldrd	r3, r2, [r4]
    if (ret == HAL_OK)
 800594c:	2d00      	cmp	r5, #0
 800594e:	d181      	bne.n	8005854 <HAL_RCCEx_PeriphCLKConfig+0x958>
 8005950:	f7ff bbf1 	b.w	8005136 <HAL_RCCEx_PeriphCLKConfig+0x23a>
  if (__HAL_RCC_GET_PLL_OSCSOURCE() == RCC_PLLSOURCE_NONE)
 8005954:	4984      	ldr	r1, [pc, #528]	@ (8005b68 <HAL_RCCEx_PeriphCLKConfig+0xc6c>)
 8005956:	6a89      	ldr	r1, [r1, #40]	@ 0x28
 8005958:	f001 0103 	and.w	r1, r1, #3
 800595c:	2903      	cmp	r1, #3
 800595e:	f43f ad8a 	beq.w	8005476 <HAL_RCCEx_PeriphCLKConfig+0x57a>
 8005962:	2101      	movs	r1, #1
 8005964:	f104 0028 	add.w	r0, r4, #40	@ 0x28
 8005968:	f7ff fa58 	bl	8004e1c <RCCEx_PLL3_Config.part.0>
 800596c:	4605      	mov	r5, r0
  if (((PeriphClkInit->PeriphClockSelection) & RCC_PERIPHCLK_SDMMC) == RCC_PERIPHCLK_SDMMC)
 800596e:	e9d4 3200 	ldrd	r3, r2, [r4]
    if (ret == HAL_OK)
 8005972:	2d00      	cmp	r5, #0
 8005974:	f47f af4a 	bne.w	800580c <HAL_RCCEx_PeriphCLKConfig+0x910>
 8005978:	e6a9      	b.n	80056ce <HAL_RCCEx_PeriphCLKConfig+0x7d2>
  if (__HAL_RCC_GET_PLL_OSCSOURCE() == RCC_PLLSOURCE_NONE)
 800597a:	497b      	ldr	r1, [pc, #492]	@ (8005b68 <HAL_RCCEx_PeriphCLKConfig+0xc6c>)
 800597c:	6a89      	ldr	r1, [r1, #40]	@ 0x28
 800597e:	f001 0103 	and.w	r1, r1, #3
 8005982:	2903      	cmp	r1, #3
 8005984:	f43f ae7e 	beq.w	8005684 <HAL_RCCEx_PeriphCLKConfig+0x788>
 8005988:	2102      	movs	r1, #2
 800598a:	f104 0028 	add.w	r0, r4, #40	@ 0x28
 800598e:	f7ff fa45 	bl	8004e1c <RCCEx_PLL3_Config.part.0>
 8005992:	4605      	mov	r5, r0
  if (((PeriphClkInit->PeriphClockSelection) & RCC_PERIPHCLK_USB) == RCC_PERIPHCLK_USB)
 8005994:	e9d4 3200 	ldrd	r3, r2, [r4]
    if (ret == HAL_OK)
 8005998:	2d00      	cmp	r5, #0
 800599a:	f47f af53 	bne.w	8005844 <HAL_RCCEx_PeriphCLKConfig+0x948>
 800599e:	e552      	b.n	8005446 <HAL_RCCEx_PeriphCLKConfig+0x54a>
  if (__HAL_RCC_GET_PLL_OSCSOURCE() == RCC_PLLSOURCE_NONE)
 80059a0:	4971      	ldr	r1, [pc, #452]	@ (8005b68 <HAL_RCCEx_PeriphCLKConfig+0xc6c>)
 80059a2:	6a89      	ldr	r1, [r1, #40]	@ 0x28
 80059a4:	f001 0103 	and.w	r1, r1, #3
 80059a8:	2903      	cmp	r1, #3
 80059aa:	f000 8129 	beq.w	8005c00 <HAL_RCCEx_PeriphCLKConfig+0xd04>
 80059ae:	2101      	movs	r1, #1
 80059b0:	f104 0028 	add.w	r0, r4, #40	@ 0x28
 80059b4:	f7ff fa32 	bl	8004e1c <RCCEx_PLL3_Config.part.0>
 80059b8:	4605      	mov	r5, r0
  if (((PeriphClkInit->PeriphClockSelection) & RCC_PERIPHCLK_FDCAN) == RCC_PERIPHCLK_FDCAN)
 80059ba:	e9d4 3200 	ldrd	r3, r2, [r4]
    if (ret == HAL_OK)
 80059be:	2d00      	cmp	r5, #0
 80059c0:	f47f af3c 	bne.w	800583c <HAL_RCCEx_PeriphCLKConfig+0x940>
 80059c4:	f7ff bbdf 	b.w	8005186 <HAL_RCCEx_PeriphCLKConfig+0x28a>
        __HAL_RCC_PLLCLKOUT_ENABLE(RCC_PLL1_DIVQ);
 80059c8:	4867      	ldr	r0, [pc, #412]	@ (8005b68 <HAL_RCCEx_PeriphCLKConfig+0xc6c>)
 80059ca:	6ac1      	ldr	r1, [r0, #44]	@ 0x2c
 80059cc:	f441 3100 	orr.w	r1, r1, #131072	@ 0x20000
 80059d0:	62c1      	str	r1, [r0, #44]	@ 0x2c
    if (ret == HAL_OK)
 80059d2:	2d00      	cmp	r5, #0
 80059d4:	f43f ab88 	beq.w	80050e8 <HAL_RCCEx_PeriphCLKConfig+0x1ec>
      status = ret;
 80059d8:	462e      	mov	r6, r5
 80059da:	f7ff bb8c 	b.w	80050f6 <HAL_RCCEx_PeriphCLKConfig+0x1fa>
        __HAL_RCC_PLLCLKOUT_ENABLE(RCC_PLL1_DIVQ);
 80059de:	4862      	ldr	r0, [pc, #392]	@ (8005b68 <HAL_RCCEx_PeriphCLKConfig+0xc6c>)
 80059e0:	6ac1      	ldr	r1, [r0, #44]	@ 0x2c
 80059e2:	f441 3100 	orr.w	r1, r1, #131072	@ 0x20000
 80059e6:	62c1      	str	r1, [r0, #44]	@ 0x2c
    if (ret == HAL_OK)
 80059e8:	2d00      	cmp	r5, #0
 80059ea:	f43f ab38 	beq.w	800505e <HAL_RCCEx_PeriphCLKConfig+0x162>
      status = ret;
 80059ee:	462e      	mov	r6, r5
 80059f0:	f7ff bb3d 	b.w	800506e <HAL_RCCEx_PeriphCLKConfig+0x172>
  if (__HAL_RCC_GET_PLL_OSCSOURCE() == RCC_PLLSOURCE_NONE)
 80059f4:	495c      	ldr	r1, [pc, #368]	@ (8005b68 <HAL_RCCEx_PeriphCLKConfig+0xc6c>)
 80059f6:	6a89      	ldr	r1, [r1, #40]	@ 0x28
 80059f8:	f001 0103 	and.w	r1, r1, #3
 80059fc:	2903      	cmp	r1, #3
 80059fe:	f000 8125 	beq.w	8005c4c <HAL_RCCEx_PeriphCLKConfig+0xd50>
 8005a02:	2100      	movs	r1, #0
 8005a04:	f104 0028 	add.w	r0, r4, #40	@ 0x28
 8005a08:	f7ff fa08 	bl	8004e1c <RCCEx_PLL3_Config.part.0>
 8005a0c:	4605      	mov	r5, r0
  if (((PeriphClkInit->PeriphClockSelection) & RCC_PERIPHCLK_SPI45) == RCC_PERIPHCLK_SPI45)
 8005a0e:	e9d4 3200 	ldrd	r3, r2, [r4]
        break;
 8005a12:	f7ff bb66 	b.w	80050e2 <HAL_RCCEx_PeriphCLKConfig+0x1e6>
  if (__HAL_RCC_GET_PLL_OSCSOURCE() == RCC_PLLSOURCE_NONE)
 8005a16:	4954      	ldr	r1, [pc, #336]	@ (8005b68 <HAL_RCCEx_PeriphCLKConfig+0xc6c>)
 8005a18:	6a89      	ldr	r1, [r1, #40]	@ 0x28
 8005a1a:	f001 0103 	and.w	r1, r1, #3
 8005a1e:	2903      	cmp	r1, #3
 8005a20:	f000 813e 	beq.w	8005ca0 <HAL_RCCEx_PeriphCLKConfig+0xda4>
 8005a24:	2100      	movs	r1, #0
 8005a26:	f104 0028 	add.w	r0, r4, #40	@ 0x28
 8005a2a:	f7ff f9f7 	bl	8004e1c <RCCEx_PLL3_Config.part.0>
 8005a2e:	4605      	mov	r5, r0
  if (((PeriphClkInit->PeriphClockSelection) & RCC_PERIPHCLK_SAI4A) == RCC_PERIPHCLK_SAI4A)
 8005a30:	e9d4 3200 	ldrd	r3, r2, [r4]
    if (ret == HAL_OK)
 8005a34:	2d00      	cmp	r5, #0
 8005a36:	f43f aabd 	beq.w	8004fb4 <HAL_RCCEx_PeriphCLKConfig+0xb8>
      status = ret;
 8005a3a:	462e      	mov	r6, r5
 8005a3c:	f7ff bac1 	b.w	8004fc2 <HAL_RCCEx_PeriphCLKConfig+0xc6>
  if (__HAL_RCC_GET_PLL_OSCSOURCE() == RCC_PLLSOURCE_NONE)
 8005a40:	4949      	ldr	r1, [pc, #292]	@ (8005b68 <HAL_RCCEx_PeriphCLKConfig+0xc6c>)
 8005a42:	6a89      	ldr	r1, [r1, #40]	@ 0x28
 8005a44:	f001 0103 	and.w	r1, r1, #3
 8005a48:	2903      	cmp	r1, #3
 8005a4a:	f43f aa91 	beq.w	8004f70 <HAL_RCCEx_PeriphCLKConfig+0x74>
 8005a4e:	2100      	movs	r1, #0
 8005a50:	f104 0008 	add.w	r0, r4, #8
 8005a54:	f7ff f972 	bl	8004d3c <RCCEx_PLL2_Config.part.0>
 8005a58:	4605      	mov	r5, r0
  if (((PeriphClkInit->PeriphClockSelection) & RCC_PERIPHCLK_SAI23) == RCC_PERIPHCLK_SAI23)
 8005a5a:	e9d4 3200 	ldrd	r3, r2, [r4]
    if (ret == HAL_OK)
 8005a5e:	2d00      	cmp	r5, #0
 8005a60:	f43f ae89 	beq.w	8005776 <HAL_RCCEx_PeriphCLKConfig+0x87a>
      status = ret;
 8005a64:	462e      	mov	r6, r5
 8005a66:	f7ff ba85 	b.w	8004f74 <HAL_RCCEx_PeriphCLKConfig+0x78>
  if (__HAL_RCC_GET_PLL_OSCSOURCE() == RCC_PLLSOURCE_NONE)
 8005a6a:	493f      	ldr	r1, [pc, #252]	@ (8005b68 <HAL_RCCEx_PeriphCLKConfig+0xc6c>)
 8005a6c:	6a89      	ldr	r1, [r1, #40]	@ 0x28
 8005a6e:	f001 0103 	and.w	r1, r1, #3
 8005a72:	2903      	cmp	r1, #3
 8005a74:	f43f aa7c 	beq.w	8004f70 <HAL_RCCEx_PeriphCLKConfig+0x74>
 8005a78:	2100      	movs	r1, #0
 8005a7a:	f104 0028 	add.w	r0, r4, #40	@ 0x28
 8005a7e:	f7ff f9cd 	bl	8004e1c <RCCEx_PLL3_Config.part.0>
 8005a82:	4605      	mov	r5, r0
  if (((PeriphClkInit->PeriphClockSelection) & RCC_PERIPHCLK_SAI23) == RCC_PERIPHCLK_SAI23)
 8005a84:	e9d4 3200 	ldrd	r3, r2, [r4]
        break;
 8005a88:	e672      	b.n	8005770 <HAL_RCCEx_PeriphCLKConfig+0x874>
  if (__HAL_RCC_GET_PLL_OSCSOURCE() == RCC_PLLSOURCE_NONE)
 8005a8a:	4937      	ldr	r1, [pc, #220]	@ (8005b68 <HAL_RCCEx_PeriphCLKConfig+0xc6c>)
 8005a8c:	6a89      	ldr	r1, [r1, #40]	@ 0x28
 8005a8e:	f001 0103 	and.w	r1, r1, #3
 8005a92:	2903      	cmp	r1, #3
 8005a94:	f000 80f9 	beq.w	8005c8a <HAL_RCCEx_PeriphCLKConfig+0xd8e>
 8005a98:	2100      	movs	r1, #0
 8005a9a:	f104 0028 	add.w	r0, r4, #40	@ 0x28
 8005a9e:	f7ff f9bd 	bl	8004e1c <RCCEx_PLL3_Config.part.0>
 8005aa2:	4605      	mov	r5, r0
  if (((PeriphClkInit->PeriphClockSelection) & RCC_PERIPHCLK_SAI4B) == RCC_PERIPHCLK_SAI4B)
 8005aa4:	e9d4 3200 	ldrd	r3, r2, [r4]
    if (ret == HAL_OK)
 8005aa8:	2d00      	cmp	r5, #0
 8005aaa:	f43f aaad 	beq.w	8005008 <HAL_RCCEx_PeriphCLKConfig+0x10c>
      status = ret;
 8005aae:	462e      	mov	r6, r5
 8005ab0:	f7ff bab2 	b.w	8005018 <HAL_RCCEx_PeriphCLKConfig+0x11c>
  if (__HAL_RCC_GET_PLL_OSCSOURCE() == RCC_PLLSOURCE_NONE)
 8005ab4:	492c      	ldr	r1, [pc, #176]	@ (8005b68 <HAL_RCCEx_PeriphCLKConfig+0xc6c>)
 8005ab6:	6a89      	ldr	r1, [r1, #40]	@ 0x28
 8005ab8:	f001 0103 	and.w	r1, r1, #3
 8005abc:	2903      	cmp	r1, #3
 8005abe:	f000 80d1 	beq.w	8005c64 <HAL_RCCEx_PeriphCLKConfig+0xd68>
 8005ac2:	2100      	movs	r1, #0
 8005ac4:	f104 0028 	add.w	r0, r4, #40	@ 0x28
 8005ac8:	f7ff f9a8 	bl	8004e1c <RCCEx_PLL3_Config.part.0>
 8005acc:	4605      	mov	r5, r0
  if (((PeriphClkInit->PeriphClockSelection) & RCC_PERIPHCLK_QSPI) == RCC_PERIPHCLK_QSPI)
 8005ace:	e9d4 3200 	ldrd	r3, r2, [r4]
        break;
 8005ad2:	f7ff bac1 	b.w	8005058 <HAL_RCCEx_PeriphCLKConfig+0x15c>
  if (__HAL_RCC_GET_PLL_OSCSOURCE() == RCC_PLLSOURCE_NONE)
 8005ad6:	4924      	ldr	r1, [pc, #144]	@ (8005b68 <HAL_RCCEx_PeriphCLKConfig+0xc6c>)
 8005ad8:	6a89      	ldr	r1, [r1, #40]	@ 0x28
 8005ada:	f001 0103 	and.w	r1, r1, #3
 8005ade:	2903      	cmp	r1, #3
 8005ae0:	f000 80c8 	beq.w	8005c74 <HAL_RCCEx_PeriphCLKConfig+0xd78>
 8005ae4:	2102      	movs	r1, #2
 8005ae6:	3028      	adds	r0, #40	@ 0x28
 8005ae8:	f7ff f998 	bl	8004e1c <RCCEx_PLL3_Config.part.0>
 8005aec:	4606      	mov	r6, r0
        break;
 8005aee:	f7ff ba28 	b.w	8004f42 <HAL_RCCEx_PeriphCLKConfig+0x46>
        __HAL_RCC_PLLCLKOUT_ENABLE(RCC_PLL1_DIVQ);
 8005af2:	481d      	ldr	r0, [pc, #116]	@ (8005b68 <HAL_RCCEx_PeriphCLKConfig+0xc6c>)
 8005af4:	6ac1      	ldr	r1, [r0, #44]	@ 0x2c
 8005af6:	f441 3100 	orr.w	r1, r1, #131072	@ 0x20000
 8005afa:	62c1      	str	r1, [r0, #44]	@ 0x2c
        break;
 8005afc:	f7ff ba81 	b.w	8005002 <HAL_RCCEx_PeriphCLKConfig+0x106>
        __HAL_RCC_PLLCLKOUT_ENABLE(RCC_PLL1_DIVQ);
 8005b00:	4819      	ldr	r0, [pc, #100]	@ (8005b68 <HAL_RCCEx_PeriphCLKConfig+0xc6c>)
 8005b02:	6ac1      	ldr	r1, [r0, #44]	@ 0x2c
 8005b04:	f441 3100 	orr.w	r1, r1, #131072	@ 0x20000
 8005b08:	62c1      	str	r1, [r0, #44]	@ 0x2c
        break;
 8005b0a:	f7ff ba50 	b.w	8004fae <HAL_RCCEx_PeriphCLKConfig+0xb2>
        __HAL_RCC_PLLCLKOUT_ENABLE(RCC_PLL1_DIVQ);
 8005b0e:	4d16      	ldr	r5, [pc, #88]	@ (8005b68 <HAL_RCCEx_PeriphCLKConfig+0xc6c>)
 8005b10:	6ae8      	ldr	r0, [r5, #44]	@ 0x2c
 8005b12:	f440 3000 	orr.w	r0, r0, #131072	@ 0x20000
 8005b16:	62e8      	str	r0, [r5, #44]	@ 0x2c
    if (ret == HAL_OK)
 8005b18:	f7ff ba17 	b.w	8004f4a <HAL_RCCEx_PeriphCLKConfig+0x4e>
  if (__HAL_RCC_GET_PLL_OSCSOURCE() == RCC_PLLSOURCE_NONE)
 8005b1c:	4912      	ldr	r1, [pc, #72]	@ (8005b68 <HAL_RCCEx_PeriphCLKConfig+0xc6c>)
 8005b1e:	6a89      	ldr	r1, [r1, #40]	@ 0x28
 8005b20:	f001 0103 	and.w	r1, r1, #3
 8005b24:	2903      	cmp	r1, #3
 8005b26:	f000 80e5 	beq.w	8005cf4 <HAL_RCCEx_PeriphCLKConfig+0xdf8>
 8005b2a:	2101      	movs	r1, #1
 8005b2c:	f104 0028 	add.w	r0, r4, #40	@ 0x28
 8005b30:	f7ff f974 	bl	8004e1c <RCCEx_PLL3_Config.part.0>
 8005b34:	4605      	mov	r5, r0
  if (((PeriphClkInit->PeriphClockSelection) & RCC_PERIPHCLK_LPTIM1) == RCC_PERIPHCLK_LPTIM1)
 8005b36:	e9d4 3200 	ldrd	r3, r2, [r4]
    if (ret == HAL_OK)
 8005b3a:	2d00      	cmp	r5, #0
 8005b3c:	f47f abcc 	bne.w	80052d8 <HAL_RCCEx_PeriphCLKConfig+0x3dc>
 8005b40:	e68c      	b.n	800585c <HAL_RCCEx_PeriphCLKConfig+0x960>
  if (__HAL_RCC_GET_PLL_OSCSOURCE() == RCC_PLLSOURCE_NONE)
 8005b42:	4909      	ldr	r1, [pc, #36]	@ (8005b68 <HAL_RCCEx_PeriphCLKConfig+0xc6c>)
 8005b44:	6a89      	ldr	r1, [r1, #40]	@ 0x28
 8005b46:	f001 0103 	and.w	r1, r1, #3
 8005b4a:	2903      	cmp	r1, #3
 8005b4c:	f000 80d6 	beq.w	8005cfc <HAL_RCCEx_PeriphCLKConfig+0xe00>
 8005b50:	2101      	movs	r1, #1
 8005b52:	f104 0028 	add.w	r0, r4, #40	@ 0x28
 8005b56:	f7ff f961 	bl	8004e1c <RCCEx_PLL3_Config.part.0>
 8005b5a:	4605      	mov	r5, r0
  if (((PeriphClkInit->PeriphClockSelection) & RCC_PERIPHCLK_LPUART1) == RCC_PERIPHCLK_LPUART1)
 8005b5c:	e9d4 3200 	ldrd	r3, r2, [r4]
    if (ret == HAL_OK)
 8005b60:	2d00      	cmp	r5, #0
 8005b62:	f47f ab95 	bne.w	8005290 <HAL_RCCEx_PeriphCLKConfig+0x394>
 8005b66:	e65f      	b.n	8005828 <HAL_RCCEx_PeriphCLKConfig+0x92c>
 8005b68:	58024400 	.word	0x58024400
  if (__HAL_RCC_GET_PLL_OSCSOURCE() == RCC_PLLSOURCE_NONE)
 8005b6c:	4983      	ldr	r1, [pc, #524]	@ (8005d7c <HAL_RCCEx_PeriphCLKConfig+0xe80>)
 8005b6e:	6a89      	ldr	r1, [r1, #40]	@ 0x28
 8005b70:	f001 0103 	and.w	r1, r1, #3
 8005b74:	2903      	cmp	r1, #3
 8005b76:	f43f ab69 	beq.w	800524c <HAL_RCCEx_PeriphCLKConfig+0x350>
 8005b7a:	2101      	movs	r1, #1
 8005b7c:	f104 0028 	add.w	r0, r4, #40	@ 0x28
 8005b80:	f7ff f94c 	bl	8004e1c <RCCEx_PLL3_Config.part.0>
 8005b84:	4605      	mov	r5, r0
  if (((PeriphClkInit->PeriphClockSelection) & RCC_PERIPHCLK_USART234578) == RCC_PERIPHCLK_USART234578)
 8005b86:	e9d4 3200 	ldrd	r3, r2, [r4]
    if (ret == HAL_OK)
 8005b8a:	2d00      	cmp	r5, #0
 8005b8c:	f47f ae64 	bne.w	8005858 <HAL_RCCEx_PeriphCLKConfig+0x95c>
 8005b90:	e58d      	b.n	80056ae <HAL_RCCEx_PeriphCLKConfig+0x7b2>
  return HAL_ERROR;
 8005b92:	2001      	movs	r0, #1
}
 8005b94:	e8bd 83f8 	ldmia.w	sp!, {r3, r4, r5, r6, r7, r8, r9, pc}
    switch (PeriphClkInit->Lptim1ClockSelection)
 8005b98:	f021 5080 	bic.w	r0, r1, #268435456	@ 0x10000000
 8005b9c:	f1b0 4f80 	cmp.w	r0, #1073741824	@ 0x40000000
 8005ba0:	f43f abb9 	beq.w	8005316 <HAL_RCCEx_PeriphCLKConfig+0x41a>
 8005ba4:	f1b1 5f40 	cmp.w	r1, #805306368	@ 0x30000000
 8005ba8:	f43f abb5 	beq.w	8005316 <HAL_RCCEx_PeriphCLKConfig+0x41a>
      status = ret;
 8005bac:	2601      	movs	r6, #1
        ret = HAL_ERROR;
 8005bae:	4635      	mov	r5, r6
 8005bb0:	f7ff bbbc 	b.w	800532c <HAL_RCCEx_PeriphCLKConfig+0x430>
    switch (PeriphClkInit->Spi45ClockSelection)
 8005bb4:	f421 3080 	bic.w	r0, r1, #65536	@ 0x10000
 8005bb8:	f5b0 2f80 	cmp.w	r0, #262144	@ 0x40000
 8005bbc:	f43f aab8 	beq.w	8005130 <HAL_RCCEx_PeriphCLKConfig+0x234>
 8005bc0:	f5b1 3f40 	cmp.w	r1, #196608	@ 0x30000
 8005bc4:	f43f aab4 	beq.w	8005130 <HAL_RCCEx_PeriphCLKConfig+0x234>
      status = ret;
 8005bc8:	2601      	movs	r6, #1
        ret = HAL_ERROR;
 8005bca:	4635      	mov	r5, r6
 8005bcc:	f7ff baba 	b.w	8005144 <HAL_RCCEx_PeriphCLKConfig+0x248>
    switch (PeriphClkInit->Lptim345ClockSelection)
 8005bd0:	f421 5000 	bic.w	r0, r1, #8192	@ 0x2000
 8005bd4:	f5b0 4f00 	cmp.w	r0, #32768	@ 0x8000
 8005bd8:	f43f abef 	beq.w	80053ba <HAL_RCCEx_PeriphCLKConfig+0x4be>
 8005bdc:	f5b1 4fc0 	cmp.w	r1, #24576	@ 0x6000
 8005be0:	f43f abeb 	beq.w	80053ba <HAL_RCCEx_PeriphCLKConfig+0x4be>
      status = ret;
 8005be4:	2601      	movs	r6, #1
        ret = HAL_ERROR;
 8005be6:	4635      	mov	r5, r6
 8005be8:	f7ff bbf2 	b.w	80053d0 <HAL_RCCEx_PeriphCLKConfig+0x4d4>
    switch (PeriphClkInit->Spi6ClockSelection)
 8005bec:	f021 5080 	bic.w	r0, r1, #268435456	@ 0x10000000
 8005bf0:	f1b0 4f80 	cmp.w	r0, #1073741824	@ 0x40000000
 8005bf4:	f43f aac4 	beq.w	8005180 <HAL_RCCEx_PeriphCLKConfig+0x284>
 8005bf8:	f1b1 5f40 	cmp.w	r1, #805306368	@ 0x30000000
 8005bfc:	f43f aac0 	beq.w	8005180 <HAL_RCCEx_PeriphCLKConfig+0x284>
      status = ret;
 8005c00:	2601      	movs	r6, #1
        ret = HAL_ERROR;
 8005c02:	4635      	mov	r5, r6
 8005c04:	f7ff bac7 	b.w	8005196 <HAL_RCCEx_PeriphCLKConfig+0x29a>
    switch (PeriphClkInit->Lptim2ClockSelection)
 8005c08:	f421 6080 	bic.w	r0, r1, #1024	@ 0x400
 8005c0c:	f5b0 5f80 	cmp.w	r0, #4096	@ 0x1000
 8005c10:	f43f abaa 	beq.w	8005368 <HAL_RCCEx_PeriphCLKConfig+0x46c>
 8005c14:	f5b1 6f40 	cmp.w	r1, #3072	@ 0xc00
 8005c18:	f43f aba6 	beq.w	8005368 <HAL_RCCEx_PeriphCLKConfig+0x46c>
      status = ret;
 8005c1c:	2601      	movs	r6, #1
        ret = HAL_ERROR;
 8005c1e:	4635      	mov	r5, r6
 8005c20:	f7ff bbad 	b.w	800537e <HAL_RCCEx_PeriphCLKConfig+0x482>
    return HAL_ERROR;
 8005c24:	2501      	movs	r5, #1
 8005c26:	e4e2      	b.n	80055ee <HAL_RCCEx_PeriphCLKConfig+0x6f2>
  if (((PeriphClkInit->PeriphClockSelection) & RCC_PERIPHCLK_PLL3_DIVR) == RCC_PERIPHCLK_PLL3_DIVR)
 8005c28:	0691      	lsls	r1, r2, #26
 8005c2a:	d5b2      	bpl.n	8005b92 <HAL_RCCEx_PeriphCLKConfig+0xc96>
    return HAL_ERROR;
 8005c2c:	2501      	movs	r5, #1
 8005c2e:	e4f2      	b.n	8005616 <HAL_RCCEx_PeriphCLKConfig+0x71a>
    return HAL_ERROR;
 8005c30:	2501      	movs	r5, #1
 8005c32:	e4a9      	b.n	8005588 <HAL_RCCEx_PeriphCLKConfig+0x68c>
 8005c34:	2501      	movs	r5, #1
 8005c36:	e4b8      	b.n	80055aa <HAL_RCCEx_PeriphCLKConfig+0x6ae>
 8005c38:	2501      	movs	r5, #1
 8005c3a:	e4c7      	b.n	80055cc <HAL_RCCEx_PeriphCLKConfig+0x6d0>
    switch (PeriphClkInit->Spi123ClockSelection)
 8005c3c:	f5b1 5f40 	cmp.w	r1, #12288	@ 0x3000
 8005c40:	f43f aa4f 	beq.w	80050e2 <HAL_RCCEx_PeriphCLKConfig+0x1e6>
 8005c44:	f5b1 4f80 	cmp.w	r1, #16384	@ 0x4000
 8005c48:	f43f aa4b 	beq.w	80050e2 <HAL_RCCEx_PeriphCLKConfig+0x1e6>
      status = ret;
 8005c4c:	2601      	movs	r6, #1
        ret = HAL_ERROR;
 8005c4e:	4635      	mov	r5, r6
 8005c50:	f7ff ba51 	b.w	80050f6 <HAL_RCCEx_PeriphCLKConfig+0x1fa>
    switch (PeriphClkInit->Sai4BClockSelection)
 8005c54:	f1b1 7f40 	cmp.w	r1, #50331648	@ 0x3000000
 8005c58:	f43f a9fe 	beq.w	8005058 <HAL_RCCEx_PeriphCLKConfig+0x15c>
 8005c5c:	f1b1 6f80 	cmp.w	r1, #67108864	@ 0x4000000
 8005c60:	f43f a9fa 	beq.w	8005058 <HAL_RCCEx_PeriphCLKConfig+0x15c>
      status = ret;
 8005c64:	2601      	movs	r6, #1
        ret = HAL_ERROR;
 8005c66:	4635      	mov	r5, r6
 8005c68:	f7ff ba01 	b.w	800506e <HAL_RCCEx_PeriphCLKConfig+0x172>
    switch (PeriphClkInit->SpdifrxClockSelection)
 8005c6c:	f5b1 1f40 	cmp.w	r1, #3145728	@ 0x300000
 8005c70:	f43f a96b 	beq.w	8004f4a <HAL_RCCEx_PeriphCLKConfig+0x4e>
        ret = HAL_ERROR;
 8005c74:	2601      	movs	r6, #1
 8005c76:	f7ff b96f 	b.w	8004f58 <HAL_RCCEx_PeriphCLKConfig+0x5c>
    switch (PeriphClkInit->Sai4AClockSelection)
 8005c7a:	f5b1 0fc0 	cmp.w	r1, #6291456	@ 0x600000
 8005c7e:	f43f a9c0 	beq.w	8005002 <HAL_RCCEx_PeriphCLKConfig+0x106>
 8005c82:	f5b1 0f00 	cmp.w	r1, #8388608	@ 0x800000
 8005c86:	f43f a9bc 	beq.w	8005002 <HAL_RCCEx_PeriphCLKConfig+0x106>
      status = ret;
 8005c8a:	2601      	movs	r6, #1
        ret = HAL_ERROR;
 8005c8c:	4635      	mov	r5, r6
 8005c8e:	f7ff b9c3 	b.w	8005018 <HAL_RCCEx_PeriphCLKConfig+0x11c>
    switch (PeriphClkInit->Sai23ClockSelection)
 8005c92:	29c0      	cmp	r1, #192	@ 0xc0
 8005c94:	f43f a98b 	beq.w	8004fae <HAL_RCCEx_PeriphCLKConfig+0xb2>
 8005c98:	f5b1 7f80 	cmp.w	r1, #256	@ 0x100
 8005c9c:	f43f a987 	beq.w	8004fae <HAL_RCCEx_PeriphCLKConfig+0xb2>
      status = ret;
 8005ca0:	2601      	movs	r6, #1
        ret = HAL_ERROR;
 8005ca2:	4635      	mov	r5, r6
 8005ca4:	f7ff b98d 	b.w	8004fc2 <HAL_RCCEx_PeriphCLKConfig+0xc6>
    switch (PeriphClkInit->QspiClockSelection)
 8005ca8:	2930      	cmp	r1, #48	@ 0x30
 8005caa:	f43f a9f1 	beq.w	8005090 <HAL_RCCEx_PeriphCLKConfig+0x194>
      status = ret;
 8005cae:	2601      	movs	r6, #1
        ret = HAL_ERROR;
 8005cb0:	4635      	mov	r5, r6
 8005cb2:	f7ff b9f7 	b.w	80050a4 <HAL_RCCEx_PeriphCLKConfig+0x1a8>
        ret = HAL_TIMEOUT;
 8005cb6:	2503      	movs	r5, #3
      status = ret;
 8005cb8:	462e      	mov	r6, r5
  if (((PeriphClkInit->PeriphClockSelection) & RCC_PERIPHCLK_USART16) == RCC_PERIPHCLK_USART16)
 8005cba:	e9d4 3200 	ldrd	r3, r2, [r4]
 8005cbe:	f7ff ba95 	b.w	80051ec <HAL_RCCEx_PeriphCLKConfig+0x2f0>
  if (((PeriphClkInit->PeriphClockSelection) & RCC_PERIPHCLK_PLL3_DIVR) == RCC_PERIPHCLK_PLL3_DIVR)
 8005cc2:	6863      	ldr	r3, [r4, #4]
 8005cc4:	069a      	lsls	r2, r3, #26
 8005cc6:	f57f af64 	bpl.w	8005b92 <HAL_RCCEx_PeriphCLKConfig+0xc96>
 8005cca:	4605      	mov	r5, r0
 8005ccc:	e4a3      	b.n	8005616 <HAL_RCCEx_PeriphCLKConfig+0x71a>
  if (__HAL_RCC_GET_PLL_OSCSOURCE() == RCC_PLLSOURCE_NONE)
 8005cce:	492b      	ldr	r1, [pc, #172]	@ (8005d7c <HAL_RCCEx_PeriphCLKConfig+0xe80>)
 8005cd0:	6a89      	ldr	r1, [r1, #40]	@ 0x28
 8005cd2:	f001 0103 	and.w	r1, r1, #3
 8005cd6:	2903      	cmp	r1, #3
 8005cd8:	f43f aa6b 	beq.w	80051b2 <HAL_RCCEx_PeriphCLKConfig+0x2b6>
 8005cdc:	2101      	movs	r1, #1
 8005cde:	f104 0008 	add.w	r0, r4, #8
 8005ce2:	f7ff f82b 	bl	8004d3c <RCCEx_PLL2_Config.part.0>
 8005ce6:	4605      	mov	r5, r0
  if (((PeriphClkInit->PeriphClockSelection) & RCC_PERIPHCLK_FMC) == RCC_PERIPHCLK_FMC)
 8005ce8:	e9d4 3200 	ldrd	r3, r2, [r4]
    if (ret == HAL_OK)
 8005cec:	2d00      	cmp	r5, #0
 8005cee:	f47f ad8f 	bne.w	8005810 <HAL_RCCEx_PeriphCLKConfig+0x914>
 8005cf2:	e4bf      	b.n	8005674 <HAL_RCCEx_PeriphCLKConfig+0x778>
      status = ret;
 8005cf4:	2601      	movs	r6, #1
        ret = HAL_ERROR;
 8005cf6:	4635      	mov	r5, r6
 8005cf8:	f7ff baef 	b.w	80052da <HAL_RCCEx_PeriphCLKConfig+0x3de>
      status = ret;
 8005cfc:	2601      	movs	r6, #1
        ret = HAL_ERROR;
 8005cfe:	4635      	mov	r5, r6
 8005d00:	f7ff bac7 	b.w	8005292 <HAL_RCCEx_PeriphCLKConfig+0x396>
        status = HAL_ERROR;
 8005d04:	2601      	movs	r6, #1
 8005d06:	f7ff bb79 	b.w	80053fc <HAL_RCCEx_PeriphCLKConfig+0x500>
        status = HAL_ERROR;
 8005d0a:	2601      	movs	r6, #1
 8005d0c:	f7ff bb68 	b.w	80053e0 <HAL_RCCEx_PeriphCLKConfig+0x4e4>
    __HAL_RCC_I2C123_CONFIG(PeriphClkInit->I2c123ClockSelection);
 8005d10:	f8d4 0084 	ldr.w	r0, [r4, #132]	@ 0x84
  if (((PeriphClkInit->PeriphClockSelection) & RCC_PERIPHCLK_I2C4) == RCC_PERIPHCLK_I2C4)
 8005d14:	e9d4 3200 	ldrd	r3, r2, [r4]
 8005d18:	f7ff bb62 	b.w	80053e0 <HAL_RCCEx_PeriphCLKConfig+0x4e4>
    __HAL_RCC_I2C4_CONFIG(PeriphClkInit->I2c4ClockSelection);
 8005d1c:	f8d4 0098 	ldr.w	r0, [r4, #152]	@ 0x98
        status = HAL_ERROR;
 8005d20:	2601      	movs	r6, #1
  if (((PeriphClkInit->PeriphClockSelection) & RCC_PERIPHCLK_ADC) == RCC_PERIPHCLK_ADC)
 8005d22:	e9d4 3200 	ldrd	r3, r2, [r4]
 8005d26:	f7ff bb69 	b.w	80053fc <HAL_RCCEx_PeriphCLKConfig+0x500>
      status = ret;
 8005d2a:	2601      	movs	r6, #1
        ret = HAL_ERROR;
 8005d2c:	4635      	mov	r5, r6
 8005d2e:	f7ff ba5a 	b.w	80051e6 <HAL_RCCEx_PeriphCLKConfig+0x2ea>
        tickstart = HAL_GetTick();
 8005d32:	f7fb fdc9 	bl	80018c8 <HAL_GetTick>
        while (__HAL_RCC_GET_FLAG(RCC_FLAG_LSERDY) == 0U)
 8005d36:	f8df 8044 	ldr.w	r8, [pc, #68]	@ 8005d7c <HAL_RCCEx_PeriphCLKConfig+0xe80>
        tickstart = HAL_GetTick();
 8005d3a:	4607      	mov	r7, r0
          if ((HAL_GetTick() - tickstart) > RCC_LSE_TIMEOUT_VALUE)
 8005d3c:	f241 3988 	movw	r9, #5000	@ 0x1388
        while (__HAL_RCC_GET_FLAG(RCC_FLAG_LSERDY) == 0U)
 8005d40:	e004      	b.n	8005d4c <HAL_RCCEx_PeriphCLKConfig+0xe50>
          if ((HAL_GetTick() - tickstart) > RCC_LSE_TIMEOUT_VALUE)
 8005d42:	f7fb fdc1 	bl	80018c8 <HAL_GetTick>
 8005d46:	1bc0      	subs	r0, r0, r7
 8005d48:	4548      	cmp	r0, r9
 8005d4a:	d810      	bhi.n	8005d6e <HAL_RCCEx_PeriphCLKConfig+0xe72>
        while (__HAL_RCC_GET_FLAG(RCC_FLAG_LSERDY) == 0U)
 8005d4c:	f8d8 3070 	ldr.w	r3, [r8, #112]	@ 0x70
 8005d50:	079b      	lsls	r3, r3, #30
 8005d52:	d5f6      	bpl.n	8005d42 <HAL_RCCEx_PeriphCLKConfig+0xe46>
        __HAL_RCC_RTC_CONFIG(PeriphClkInit->RTCClockSelection);
 8005d54:	f8d4 30b4 	ldr.w	r3, [r4, #180]	@ 0xb4
 8005d58:	e4f0      	b.n	800573c <HAL_RCCEx_PeriphCLKConfig+0x840>
 8005d5a:	4808      	ldr	r0, [pc, #32]	@ (8005d7c <HAL_RCCEx_PeriphCLKConfig+0xe80>)
 8005d5c:	4a08      	ldr	r2, [pc, #32]	@ (8005d80 <HAL_RCCEx_PeriphCLKConfig+0xe84>)
 8005d5e:	6901      	ldr	r1, [r0, #16]
 8005d60:	ea02 1213 	and.w	r2, r2, r3, lsr #4
 8005d64:	f421 517c 	bic.w	r1, r1, #16128	@ 0x3f00
 8005d68:	430a      	orrs	r2, r1
 8005d6a:	6102      	str	r2, [r0, #16]
 8005d6c:	e4f1      	b.n	8005752 <HAL_RCCEx_PeriphCLKConfig+0x856>
        status = ret;
 8005d6e:	2603      	movs	r6, #3
  if (((PeriphClkInit->PeriphClockSelection) & RCC_PERIPHCLK_USART16) == RCC_PERIPHCLK_USART16)
 8005d70:	e9d4 3200 	ldrd	r3, r2, [r4]
 8005d74:	4635      	mov	r5, r6
 8005d76:	f7ff ba39 	b.w	80051ec <HAL_RCCEx_PeriphCLKConfig+0x2f0>
 8005d7a:	bf00      	nop
 8005d7c:	58024400 	.word	0x58024400
 8005d80:	00ffffcf 	.word	0x00ffffcf

08005d84 <HAL_RCCEx_GetPLL2ClockFreq>:
  pllsource = (RCC->PLLCKSELR & RCC_PLLCKSELR_PLLSRC);
 8005d84:	4a47      	ldr	r2, [pc, #284]	@ (8005ea4 <HAL_RCCEx_GetPLL2ClockFreq+0x120>)
{
 8005d86:	b470      	push	{r4, r5, r6}
  pllsource = (RCC->PLLCKSELR & RCC_PLLCKSELR_PLLSRC);
 8005d88:	6a94      	ldr	r4, [r2, #40]	@ 0x28
  pll2m = ((RCC->PLLCKSELR & RCC_PLLCKSELR_DIVM2) >> 12);
 8005d8a:	6a95      	ldr	r5, [r2, #40]	@ 0x28
  pll2fracen = (RCC->PLLCFGR & RCC_PLLCFGR_PLL2FRACEN) >> RCC_PLLCFGR_PLL2FRACEN_Pos;
 8005d8c:	6ad6      	ldr	r6, [r2, #44]	@ 0x2c
  if (pll2m != 0U)
 8005d8e:	f415 3f7c 	tst.w	r5, #258048	@ 0x3f000
  pll2m = ((RCC->PLLCKSELR & RCC_PLLCKSELR_DIVM2) >> 12);
 8005d92:	f3c5 3305 	ubfx	r3, r5, #12, #6
  fracn2 = (float_t)(uint32_t)(pll2fracen * ((RCC->PLL2FRACR & RCC_PLL2FRACR_FRACN2) >> 3));
 8005d96:	6bd1      	ldr	r1, [r2, #60]	@ 0x3c
  if (pll2m != 0U)
 8005d98:	d05b      	beq.n	8005e52 <HAL_RCCEx_GetPLL2ClockFreq+0xce>
  fracn2 = (float_t)(uint32_t)(pll2fracen * ((RCC->PLL2FRACR & RCC_PLL2FRACR_FRACN2) >> 3));
 8005d9a:	f3c1 01cc 	ubfx	r1, r1, #3, #13
  pll2fracen = (RCC->PLLCFGR & RCC_PLLCFGR_PLL2FRACEN) >> RCC_PLLCFGR_PLL2FRACEN_Pos;
 8005d9e:	f3c6 1600 	ubfx	r6, r6, #4, #1
  pllsource = (RCC->PLLCKSELR & RCC_PLLCKSELR_PLLSRC);
 8005da2:	f004 0403 	and.w	r4, r4, #3
          pll2vco = ((float_t)hsivalue / (float_t)pll2m) * ((float_t)(uint32_t)(RCC->PLL2DIVR & RCC_PLL2DIVR_N2) + (fracn2 / (float_t)0x2000) + (float_t)1);
 8005da6:	ee07 3a90 	vmov	s15, r3
  fracn2 = (float_t)(uint32_t)(pll2fracen * ((RCC->PLL2FRACR & RCC_PLL2FRACR_FRACN2) >> 3));
 8005daa:	fb06 f101 	mul.w	r1, r6, r1
    switch (pllsource)
 8005dae:	2c01      	cmp	r4, #1
          pll2vco = ((float_t)hsivalue / (float_t)pll2m) * ((float_t)(uint32_t)(RCC->PLL2DIVR & RCC_PLL2DIVR_N2) + (fracn2 / (float_t)0x2000) + (float_t)1);
 8005db0:	eeb8 7ae7 	vcvt.f32.s32	s14, s15
 8005db4:	ee06 1a90 	vmov	s13, r1
 8005db8:	eefa 6ae9 	vcvt.f32.s32	s13, s13, #13
    switch (pllsource)
 8005dbc:	d003      	beq.n	8005dc6 <HAL_RCCEx_GetPLL2ClockFreq+0x42>
 8005dbe:	2c02      	cmp	r4, #2
 8005dc0:	d06a      	beq.n	8005e98 <HAL_RCCEx_GetPLL2ClockFreq+0x114>
 8005dc2:	2c00      	cmp	r4, #0
 8005dc4:	d04a      	beq.n	8005e5c <HAL_RCCEx_GetPLL2ClockFreq+0xd8>
        pll2vco = ((float_t)CSI_VALUE / (float_t)pll2m) * ((float_t)(uint32_t)(RCC->PLL2DIVR & RCC_PLL2DIVR_N2) + (fracn2 / (float_t)0x2000) + (float_t)1);
 8005dc6:	eddf 7a38 	vldr	s15, [pc, #224]	@ 8005ea8 <HAL_RCCEx_GetPLL2ClockFreq+0x124>
 8005dca:	ee87 6a87 	vdiv.f32	s12, s15, s14
 8005dce:	6b93      	ldr	r3, [r2, #56]	@ 0x38
 8005dd0:	f3c3 0308 	ubfx	r3, r3, #0, #9
 8005dd4:	ee07 3a90 	vmov	s15, r3
 8005dd8:	eef7 5a00 	vmov.f32	s11, #112	@ 0x3f800000  1.0
 8005ddc:	eef8 7ae7 	vcvt.f32.s32	s15, s15
 8005de0:	ee77 7aa5 	vadd.f32	s15, s15, s11
 8005de4:	ee77 7aa6 	vadd.f32	s15, s15, s13
 8005de8:	ee67 7a86 	vmul.f32	s15, s15, s12
    PLL2_Clocks->PLL2_P_Frequency = (uint32_t)(float_t)(pll2vco / ((float_t)(uint32_t)((RCC->PLL2DIVR & RCC_PLL2DIVR_P2) >> 9)  + (float_t)1)) ;
 8005dec:	4a2d      	ldr	r2, [pc, #180]	@ (8005ea4 <HAL_RCCEx_GetPLL2ClockFreq+0x120>)
 8005dee:	eeb7 6a00 	vmov.f32	s12, #112	@ 0x3f800000  1.0
 8005df2:	6b93      	ldr	r3, [r2, #56]	@ 0x38
 8005df4:	f3c3 2346 	ubfx	r3, r3, #9, #7
 8005df8:	ee07 3a10 	vmov	s14, r3
 8005dfc:	eeb8 7ac7 	vcvt.f32.s32	s14, s14
}
 8005e00:	bc70      	pop	{r4, r5, r6}
    PLL2_Clocks->PLL2_P_Frequency = (uint32_t)(float_t)(pll2vco / ((float_t)(uint32_t)((RCC->PLL2DIVR & RCC_PLL2DIVR_P2) >> 9)  + (float_t)1)) ;
 8005e02:	ee37 7a06 	vadd.f32	s14, s14, s12
 8005e06:	eec7 6a87 	vdiv.f32	s13, s15, s14
 8005e0a:	eefc 6ae6 	vcvt.u32.f32	s13, s13
 8005e0e:	edc0 6a00 	vstr	s13, [r0]
    PLL2_Clocks->PLL2_Q_Frequency = (uint32_t)(float_t)(pll2vco / ((float_t)(uint32_t)((RCC->PLL2DIVR & RCC_PLL2DIVR_Q2) >> 16) + (float_t)1)) ;
 8005e12:	6b93      	ldr	r3, [r2, #56]	@ 0x38
 8005e14:	f3c3 4306 	ubfx	r3, r3, #16, #7
 8005e18:	ee07 3a10 	vmov	s14, r3
 8005e1c:	eeb8 7ac7 	vcvt.f32.s32	s14, s14
 8005e20:	ee37 7a06 	vadd.f32	s14, s14, s12
 8005e24:	eec7 6a87 	vdiv.f32	s13, s15, s14
 8005e28:	eefc 6ae6 	vcvt.u32.f32	s13, s13
 8005e2c:	edc0 6a01 	vstr	s13, [r0, #4]
    PLL2_Clocks->PLL2_R_Frequency = (uint32_t)(float_t)(pll2vco / ((float_t)(uint32_t)((RCC->PLL2DIVR & RCC_PLL2DIVR_R2) >> 24) + (float_t)1)) ;
 8005e30:	6b93      	ldr	r3, [r2, #56]	@ 0x38
 8005e32:	f3c3 6306 	ubfx	r3, r3, #24, #7
 8005e36:	ee06 3a90 	vmov	s13, r3
 8005e3a:	eef8 6ae6 	vcvt.f32.s32	s13, s13
 8005e3e:	ee76 6a86 	vadd.f32	s13, s13, s12
 8005e42:	ee87 7aa6 	vdiv.f32	s14, s15, s13
 8005e46:	eefc 7ac7 	vcvt.u32.f32	s15, s14
 8005e4a:	ee17 3a90 	vmov	r3, s15
 8005e4e:	6083      	str	r3, [r0, #8]
}
 8005e50:	4770      	bx	lr
 8005e52:	bc70      	pop	{r4, r5, r6}
    PLL2_Clocks->PLL2_P_Frequency = 0U;
 8005e54:	e9c0 3300 	strd	r3, r3, [r0]
    PLL2_Clocks->PLL2_R_Frequency = (uint32_t)(float_t)(pll2vco / ((float_t)(uint32_t)((RCC->PLL2DIVR & RCC_PLL2DIVR_R2) >> 24) + (float_t)1)) ;
 8005e58:	6083      	str	r3, [r0, #8]
}
 8005e5a:	4770      	bx	lr
        if (__HAL_RCC_GET_FLAG(RCC_FLAG_HSIDIV) != 0U)
 8005e5c:	6813      	ldr	r3, [r2, #0]
 8005e5e:	069b      	lsls	r3, r3, #26
 8005e60:	d51d      	bpl.n	8005e9e <HAL_RCCEx_GetPLL2ClockFreq+0x11a>
          hsivalue = (HSI_VALUE >> (__HAL_RCC_GET_HSI_DIVIDER() >> 3));
 8005e62:	6814      	ldr	r4, [r2, #0]
          pll2vco = ((float_t)hsivalue / (float_t)pll2m) * ((float_t)(uint32_t)(RCC->PLL2DIVR & RCC_PLL2DIVR_N2) + (fracn2 / (float_t)0x2000) + (float_t)1);
 8005e64:	eef7 7a00 	vmov.f32	s15, #112	@ 0x3f800000  1.0
 8005e68:	6b93      	ldr	r3, [r2, #56]	@ 0x38
          hsivalue = (HSI_VALUE >> (__HAL_RCC_GET_HSI_DIVIDER() >> 3));
 8005e6a:	4910      	ldr	r1, [pc, #64]	@ (8005eac <HAL_RCCEx_GetPLL2ClockFreq+0x128>)
 8005e6c:	f3c4 02c1 	ubfx	r2, r4, #3, #2
          pll2vco = ((float_t)hsivalue / (float_t)pll2m) * ((float_t)(uint32_t)(RCC->PLL2DIVR & RCC_PLL2DIVR_N2) + (fracn2 / (float_t)0x2000) + (float_t)1);
 8005e70:	f3c3 0308 	ubfx	r3, r3, #0, #9
          hsivalue = (HSI_VALUE >> (__HAL_RCC_GET_HSI_DIVIDER() >> 3));
 8005e74:	40d1      	lsrs	r1, r2
          pll2vco = ((float_t)hsivalue / (float_t)pll2m) * ((float_t)(uint32_t)(RCC->PLL2DIVR & RCC_PLL2DIVR_N2) + (fracn2 / (float_t)0x2000) + (float_t)1);
 8005e76:	ee06 3a10 	vmov	s12, r3
 8005e7a:	ee05 1a90 	vmov	s11, r1
 8005e7e:	eeb8 6ac6 	vcvt.f32.s32	s12, s12
 8005e82:	eef8 5ae5 	vcvt.f32.s32	s11, s11
 8005e86:	ee36 6a27 	vadd.f32	s12, s12, s15
 8005e8a:	eec5 7a87 	vdiv.f32	s15, s11, s14
 8005e8e:	ee36 7a26 	vadd.f32	s14, s12, s13
 8005e92:	ee67 7a87 	vmul.f32	s15, s15, s14
 8005e96:	e7a9      	b.n	8005dec <HAL_RCCEx_GetPLL2ClockFreq+0x68>
        pll2vco = ((float_t)HSE_VALUE / (float_t)pll2m) * ((float_t)(uint32_t)(RCC->PLL2DIVR & RCC_PLL2DIVR_N2) + (fracn2 / (float_t)0x2000) + (float_t)1);
 8005e98:	eddf 7a05 	vldr	s15, [pc, #20]	@ 8005eb0 <HAL_RCCEx_GetPLL2ClockFreq+0x12c>
 8005e9c:	e795      	b.n	8005dca <HAL_RCCEx_GetPLL2ClockFreq+0x46>
          pll2vco = ((float_t)HSI_VALUE / (float_t)pll2m) * ((float_t)(uint32_t)(RCC->PLL2DIVR & RCC_PLL2DIVR_N2) + (fracn2 / (float_t)0x2000) + (float_t)1);
 8005e9e:	eddf 7a05 	vldr	s15, [pc, #20]	@ 8005eb4 <HAL_RCCEx_GetPLL2ClockFreq+0x130>
 8005ea2:	e792      	b.n	8005dca <HAL_RCCEx_GetPLL2ClockFreq+0x46>
 8005ea4:	58024400 	.word	0x58024400
 8005ea8:	4a742400 	.word	0x4a742400
 8005eac:	03d09000 	.word	0x03d09000
 8005eb0:	4bbebc20 	.word	0x4bbebc20
 8005eb4:	4c742400 	.word	0x4c742400

08005eb8 <HAL_RCCEx_GetPLL3ClockFreq>:
  pllsource = (RCC->PLLCKSELR & RCC_PLLCKSELR_PLLSRC);
 8005eb8:	4a47      	ldr	r2, [pc, #284]	@ (8005fd8 <HAL_RCCEx_GetPLL3ClockFreq+0x120>)
{
 8005eba:	b470      	push	{r4, r5, r6}
  pllsource = (RCC->PLLCKSELR & RCC_PLLCKSELR_PLLSRC);
 8005ebc:	6a94      	ldr	r4, [r2, #40]	@ 0x28
  pll3m = ((RCC->PLLCKSELR & RCC_PLLCKSELR_DIVM3) >> 20)  ;
 8005ebe:	6a95      	ldr	r5, [r2, #40]	@ 0x28
  pll3fracen = (RCC->PLLCFGR & RCC_PLLCFGR_PLL3FRACEN) >> RCC_PLLCFGR_PLL3FRACEN_Pos;
 8005ec0:	6ad6      	ldr	r6, [r2, #44]	@ 0x2c
  if (pll3m != 0U)
 8005ec2:	f015 7f7c 	tst.w	r5, #66060288	@ 0x3f00000
  pll3m = ((RCC->PLLCKSELR & RCC_PLLCKSELR_DIVM3) >> 20)  ;
 8005ec6:	f3c5 5305 	ubfx	r3, r5, #20, #6
  fracn3 = (float_t)(uint32_t)(pll3fracen * ((RCC->PLL3FRACR & RCC_PLL3FRACR_FRACN3) >> 3));
 8005eca:	6c51      	ldr	r1, [r2, #68]	@ 0x44
  if (pll3m != 0U)
 8005ecc:	d05b      	beq.n	8005f86 <HAL_RCCEx_GetPLL3ClockFreq+0xce>
  fracn3 = (float_t)(uint32_t)(pll3fracen * ((RCC->PLL3FRACR & RCC_PLL3FRACR_FRACN3) >> 3));
 8005ece:	f3c1 01cc 	ubfx	r1, r1, #3, #13
  pll3fracen = (RCC->PLLCFGR & RCC_PLLCFGR_PLL3FRACEN) >> RCC_PLLCFGR_PLL3FRACEN_Pos;
 8005ed2:	f3c6 2600 	ubfx	r6, r6, #8, #1
  pllsource = (RCC->PLLCKSELR & RCC_PLLCKSELR_PLLSRC);
 8005ed6:	f004 0403 	and.w	r4, r4, #3
          pll3vco = ((float_t)hsivalue / (float_t)pll3m) * ((float_t)(uint32_t)(RCC->PLL3DIVR & RCC_PLL3DIVR_N3) + (fracn3 / (float_t)0x2000) + (float_t)1);
 8005eda:	ee07 3a90 	vmov	s15, r3
  fracn3 = (float_t)(uint32_t)(pll3fracen * ((RCC->PLL3FRACR & RCC_PLL3FRACR_FRACN3) >> 3));
 8005ede:	fb06 f101 	mul.w	r1, r6, r1
    switch (pllsource)
 8005ee2:	2c01      	cmp	r4, #1
          pll3vco = ((float_t)hsivalue / (float_t)pll3m) * ((float_t)(uint32_t)(RCC->PLL3DIVR & RCC_PLL3DIVR_N3) + (fracn3 / (float_t)0x2000) + (float_t)1);
 8005ee4:	eeb8 7ae7 	vcvt.f32.s32	s14, s15
 8005ee8:	ee06 1a90 	vmov	s13, r1
 8005eec:	eefa 6ae9 	vcvt.f32.s32	s13, s13, #13
    switch (pllsource)
 8005ef0:	d003      	beq.n	8005efa <HAL_RCCEx_GetPLL3ClockFreq+0x42>
 8005ef2:	2c02      	cmp	r4, #2
 8005ef4:	d06a      	beq.n	8005fcc <HAL_RCCEx_GetPLL3ClockFreq+0x114>
 8005ef6:	2c00      	cmp	r4, #0
 8005ef8:	d04a      	beq.n	8005f90 <HAL_RCCEx_GetPLL3ClockFreq+0xd8>
        pll3vco = ((float_t)CSI_VALUE / (float_t)pll3m) * ((float_t)(uint32_t)(RCC->PLL3DIVR & RCC_PLL3DIVR_N3) + (fracn3 / (float_t)0x2000) + (float_t)1);
 8005efa:	eddf 7a38 	vldr	s15, [pc, #224]	@ 8005fdc <HAL_RCCEx_GetPLL3ClockFreq+0x124>
 8005efe:	ee87 6a87 	vdiv.f32	s12, s15, s14
 8005f02:	6c13      	ldr	r3, [r2, #64]	@ 0x40
 8005f04:	f3c3 0308 	ubfx	r3, r3, #0, #9
 8005f08:	ee07 3a90 	vmov	s15, r3
 8005f0c:	eef7 5a00 	vmov.f32	s11, #112	@ 0x3f800000  1.0
 8005f10:	eef8 7ae7 	vcvt.f32.s32	s15, s15
 8005f14:	ee77 7aa5 	vadd.f32	s15, s15, s11
 8005f18:	ee77 7aa6 	vadd.f32	s15, s15, s13
 8005f1c:	ee67 7a86 	vmul.f32	s15, s15, s12
    PLL3_Clocks->PLL3_P_Frequency = (uint32_t)(float_t)(pll3vco / ((float_t)(uint32_t)((RCC->PLL3DIVR & RCC_PLL3DIVR_P3) >> 9)  + (float_t)1)) ;
 8005f20:	4a2d      	ldr	r2, [pc, #180]	@ (8005fd8 <HAL_RCCEx_GetPLL3ClockFreq+0x120>)
 8005f22:	eeb7 6a00 	vmov.f32	s12, #112	@ 0x3f800000  1.0
 8005f26:	6c13      	ldr	r3, [r2, #64]	@ 0x40
 8005f28:	f3c3 2346 	ubfx	r3, r3, #9, #7
 8005f2c:	ee07 3a10 	vmov	s14, r3
 8005f30:	eeb8 7ac7 	vcvt.f32.s32	s14, s14
}
 8005f34:	bc70      	pop	{r4, r5, r6}
    PLL3_Clocks->PLL3_P_Frequency = (uint32_t)(float_t)(pll3vco / ((float_t)(uint32_t)((RCC->PLL3DIVR & RCC_PLL3DIVR_P3) >> 9)  + (float_t)1)) ;
 8005f36:	ee37 7a06 	vadd.f32	s14, s14, s12
 8005f3a:	eec7 6a87 	vdiv.f32	s13, s15, s14
 8005f3e:	eefc 6ae6 	vcvt.u32.f32	s13, s13
 8005f42:	edc0 6a00 	vstr	s13, [r0]
    PLL3_Clocks->PLL3_Q_Frequency = (uint32_t)(float_t)(pll3vco / ((float_t)(uint32_t)((RCC->PLL3DIVR & RCC_PLL3DIVR_Q3) >> 16) + (float_t)1)) ;
 8005f46:	6c13      	ldr	r3, [r2, #64]	@ 0x40
 8005f48:	f3c3 4306 	ubfx	r3, r3, #16, #7
 8005f4c:	ee07 3a10 	vmov	s14, r3
 8005f50:	eeb8 7ac7 	vcvt.f32.s32	s14, s14
 8005f54:	ee37 7a06 	vadd.f32	s14, s14, s12
 8005f58:	eec7 6a87 	vdiv.f32	s13, s15, s14
 8005f5c:	eefc 6ae6 	vcvt.u32.f32	s13, s13
 8005f60:	edc0 6a01 	vstr	s13, [r0, #4]
    PLL3_Clocks->PLL3_R_Frequency = (uint32_t)(float_t)(pll3vco / ((float_t)(uint32_t)((RCC->PLL3DIVR & RCC_PLL3DIVR_R3) >> 24) + (float_t)1)) ;
 8005f64:	6c13      	ldr	r3, [r2, #64]	@ 0x40
 8005f66:	f3c3 6306 	ubfx	r3, r3, #24, #7
 8005f6a:	ee06 3a90 	vmov	s13, r3
 8005f6e:	eef8 6ae6 	vcvt.f32.s32	s13, s13
 8005f72:	ee76 6a86 	vadd.f32	s13, s13, s12
 8005f76:	ee87 7aa6 	vdiv.f32	s14, s15, s13
 8005f7a:	eefc 7ac7 	vcvt.u32.f32	s15, s14
 8005f7e:	ee17 3a90 	vmov	r3, s15
 8005f82:	6083      	str	r3, [r0, #8]
}
 8005f84:	4770      	bx	lr
 8005f86:	bc70      	pop	{r4, r5, r6}
    PLL3_Clocks->PLL3_P_Frequency = 0U;
 8005f88:	e9c0 3300 	strd	r3, r3, [r0]
    PLL3_Clocks->PLL3_R_Frequency = (uint32_t)(float_t)(pll3vco / ((float_t)(uint32_t)((RCC->PLL3DIVR & RCC_PLL3DIVR_R3) >> 24) + (float_t)1)) ;
 8005f8c:	6083      	str	r3, [r0, #8]
}
 8005f8e:	4770      	bx	lr
        if (__HAL_RCC_GET_FLAG(RCC_FLAG_HSIDIV) != 0U)
 8005f90:	6813      	ldr	r3, [r2, #0]
 8005f92:	069b      	lsls	r3, r3, #26
 8005f94:	d51d      	bpl.n	8005fd2 <HAL_RCCEx_GetPLL3ClockFreq+0x11a>
          hsivalue = (HSI_VALUE >> (__HAL_RCC_GET_HSI_DIVIDER() >> 3));
 8005f96:	6814      	ldr	r4, [r2, #0]
          pll3vco = ((float_t)hsivalue / (float_t)pll3m) * ((float_t)(uint32_t)(RCC->PLL3DIVR & RCC_PLL3DIVR_N3) + (fracn3 / (float_t)0x2000) + (float_t)1);
 8005f98:	eef7 7a00 	vmov.f32	s15, #112	@ 0x3f800000  1.0
 8005f9c:	6c13      	ldr	r3, [r2, #64]	@ 0x40
          hsivalue = (HSI_VALUE >> (__HAL_RCC_GET_HSI_DIVIDER() >> 3));
 8005f9e:	4910      	ldr	r1, [pc, #64]	@ (8005fe0 <HAL_RCCEx_GetPLL3ClockFreq+0x128>)
 8005fa0:	f3c4 02c1 	ubfx	r2, r4, #3, #2
          pll3vco = ((float_t)hsivalue / (float_t)pll3m) * ((float_t)(uint32_t)(RCC->PLL3DIVR & RCC_PLL3DIVR_N3) + (fracn3 / (float_t)0x2000) + (float_t)1);
 8005fa4:	f3c3 0308 	ubfx	r3, r3, #0, #9
          hsivalue = (HSI_VALUE >> (__HAL_RCC_GET_HSI_DIVIDER() >> 3));
 8005fa8:	40d1      	lsrs	r1, r2
          pll3vco = ((float_t)hsivalue / (float_t)pll3m) * ((float_t)(uint32_t)(RCC->PLL3DIVR & RCC_PLL3DIVR_N3) + (fracn3 / (float_t)0x2000) + (float_t)1);
 8005faa:	ee06 3a10 	vmov	s12, r3
 8005fae:	ee05 1a90 	vmov	s11, r1
 8005fb2:	eeb8 6ac6 	vcvt.f32.s32	s12, s12
 8005fb6:	eef8 5ae5 	vcvt.f32.s32	s11, s11
 8005fba:	ee36 6a27 	vadd.f32	s12, s12, s15
 8005fbe:	eec5 7a87 	vdiv.f32	s15, s11, s14
 8005fc2:	ee36 7a26 	vadd.f32	s14, s12, s13
 8005fc6:	ee67 7a87 	vmul.f32	s15, s15, s14
 8005fca:	e7a9      	b.n	8005f20 <HAL_RCCEx_GetPLL3ClockFreq+0x68>
        pll3vco = ((float_t)HSE_VALUE / (float_t)pll3m) * ((float_t)(uint32_t)(RCC->PLL3DIVR & RCC_PLL3DIVR_N3) + (fracn3 / (float_t)0x2000) + (float_t)1);
 8005fcc:	eddf 7a05 	vldr	s15, [pc, #20]	@ 8005fe4 <HAL_RCCEx_GetPLL3ClockFreq+0x12c>
 8005fd0:	e795      	b.n	8005efe <HAL_RCCEx_GetPLL3ClockFreq+0x46>
          pll3vco = ((float_t)HSI_VALUE / (float_t)pll3m) * ((float_t)(uint32_t)(RCC->PLL3DIVR & RCC_PLL3DIVR_N3) + (fracn3 / (float_t)0x2000) + (float_t)1);
 8005fd2:	eddf 7a05 	vldr	s15, [pc, #20]	@ 8005fe8 <HAL_RCCEx_GetPLL3ClockFreq+0x130>
 8005fd6:	e792      	b.n	8005efe <HAL_RCCEx_GetPLL3ClockFreq+0x46>
 8005fd8:	58024400 	.word	0x58024400
 8005fdc:	4a742400 	.word	0x4a742400
 8005fe0:	03d09000 	.word	0x03d09000
 8005fe4:	4bbebc20 	.word	0x4bbebc20
 8005fe8:	4c742400 	.word	0x4c742400

08005fec <HAL_RCCEx_GetPLL1ClockFreq>:
  pllsource = (RCC->PLLCKSELR & RCC_PLLCKSELR_PLLSRC);
 8005fec:	4a47      	ldr	r2, [pc, #284]	@ (800610c <HAL_RCCEx_GetPLL1ClockFreq+0x120>)
{
 8005fee:	b470      	push	{r4, r5, r6}
  pllsource = (RCC->PLLCKSELR & RCC_PLLCKSELR_PLLSRC);
 8005ff0:	6a94      	ldr	r4, [r2, #40]	@ 0x28
  pll1m = ((RCC->PLLCKSELR & RCC_PLLCKSELR_DIVM1) >> 4);
 8005ff2:	6a95      	ldr	r5, [r2, #40]	@ 0x28
  pll1fracen = RCC->PLLCFGR & RCC_PLLCFGR_PLL1FRACEN;
 8005ff4:	6ad6      	ldr	r6, [r2, #44]	@ 0x2c
  if (pll1m != 0U)
 8005ff6:	f415 7f7c 	tst.w	r5, #1008	@ 0x3f0
  pll1m = ((RCC->PLLCKSELR & RCC_PLLCKSELR_DIVM1) >> 4);
 8005ffa:	f3c5 1305 	ubfx	r3, r5, #4, #6
  fracn1 = (float_t)(uint32_t)(pll1fracen * ((RCC->PLL1FRACR & RCC_PLL1FRACR_FRACN1) >> 3));
 8005ffe:	6b51      	ldr	r1, [r2, #52]	@ 0x34
  if (pll1m != 0U)
 8006000:	d05b      	beq.n	80060ba <HAL_RCCEx_GetPLL1ClockFreq+0xce>
  fracn1 = (float_t)(uint32_t)(pll1fracen * ((RCC->PLL1FRACR & RCC_PLL1FRACR_FRACN1) >> 3));
 8006002:	f3c1 01cc 	ubfx	r1, r1, #3, #13
  pll1fracen = RCC->PLLCFGR & RCC_PLLCFGR_PLL1FRACEN;
 8006006:	f006 0601 	and.w	r6, r6, #1
  pllsource = (RCC->PLLCKSELR & RCC_PLLCKSELR_PLLSRC);
 800600a:	f004 0403 	and.w	r4, r4, #3
          pll1vco = ((float_t)hsivalue / (float_t)pll1m) * ((float_t)(uint32_t)(RCC->PLL1DIVR & RCC_PLL1DIVR_N1) + (fracn1 / (float_t)0x2000) + (float_t)1);
 800600e:	ee07 3a90 	vmov	s15, r3
  fracn1 = (float_t)(uint32_t)(pll1fracen * ((RCC->PLL1FRACR & RCC_PLL1FRACR_FRACN1) >> 3));
 8006012:	fb06 f101 	mul.w	r1, r6, r1
    switch (pllsource)
 8006016:	2c01      	cmp	r4, #1
          pll1vco = ((float_t)hsivalue / (float_t)pll1m) * ((float_t)(uint32_t)(RCC->PLL1DIVR & RCC_PLL1DIVR_N1) + (fracn1 / (float_t)0x2000) + (float_t)1);
 8006018:	eeb8 7ae7 	vcvt.f32.s32	s14, s15
 800601c:	ee06 1a90 	vmov	s13, r1
 8006020:	eefa 6ae9 	vcvt.f32.s32	s13, s13, #13
    switch (pllsource)
 8006024:	d04e      	beq.n	80060c4 <HAL_RCCEx_GetPLL1ClockFreq+0xd8>
 8006026:	2c02      	cmp	r4, #2
 8006028:	d06d      	beq.n	8006106 <HAL_RCCEx_GetPLL1ClockFreq+0x11a>
 800602a:	2c00      	cmp	r4, #0
 800602c:	d04d      	beq.n	80060ca <HAL_RCCEx_GetPLL1ClockFreq+0xde>
        pll1vco = ((float_t)HSI_VALUE / (float_t)pll1m) * ((float_t)(uint32_t)(RCC->PLL1DIVR & RCC_PLL1DIVR_N1) + (fracn1 / (float_t)0x2000) + (float_t)1);
 800602e:	eddf 7a38 	vldr	s15, [pc, #224]	@ 8006110 <HAL_RCCEx_GetPLL1ClockFreq+0x124>
 8006032:	ee87 6a87 	vdiv.f32	s12, s15, s14
 8006036:	6b13      	ldr	r3, [r2, #48]	@ 0x30
 8006038:	f3c3 0308 	ubfx	r3, r3, #0, #9
 800603c:	ee07 3a90 	vmov	s15, r3
 8006040:	eef7 5a00 	vmov.f32	s11, #112	@ 0x3f800000  1.0
 8006044:	eef8 7ae7 	vcvt.f32.s32	s15, s15
 8006048:	ee77 7aa5 	vadd.f32	s15, s15, s11
 800604c:	ee77 7aa6 	vadd.f32	s15, s15, s13
 8006050:	ee67 7a86 	vmul.f32	s15, s15, s12
    PLL1_Clocks->PLL1_P_Frequency = (uint32_t)(float_t)(pll1vco / ((float_t)(uint32_t)((RCC->PLL1DIVR & RCC_PLL1DIVR_P1) >> 9)  + (float_t)1)) ;
 8006054:	4a2d      	ldr	r2, [pc, #180]	@ (800610c <HAL_RCCEx_GetPLL1ClockFreq+0x120>)
 8006056:	eeb7 6a00 	vmov.f32	s12, #112	@ 0x3f800000  1.0
 800605a:	6b13      	ldr	r3, [r2, #48]	@ 0x30
 800605c:	f3c3 2346 	ubfx	r3, r3, #9, #7
 8006060:	ee07 3a10 	vmov	s14, r3
 8006064:	eeb8 7ac7 	vcvt.f32.s32	s14, s14
}
 8006068:	bc70      	pop	{r4, r5, r6}
    PLL1_Clocks->PLL1_P_Frequency = (uint32_t)(float_t)(pll1vco / ((float_t)(uint32_t)((RCC->PLL1DIVR & RCC_PLL1DIVR_P1) >> 9)  + (float_t)1)) ;
 800606a:	ee37 7a06 	vadd.f32	s14, s14, s12
 800606e:	eec7 6a87 	vdiv.f32	s13, s15, s14
 8006072:	eefc 6ae6 	vcvt.u32.f32	s13, s13
 8006076:	edc0 6a00 	vstr	s13, [r0]
    PLL1_Clocks->PLL1_Q_Frequency = (uint32_t)(float_t)(pll1vco / ((float_t)(uint32_t)((RCC->PLL1DIVR & RCC_PLL1DIVR_Q1) >> 16) + (float_t)1)) ;
 800607a:	6b13      	ldr	r3, [r2, #48]	@ 0x30
 800607c:	f3c3 4306 	ubfx	r3, r3, #16, #7
 8006080:	ee07 3a10 	vmov	s14, r3
 8006084:	eeb8 7ac7 	vcvt.f32.s32	s14, s14
 8006088:	ee37 7a06 	vadd.f32	s14, s14, s12
 800608c:	eec7 6a87 	vdiv.f32	s13, s15, s14
 8006090:	eefc 6ae6 	vcvt.u32.f32	s13, s13
 8006094:	edc0 6a01 	vstr	s13, [r0, #4]
    PLL1_Clocks->PLL1_R_Frequency = (uint32_t)(float_t)(pll1vco / ((float_t)(uint32_t)((RCC->PLL1DIVR & RCC_PLL1DIVR_R1) >> 24) + (float_t)1)) ;
 8006098:	6b13      	ldr	r3, [r2, #48]	@ 0x30
 800609a:	f3c3 6306 	ubfx	r3, r3, #24, #7
 800609e:	ee06 3a90 	vmov	s13, r3
 80060a2:	eef8 6ae6 	vcvt.f32.s32	s13, s13
 80060a6:	ee76 6a86 	vadd.f32	s13, s13, s12
 80060aa:	ee87 7aa6 	vdiv.f32	s14, s15, s13
 80060ae:	eefc 7ac7 	vcvt.u32.f32	s15, s14
 80060b2:	ee17 3a90 	vmov	r3, s15
 80060b6:	6083      	str	r3, [r0, #8]
}
 80060b8:	4770      	bx	lr
 80060ba:	bc70      	pop	{r4, r5, r6}
    PLL1_Clocks->PLL1_P_Frequency = 0U;
 80060bc:	e9c0 3300 	strd	r3, r3, [r0]
    PLL1_Clocks->PLL1_R_Frequency = (uint32_t)(float_t)(pll1vco / ((float_t)(uint32_t)((RCC->PLL1DIVR & RCC_PLL1DIVR_R1) >> 24) + (float_t)1)) ;
 80060c0:	6083      	str	r3, [r0, #8]
}
 80060c2:	4770      	bx	lr
        pll1vco = ((float_t)CSI_VALUE / (float_t)pll1m) * ((float_t)(uint32_t)(RCC->PLL1DIVR & RCC_PLL1DIVR_N1) + (fracn1 / (float_t)0x2000) + (float_t)1);
 80060c4:	eddf 7a13 	vldr	s15, [pc, #76]	@ 8006114 <HAL_RCCEx_GetPLL1ClockFreq+0x128>
 80060c8:	e7b3      	b.n	8006032 <HAL_RCCEx_GetPLL1ClockFreq+0x46>
        if (__HAL_RCC_GET_FLAG(RCC_FLAG_HSIDIV) != 0U)
 80060ca:	6813      	ldr	r3, [r2, #0]
 80060cc:	069b      	lsls	r3, r3, #26
 80060ce:	d5ae      	bpl.n	800602e <HAL_RCCEx_GetPLL1ClockFreq+0x42>
          hsivalue = (HSI_VALUE >> (__HAL_RCC_GET_HSI_DIVIDER() >> 3));
 80060d0:	6814      	ldr	r4, [r2, #0]
          pll1vco = ((float_t)hsivalue / (float_t)pll1m) * ((float_t)(uint32_t)(RCC->PLL1DIVR & RCC_PLL1DIVR_N1) + (fracn1 / (float_t)0x2000) + (float_t)1);
 80060d2:	eef7 7a00 	vmov.f32	s15, #112	@ 0x3f800000  1.0
 80060d6:	6b13      	ldr	r3, [r2, #48]	@ 0x30
          hsivalue = (HSI_VALUE >> (__HAL_RCC_GET_HSI_DIVIDER() >> 3));
 80060d8:	490f      	ldr	r1, [pc, #60]	@ (8006118 <HAL_RCCEx_GetPLL1ClockFreq+0x12c>)
 80060da:	f3c4 02c1 	ubfx	r2, r4, #3, #2
          pll1vco = ((float_t)hsivalue / (float_t)pll1m) * ((float_t)(uint32_t)(RCC->PLL1DIVR & RCC_PLL1DIVR_N1) + (fracn1 / (float_t)0x2000) + (float_t)1);
 80060de:	f3c3 0308 	ubfx	r3, r3, #0, #9
          hsivalue = (HSI_VALUE >> (__HAL_RCC_GET_HSI_DIVIDER() >> 3));
 80060e2:	40d1      	lsrs	r1, r2
          pll1vco = ((float_t)hsivalue / (float_t)pll1m) * ((float_t)(uint32_t)(RCC->PLL1DIVR & RCC_PLL1DIVR_N1) + (fracn1 / (float_t)0x2000) + (float_t)1);
 80060e4:	ee06 3a10 	vmov	s12, r3
 80060e8:	ee05 1a90 	vmov	s11, r1
 80060ec:	eeb8 6ac6 	vcvt.f32.s32	s12, s12
 80060f0:	eef8 5ae5 	vcvt.f32.s32	s11, s11
 80060f4:	ee36 6a27 	vadd.f32	s12, s12, s15
 80060f8:	eec5 7a87 	vdiv.f32	s15, s11, s14
 80060fc:	ee36 7a26 	vadd.f32	s14, s12, s13
 8006100:	ee67 7a87 	vmul.f32	s15, s15, s14
 8006104:	e7a6      	b.n	8006054 <HAL_RCCEx_GetPLL1ClockFreq+0x68>
        pll1vco = ((float_t)HSE_VALUE / (float_t)pll1m) * ((float_t)(uint32_t)(RCC->PLL1DIVR & RCC_PLL1DIVR_N1) + (fracn1 / (float_t)0x2000) + (float_t)1);
 8006106:	eddf 7a05 	vldr	s15, [pc, #20]	@ 800611c <HAL_RCCEx_GetPLL1ClockFreq+0x130>
 800610a:	e792      	b.n	8006032 <HAL_RCCEx_GetPLL1ClockFreq+0x46>
 800610c:	58024400 	.word	0x58024400
 8006110:	4c742400 	.word	0x4c742400
 8006114:	4a742400 	.word	0x4a742400
 8006118:	03d09000 	.word	0x03d09000
 800611c:	4bbebc20 	.word	0x4bbebc20

08006120 <HAL_RCCEx_GetPeriphCLKFreq>:
  if (PeriphClk == RCC_PERIPHCLK_SAI1)
 8006120:	f5a0 7380 	sub.w	r3, r0, #256	@ 0x100
 8006124:	430b      	orrs	r3, r1
{
 8006126:	b500      	push	{lr}
 8006128:	b085      	sub	sp, #20
  if (PeriphClk == RCC_PERIPHCLK_SAI1)
 800612a:	d04c      	beq.n	80061c6 <HAL_RCCEx_GetPeriphCLKFreq+0xa6>
  else if (PeriphClk == RCC_PERIPHCLK_SAI23)
 800612c:	f5a0 7300 	sub.w	r3, r0, #512	@ 0x200
 8006130:	430b      	orrs	r3, r1
 8006132:	d036      	beq.n	80061a2 <HAL_RCCEx_GetPeriphCLKFreq+0x82>
  else if (PeriphClk == RCC_PERIPHCLK_SAI4A)
 8006134:	f5a0 6380 	sub.w	r3, r0, #1024	@ 0x400
 8006138:	430b      	orrs	r3, r1
 800613a:	d06c      	beq.n	8006216 <HAL_RCCEx_GetPeriphCLKFreq+0xf6>
  else if (PeriphClk == RCC_PERIPHCLK_SAI4B)
 800613c:	f5a0 6300 	sub.w	r3, r0, #2048	@ 0x800
 8006140:	430b      	orrs	r3, r1
 8006142:	d04b      	beq.n	80061dc <HAL_RCCEx_GetPeriphCLKFreq+0xbc>
  else if (PeriphClk == RCC_PERIPHCLK_SPI123)
 8006144:	f5a0 5380 	sub.w	r3, r0, #4096	@ 0x1000
 8006148:	430b      	orrs	r3, r1
 800614a:	f000 80b6 	beq.w	80062ba <HAL_RCCEx_GetPeriphCLKFreq+0x19a>
  else if (PeriphClk == RCC_PERIPHCLK_SPI45)
 800614e:	f5a0 5300 	sub.w	r3, r0, #8192	@ 0x2000
 8006152:	430b      	orrs	r3, r1
 8006154:	f000 80ec 	beq.w	8006330 <HAL_RCCEx_GetPeriphCLKFreq+0x210>
  else if (PeriphClk == RCC_PERIPHCLK_ADC)
 8006158:	f5a0 2300 	sub.w	r3, r0, #524288	@ 0x80000
 800615c:	430b      	orrs	r3, r1
 800615e:	d069      	beq.n	8006234 <HAL_RCCEx_GetPeriphCLKFreq+0x114>
  else if (PeriphClk == RCC_PERIPHCLK_SDMMC)
 8006160:	f5a0 3380 	sub.w	r3, r0, #65536	@ 0x10000
 8006164:	430b      	orrs	r3, r1
 8006166:	f000 80d6 	beq.w	8006316 <HAL_RCCEx_GetPeriphCLKFreq+0x1f6>
  else if (PeriphClk == RCC_PERIPHCLK_SPI6)
 800616a:	f5a0 4380 	sub.w	r3, r0, #16384	@ 0x4000
 800616e:	430b      	orrs	r3, r1
 8006170:	f000 8109 	beq.w	8006386 <HAL_RCCEx_GetPeriphCLKFreq+0x266>
  else if (PeriphClk == RCC_PERIPHCLK_FDCAN)
 8006174:	f5a0 4000 	sub.w	r0, r0, #32768	@ 0x8000
 8006178:	4308      	orrs	r0, r1
 800617a:	d120      	bne.n	80061be <HAL_RCCEx_GetPeriphCLKFreq+0x9e>
    srcclk = __HAL_RCC_GET_FDCAN_SOURCE();
 800617c:	4a95      	ldr	r2, [pc, #596]	@ (80063d4 <HAL_RCCEx_GetPeriphCLKFreq+0x2b4>)
 800617e:	6d13      	ldr	r3, [r2, #80]	@ 0x50
 8006180:	f003 5340 	and.w	r3, r3, #805306368	@ 0x30000000
    switch (srcclk)
 8006184:	f1b3 5f80 	cmp.w	r3, #268435456	@ 0x10000000
 8006188:	f000 80aa 	beq.w	80062e0 <HAL_RCCEx_GetPeriphCLKFreq+0x1c0>
 800618c:	f1b3 5f00 	cmp.w	r3, #536870912	@ 0x20000000
 8006190:	f000 8116 	beq.w	80063c0 <HAL_RCCEx_GetPeriphCLKFreq+0x2a0>
 8006194:	b99b      	cbnz	r3, 80061be <HAL_RCCEx_GetPeriphCLKFreq+0x9e>
        if (HAL_IS_BIT_SET(RCC->CR, RCC_CR_HSERDY))
 8006196:	6810      	ldr	r0, [r2, #0]
 8006198:	f410 3000 	ands.w	r0, r0, #131072	@ 0x20000
 800619c:	d047      	beq.n	800622e <HAL_RCCEx_GetPeriphCLKFreq+0x10e>
          frequency = HSE_VALUE;
 800619e:	488e      	ldr	r0, [pc, #568]	@ (80063d8 <HAL_RCCEx_GetPeriphCLKFreq+0x2b8>)
  return frequency;
 80061a0:	e045      	b.n	800622e <HAL_RCCEx_GetPeriphCLKFreq+0x10e>
    saiclocksource = __HAL_RCC_GET_SAI23_SOURCE();
 80061a2:	4a8c      	ldr	r2, [pc, #560]	@ (80063d4 <HAL_RCCEx_GetPeriphCLKFreq+0x2b4>)
 80061a4:	6d13      	ldr	r3, [r2, #80]	@ 0x50
 80061a6:	f403 73e0 	and.w	r3, r3, #448	@ 0x1c0
    switch (saiclocksource)
 80061aa:	2b80      	cmp	r3, #128	@ 0x80
 80061ac:	f000 8093 	beq.w	80062d6 <HAL_RCCEx_GetPeriphCLKFreq+0x1b6>
 80061b0:	f240 808b 	bls.w	80062ca <HAL_RCCEx_GetPeriphCLKFreq+0x1aa>
 80061b4:	2bc0      	cmp	r3, #192	@ 0xc0
 80061b6:	d039      	beq.n	800622c <HAL_RCCEx_GetPeriphCLKFreq+0x10c>
 80061b8:	f5b3 7f80 	cmp.w	r3, #256	@ 0x100
 80061bc:	d05c      	beq.n	8006278 <HAL_RCCEx_GetPeriphCLKFreq+0x158>
          frequency = 0;
 80061be:	2000      	movs	r0, #0
}
 80061c0:	b005      	add	sp, #20
 80061c2:	f85d fb04 	ldr.w	pc, [sp], #4
    saiclocksource = __HAL_RCC_GET_SAI1_SOURCE();
 80061c6:	4b83      	ldr	r3, [pc, #524]	@ (80063d4 <HAL_RCCEx_GetPeriphCLKFreq+0x2b4>)
 80061c8:	6d1b      	ldr	r3, [r3, #80]	@ 0x50
 80061ca:	f003 0307 	and.w	r3, r3, #7
    switch (saiclocksource)
 80061ce:	2b04      	cmp	r3, #4
 80061d0:	d8f5      	bhi.n	80061be <HAL_RCCEx_GetPeriphCLKFreq+0x9e>
 80061d2:	e8df f003 	tbb	[pc, r3]
 80061d6:	3c68      	.short	0x3c68
 80061d8:	2b46      	.short	0x2b46
 80061da:	50          	.byte	0x50
 80061db:	00          	.byte	0x00
    saiclocksource = __HAL_RCC_GET_SAI4B_SOURCE();
 80061dc:	4a7d      	ldr	r2, [pc, #500]	@ (80063d4 <HAL_RCCEx_GetPeriphCLKFreq+0x2b4>)
 80061de:	6d93      	ldr	r3, [r2, #88]	@ 0x58
 80061e0:	f003 63e0 	and.w	r3, r3, #117440512	@ 0x7000000
    switch (saiclocksource)
 80061e4:	f1b3 7f00 	cmp.w	r3, #33554432	@ 0x2000000
 80061e8:	d075      	beq.n	80062d6 <HAL_RCCEx_GetPeriphCLKFreq+0x1b6>
 80061ea:	d96e      	bls.n	80062ca <HAL_RCCEx_GetPeriphCLKFreq+0x1aa>
 80061ec:	f1b3 7f40 	cmp.w	r3, #50331648	@ 0x3000000
 80061f0:	d01c      	beq.n	800622c <HAL_RCCEx_GetPeriphCLKFreq+0x10c>
 80061f2:	f1b3 6f80 	cmp.w	r3, #67108864	@ 0x4000000
 80061f6:	d1e2      	bne.n	80061be <HAL_RCCEx_GetPeriphCLKFreq+0x9e>
        ckpclocksource = __HAL_RCC_GET_CLKP_SOURCE();
 80061f8:	6cd3      	ldr	r3, [r2, #76]	@ 0x4c
        if ((HAL_IS_BIT_SET(RCC->CR, RCC_CR_HSIRDY)) && (ckpclocksource == RCC_CLKPSOURCE_HSI))
 80061fa:	6812      	ldr	r2, [r2, #0]
        ckpclocksource = __HAL_RCC_GET_CLKP_SOURCE();
 80061fc:	f003 5340 	and.w	r3, r3, #805306368	@ 0x30000000
        if ((HAL_IS_BIT_SET(RCC->CR, RCC_CR_HSIRDY)) && (ckpclocksource == RCC_CLKPSOURCE_HSI))
 8006200:	0752      	lsls	r2, r2, #29
 8006202:	d541      	bpl.n	8006288 <HAL_RCCEx_GetPeriphCLKFreq+0x168>
 8006204:	2b00      	cmp	r3, #0
 8006206:	d13f      	bne.n	8006288 <HAL_RCCEx_GetPeriphCLKFreq+0x168>
          frequency = (HSI_VALUE >> (__HAL_RCC_GET_HSI_DIVIDER() >> 3));
 8006208:	4b72      	ldr	r3, [pc, #456]	@ (80063d4 <HAL_RCCEx_GetPeriphCLKFreq+0x2b4>)
 800620a:	4874      	ldr	r0, [pc, #464]	@ (80063dc <HAL_RCCEx_GetPeriphCLKFreq+0x2bc>)
 800620c:	681b      	ldr	r3, [r3, #0]
 800620e:	f3c3 03c1 	ubfx	r3, r3, #3, #2
 8006212:	40d8      	lsrs	r0, r3
 8006214:	e00b      	b.n	800622e <HAL_RCCEx_GetPeriphCLKFreq+0x10e>
    saiclocksource = __HAL_RCC_GET_SAI4A_SOURCE();
 8006216:	4a6f      	ldr	r2, [pc, #444]	@ (80063d4 <HAL_RCCEx_GetPeriphCLKFreq+0x2b4>)
 8006218:	6d93      	ldr	r3, [r2, #88]	@ 0x58
 800621a:	f403 0360 	and.w	r3, r3, #14680064	@ 0xe00000
    switch (saiclocksource)
 800621e:	f5b3 0f80 	cmp.w	r3, #4194304	@ 0x400000
 8006222:	d058      	beq.n	80062d6 <HAL_RCCEx_GetPeriphCLKFreq+0x1b6>
 8006224:	d951      	bls.n	80062ca <HAL_RCCEx_GetPeriphCLKFreq+0x1aa>
 8006226:	f5b3 0fc0 	cmp.w	r3, #6291456	@ 0x600000
 800622a:	d15e      	bne.n	80062ea <HAL_RCCEx_GetPeriphCLKFreq+0x1ca>
        frequency = EXTERNAL_CLOCK_VALUE;
 800622c:	486c      	ldr	r0, [pc, #432]	@ (80063e0 <HAL_RCCEx_GetPeriphCLKFreq+0x2c0>)
}
 800622e:	b005      	add	sp, #20
 8006230:	f85d fb04 	ldr.w	pc, [sp], #4
    srcclk = __HAL_RCC_GET_ADC_SOURCE();
 8006234:	4a67      	ldr	r2, [pc, #412]	@ (80063d4 <HAL_RCCEx_GetPeriphCLKFreq+0x2b4>)
 8006236:	6d93      	ldr	r3, [r2, #88]	@ 0x58
 8006238:	f403 3340 	and.w	r3, r3, #196608	@ 0x30000
    switch (srcclk)
 800623c:	f5b3 3f80 	cmp.w	r3, #65536	@ 0x10000
 8006240:	f000 80df 	beq.w	8006402 <HAL_RCCEx_GetPeriphCLKFreq+0x2e2>
 8006244:	f5b3 3f00 	cmp.w	r3, #131072	@ 0x20000
 8006248:	d0d6      	beq.n	80061f8 <HAL_RCCEx_GetPeriphCLKFreq+0xd8>
 800624a:	2b00      	cmp	r3, #0
 800624c:	d1b7      	bne.n	80061be <HAL_RCCEx_GetPeriphCLKFreq+0x9e>
        if (HAL_IS_BIT_SET(RCC->CR, RCC_CR_PLL2RDY))
 800624e:	4b61      	ldr	r3, [pc, #388]	@ (80063d4 <HAL_RCCEx_GetPeriphCLKFreq+0x2b4>)
 8006250:	6818      	ldr	r0, [r3, #0]
 8006252:	f010 6000 	ands.w	r0, r0, #134217728	@ 0x8000000
 8006256:	d0ea      	beq.n	800622e <HAL_RCCEx_GetPeriphCLKFreq+0x10e>
          HAL_RCCEx_GetPLL2ClockFreq(&pll2_clocks);
 8006258:	a801      	add	r0, sp, #4
 800625a:	f7ff fd93 	bl	8005d84 <HAL_RCCEx_GetPLL2ClockFreq>
          frequency = pll2_clocks.PLL2_P_Frequency;
 800625e:	9801      	ldr	r0, [sp, #4]
 8006260:	e7e5      	b.n	800622e <HAL_RCCEx_GetPeriphCLKFreq+0x10e>
        if (HAL_IS_BIT_SET(RCC->CR, RCC_CR_PLL3RDY))
 8006262:	4b5c      	ldr	r3, [pc, #368]	@ (80063d4 <HAL_RCCEx_GetPeriphCLKFreq+0x2b4>)
 8006264:	6818      	ldr	r0, [r3, #0]
 8006266:	f010 5000 	ands.w	r0, r0, #536870912	@ 0x20000000
 800626a:	d0e0      	beq.n	800622e <HAL_RCCEx_GetPeriphCLKFreq+0x10e>
          HAL_RCCEx_GetPLL3ClockFreq(&pll3_clocks);
 800626c:	a801      	add	r0, sp, #4
 800626e:	f7ff fe23 	bl	8005eb8 <HAL_RCCEx_GetPLL3ClockFreq>
          frequency = pll3_clocks.PLL3_P_Frequency;
 8006272:	9801      	ldr	r0, [sp, #4]
 8006274:	e7db      	b.n	800622e <HAL_RCCEx_GetPeriphCLKFreq+0x10e>
        ckpclocksource = __HAL_RCC_GET_CLKP_SOURCE();
 8006276:	4a57      	ldr	r2, [pc, #348]	@ (80063d4 <HAL_RCCEx_GetPeriphCLKFreq+0x2b4>)
        ckpclocksource = __HAL_RCC_GET_CLKP_SOURCE();
 8006278:	6cd3      	ldr	r3, [r2, #76]	@ 0x4c
        if ((HAL_IS_BIT_SET(RCC->CR, RCC_CR_HSIRDY)) && (ckpclocksource == RCC_CLKPSOURCE_HSI))
 800627a:	6811      	ldr	r1, [r2, #0]
        ckpclocksource = __HAL_RCC_GET_CLKP_SOURCE();
 800627c:	f003 5340 	and.w	r3, r3, #805306368	@ 0x30000000
        if ((HAL_IS_BIT_SET(RCC->CR, RCC_CR_HSIRDY)) && (ckpclocksource == RCC_CLKPSOURCE_HSI))
 8006280:	0749      	lsls	r1, r1, #29
 8006282:	d501      	bpl.n	8006288 <HAL_RCCEx_GetPeriphCLKFreq+0x168>
 8006284:	2b00      	cmp	r3, #0
 8006286:	d038      	beq.n	80062fa <HAL_RCCEx_GetPeriphCLKFreq+0x1da>
        else if ((HAL_IS_BIT_SET(RCC->CR, RCC_CR_CSIRDY)) && (ckpclocksource == RCC_CLKPSOURCE_CSI))
 8006288:	4a52      	ldr	r2, [pc, #328]	@ (80063d4 <HAL_RCCEx_GetPeriphCLKFreq+0x2b4>)
 800628a:	6812      	ldr	r2, [r2, #0]
 800628c:	05d0      	lsls	r0, r2, #23
 800628e:	d502      	bpl.n	8006296 <HAL_RCCEx_GetPeriphCLKFreq+0x176>
 8006290:	f1b3 5f80 	cmp.w	r3, #268435456	@ 0x10000000
 8006294:	d067      	beq.n	8006366 <HAL_RCCEx_GetPeriphCLKFreq+0x246>
        else if ((HAL_IS_BIT_SET(RCC->CR, RCC_CR_HSERDY)) && (ckpclocksource == RCC_CLKPSOURCE_HSE))
 8006296:	4a4f      	ldr	r2, [pc, #316]	@ (80063d4 <HAL_RCCEx_GetPeriphCLKFreq+0x2b4>)
 8006298:	6812      	ldr	r2, [r2, #0]
 800629a:	0391      	lsls	r1, r2, #14
 800629c:	d58f      	bpl.n	80061be <HAL_RCCEx_GetPeriphCLKFreq+0x9e>
 800629e:	f1b3 5f00 	cmp.w	r3, #536870912	@ 0x20000000
 80062a2:	d18c      	bne.n	80061be <HAL_RCCEx_GetPeriphCLKFreq+0x9e>
 80062a4:	e77b      	b.n	800619e <HAL_RCCEx_GetPeriphCLKFreq+0x7e>
        if (HAL_IS_BIT_SET(RCC->CR, RCC_CR_PLL1RDY))
 80062a6:	4b4b      	ldr	r3, [pc, #300]	@ (80063d4 <HAL_RCCEx_GetPeriphCLKFreq+0x2b4>)
 80062a8:	6818      	ldr	r0, [r3, #0]
 80062aa:	f010 7000 	ands.w	r0, r0, #33554432	@ 0x2000000
 80062ae:	d0be      	beq.n	800622e <HAL_RCCEx_GetPeriphCLKFreq+0x10e>
          HAL_RCCEx_GetPLL1ClockFreq(&pll1_clocks);
 80062b0:	a801      	add	r0, sp, #4
 80062b2:	f7ff fe9b 	bl	8005fec <HAL_RCCEx_GetPLL1ClockFreq>
          frequency = pll1_clocks.PLL1_Q_Frequency;
 80062b6:	9802      	ldr	r0, [sp, #8]
 80062b8:	e7b9      	b.n	800622e <HAL_RCCEx_GetPeriphCLKFreq+0x10e>
    srcclk = __HAL_RCC_GET_SPI123_SOURCE();
 80062ba:	4a46      	ldr	r2, [pc, #280]	@ (80063d4 <HAL_RCCEx_GetPeriphCLKFreq+0x2b4>)
 80062bc:	6d13      	ldr	r3, [r2, #80]	@ 0x50
 80062be:	f403 43e0 	and.w	r3, r3, #28672	@ 0x7000
    switch (srcclk)
 80062c2:	f5b3 5f00 	cmp.w	r3, #8192	@ 0x2000
 80062c6:	d006      	beq.n	80062d6 <HAL_RCCEx_GetPeriphCLKFreq+0x1b6>
 80062c8:	d81d      	bhi.n	8006306 <HAL_RCCEx_GetPeriphCLKFreq+0x1e6>
 80062ca:	b14b      	cbz	r3, 80062e0 <HAL_RCCEx_GetPeriphCLKFreq+0x1c0>
        if (HAL_IS_BIT_SET(RCC->CR, RCC_CR_PLL2RDY))
 80062cc:	6810      	ldr	r0, [r2, #0]
 80062ce:	f010 6000 	ands.w	r0, r0, #134217728	@ 0x8000000
 80062d2:	d0ac      	beq.n	800622e <HAL_RCCEx_GetPeriphCLKFreq+0x10e>
 80062d4:	e7c0      	b.n	8006258 <HAL_RCCEx_GetPeriphCLKFreq+0x138>
        if (HAL_IS_BIT_SET(RCC->CR, RCC_CR_PLL3RDY))
 80062d6:	6810      	ldr	r0, [r2, #0]
 80062d8:	f010 5000 	ands.w	r0, r0, #536870912	@ 0x20000000
 80062dc:	d0a7      	beq.n	800622e <HAL_RCCEx_GetPeriphCLKFreq+0x10e>
 80062de:	e7c5      	b.n	800626c <HAL_RCCEx_GetPeriphCLKFreq+0x14c>
        if (HAL_IS_BIT_SET(RCC->CR, RCC_CR_PLL1RDY))
 80062e0:	6810      	ldr	r0, [r2, #0]
 80062e2:	f010 7000 	ands.w	r0, r0, #33554432	@ 0x2000000
 80062e6:	d0a2      	beq.n	800622e <HAL_RCCEx_GetPeriphCLKFreq+0x10e>
 80062e8:	e7e2      	b.n	80062b0 <HAL_RCCEx_GetPeriphCLKFreq+0x190>
    switch (saiclocksource)
 80062ea:	f5b3 0f00 	cmp.w	r3, #8388608	@ 0x800000
 80062ee:	d0c3      	beq.n	8006278 <HAL_RCCEx_GetPeriphCLKFreq+0x158>
 80062f0:	e765      	b.n	80061be <HAL_RCCEx_GetPeriphCLKFreq+0x9e>
        if (HAL_IS_BIT_SET(RCC->CR, RCC_CR_HSIRDY))
 80062f2:	6810      	ldr	r0, [r2, #0]
 80062f4:	f010 0004 	ands.w	r0, r0, #4
 80062f8:	d099      	beq.n	800622e <HAL_RCCEx_GetPeriphCLKFreq+0x10e>
          frequency = (HSI_VALUE >> (__HAL_RCC_GET_HSI_DIVIDER() >> 3));
 80062fa:	6813      	ldr	r3, [r2, #0]
 80062fc:	4837      	ldr	r0, [pc, #220]	@ (80063dc <HAL_RCCEx_GetPeriphCLKFreq+0x2bc>)
 80062fe:	f3c3 03c1 	ubfx	r3, r3, #3, #2
 8006302:	40d8      	lsrs	r0, r3
 8006304:	e793      	b.n	800622e <HAL_RCCEx_GetPeriphCLKFreq+0x10e>
    switch (srcclk)
 8006306:	f5b3 5f40 	cmp.w	r3, #12288	@ 0x3000
 800630a:	d08f      	beq.n	800622c <HAL_RCCEx_GetPeriphCLKFreq+0x10c>
 800630c:	f5b3 4f80 	cmp.w	r3, #16384	@ 0x4000
 8006310:	f43f af72 	beq.w	80061f8 <HAL_RCCEx_GetPeriphCLKFreq+0xd8>
 8006314:	e753      	b.n	80061be <HAL_RCCEx_GetPeriphCLKFreq+0x9e>
    srcclk = __HAL_RCC_GET_SDMMC_SOURCE();
 8006316:	4b2f      	ldr	r3, [pc, #188]	@ (80063d4 <HAL_RCCEx_GetPeriphCLKFreq+0x2b4>)
 8006318:	6cda      	ldr	r2, [r3, #76]	@ 0x4c
    switch (srcclk)
 800631a:	03d2      	lsls	r2, r2, #15
 800631c:	d5c4      	bpl.n	80062a8 <HAL_RCCEx_GetPeriphCLKFreq+0x188>
        if (HAL_IS_BIT_SET(RCC->CR, RCC_CR_PLL2RDY))
 800631e:	6818      	ldr	r0, [r3, #0]
 8006320:	f010 6000 	ands.w	r0, r0, #134217728	@ 0x8000000
 8006324:	d083      	beq.n	800622e <HAL_RCCEx_GetPeriphCLKFreq+0x10e>
          HAL_RCCEx_GetPLL2ClockFreq(&pll2_clocks);
 8006326:	a801      	add	r0, sp, #4
 8006328:	f7ff fd2c 	bl	8005d84 <HAL_RCCEx_GetPLL2ClockFreq>
          frequency = pll2_clocks.PLL2_R_Frequency;
 800632c:	9803      	ldr	r0, [sp, #12]
 800632e:	e77e      	b.n	800622e <HAL_RCCEx_GetPeriphCLKFreq+0x10e>
    srcclk = __HAL_RCC_GET_SPI45_SOURCE();
 8006330:	4a28      	ldr	r2, [pc, #160]	@ (80063d4 <HAL_RCCEx_GetPeriphCLKFreq+0x2b4>)
 8006332:	6d13      	ldr	r3, [r2, #80]	@ 0x50
 8006334:	f403 23e0 	and.w	r3, r3, #458752	@ 0x70000
    switch (srcclk)
 8006338:	f5b3 3f40 	cmp.w	r3, #196608	@ 0x30000
 800633c:	d0d9      	beq.n	80062f2 <HAL_RCCEx_GetPeriphCLKFreq+0x1d2>
 800633e:	d814      	bhi.n	800636a <HAL_RCCEx_GetPeriphCLKFreq+0x24a>
 8006340:	f5b3 3f80 	cmp.w	r3, #65536	@ 0x10000
 8006344:	d03c      	beq.n	80063c0 <HAL_RCCEx_GetPeriphCLKFreq+0x2a0>
 8006346:	f5b3 3f00 	cmp.w	r3, #131072	@ 0x20000
 800634a:	d04f      	beq.n	80063ec <HAL_RCCEx_GetPeriphCLKFreq+0x2cc>
 800634c:	2b00      	cmp	r3, #0
 800634e:	f47f af36 	bne.w	80061be <HAL_RCCEx_GetPeriphCLKFreq+0x9e>
}
 8006352:	b005      	add	sp, #20
 8006354:	f85d eb04 	ldr.w	lr, [sp], #4
        frequency = HAL_RCC_GetPCLK1Freq();
 8006358:	f7fe bca8 	b.w	8004cac <HAL_RCC_GetPCLK1Freq>
        if (HAL_IS_BIT_SET(RCC->CR, RCC_CR_CSIRDY))
 800635c:	6810      	ldr	r0, [r2, #0]
 800635e:	f410 7080 	ands.w	r0, r0, #256	@ 0x100
 8006362:	f43f af64 	beq.w	800622e <HAL_RCCEx_GetPeriphCLKFreq+0x10e>
          frequency = CSI_VALUE;
 8006366:	481f      	ldr	r0, [pc, #124]	@ (80063e4 <HAL_RCCEx_GetPeriphCLKFreq+0x2c4>)
 8006368:	e761      	b.n	800622e <HAL_RCCEx_GetPeriphCLKFreq+0x10e>
    switch (srcclk)
 800636a:	f5b3 2f80 	cmp.w	r3, #262144	@ 0x40000
 800636e:	d0f5      	beq.n	800635c <HAL_RCCEx_GetPeriphCLKFreq+0x23c>
 8006370:	f5b3 2fa0 	cmp.w	r3, #327680	@ 0x50000
 8006374:	f47f af23 	bne.w	80061be <HAL_RCCEx_GetPeriphCLKFreq+0x9e>
        if (HAL_IS_BIT_SET(RCC->CR, RCC_CR_HSERDY))
 8006378:	4b16      	ldr	r3, [pc, #88]	@ (80063d4 <HAL_RCCEx_GetPeriphCLKFreq+0x2b4>)
 800637a:	6818      	ldr	r0, [r3, #0]
 800637c:	f410 3000 	ands.w	r0, r0, #131072	@ 0x20000
 8006380:	f43f af55 	beq.w	800622e <HAL_RCCEx_GetPeriphCLKFreq+0x10e>
 8006384:	e70b      	b.n	800619e <HAL_RCCEx_GetPeriphCLKFreq+0x7e>
    srcclk = __HAL_RCC_GET_SPI6_SOURCE();
 8006386:	4b13      	ldr	r3, [pc, #76]	@ (80063d4 <HAL_RCCEx_GetPeriphCLKFreq+0x2b4>)
 8006388:	6d9b      	ldr	r3, [r3, #88]	@ 0x58
 800638a:	f003 43e0 	and.w	r3, r3, #1879048192	@ 0x70000000
    switch (srcclk)
 800638e:	f1b3 5f40 	cmp.w	r3, #805306368	@ 0x30000000
 8006392:	d04e      	beq.n	8006432 <HAL_RCCEx_GetPeriphCLKFreq+0x312>
 8006394:	d83f      	bhi.n	8006416 <HAL_RCCEx_GetPeriphCLKFreq+0x2f6>
 8006396:	f1b3 5f80 	cmp.w	r3, #268435456	@ 0x10000000
 800639a:	d043      	beq.n	8006424 <HAL_RCCEx_GetPeriphCLKFreq+0x304>
 800639c:	f1b3 5f00 	cmp.w	r3, #536870912	@ 0x20000000
 80063a0:	d024      	beq.n	80063ec <HAL_RCCEx_GetPeriphCLKFreq+0x2cc>
 80063a2:	2b00      	cmp	r3, #0
 80063a4:	f47f af0b 	bne.w	80061be <HAL_RCCEx_GetPeriphCLKFreq+0x9e>
  return (HAL_RCC_GetHCLKFreq() >> (D1CorePrescTable[(RCC->D3CFGR & RCC_D3CFGR_D3PPRE) >> RCC_D3CFGR_D3PPRE_Pos] & 0x1FU));
 80063a8:	f7fe fc40 	bl	8004c2c <HAL_RCC_GetHCLKFreq>
 80063ac:	4b09      	ldr	r3, [pc, #36]	@ (80063d4 <HAL_RCCEx_GetPeriphCLKFreq+0x2b4>)
 80063ae:	4a0e      	ldr	r2, [pc, #56]	@ (80063e8 <HAL_RCCEx_GetPeriphCLKFreq+0x2c8>)
 80063b0:	6a1b      	ldr	r3, [r3, #32]
 80063b2:	f3c3 1302 	ubfx	r3, r3, #4, #3
 80063b6:	5cd3      	ldrb	r3, [r2, r3]
 80063b8:	f003 031f 	and.w	r3, r3, #31
 80063bc:	40d8      	lsrs	r0, r3
        break;
 80063be:	e736      	b.n	800622e <HAL_RCCEx_GetPeriphCLKFreq+0x10e>
        if (HAL_IS_BIT_SET(RCC->CR, RCC_CR_PLL2RDY))
 80063c0:	6810      	ldr	r0, [r2, #0]
 80063c2:	f010 6000 	ands.w	r0, r0, #134217728	@ 0x8000000
 80063c6:	f43f af32 	beq.w	800622e <HAL_RCCEx_GetPeriphCLKFreq+0x10e>
          HAL_RCCEx_GetPLL2ClockFreq(&pll2_clocks);
 80063ca:	a801      	add	r0, sp, #4
 80063cc:	f7ff fcda 	bl	8005d84 <HAL_RCCEx_GetPLL2ClockFreq>
          frequency = pll2_clocks.PLL2_Q_Frequency;
 80063d0:	9802      	ldr	r0, [sp, #8]
 80063d2:	e72c      	b.n	800622e <HAL_RCCEx_GetPeriphCLKFreq+0x10e>
 80063d4:	58024400 	.word	0x58024400
 80063d8:	017d7840 	.word	0x017d7840
 80063dc:	03d09000 	.word	0x03d09000
 80063e0:	00bb8000 	.word	0x00bb8000
 80063e4:	003d0900 	.word	0x003d0900
 80063e8:	0806b724 	.word	0x0806b724
        if (HAL_IS_BIT_SET(RCC->CR, RCC_CR_PLL3RDY))
 80063ec:	4b1a      	ldr	r3, [pc, #104]	@ (8006458 <HAL_RCCEx_GetPeriphCLKFreq+0x338>)
 80063ee:	6818      	ldr	r0, [r3, #0]
 80063f0:	f010 5000 	ands.w	r0, r0, #536870912	@ 0x20000000
 80063f4:	f43f af1b 	beq.w	800622e <HAL_RCCEx_GetPeriphCLKFreq+0x10e>
          HAL_RCCEx_GetPLL3ClockFreq(&pll3_clocks);
 80063f8:	a801      	add	r0, sp, #4
 80063fa:	f7ff fd5d 	bl	8005eb8 <HAL_RCCEx_GetPLL3ClockFreq>
          frequency = pll3_clocks.PLL3_Q_Frequency;
 80063fe:	9802      	ldr	r0, [sp, #8]
 8006400:	e715      	b.n	800622e <HAL_RCCEx_GetPeriphCLKFreq+0x10e>
        if (HAL_IS_BIT_SET(RCC->CR, RCC_CR_PLL3RDY))
 8006402:	6810      	ldr	r0, [r2, #0]
 8006404:	f010 5000 	ands.w	r0, r0, #536870912	@ 0x20000000
 8006408:	f43f af11 	beq.w	800622e <HAL_RCCEx_GetPeriphCLKFreq+0x10e>
          HAL_RCCEx_GetPLL3ClockFreq(&pll3_clocks);
 800640c:	a801      	add	r0, sp, #4
 800640e:	f7ff fd53 	bl	8005eb8 <HAL_RCCEx_GetPLL3ClockFreq>
          frequency = pll3_clocks.PLL3_R_Frequency;
 8006412:	9803      	ldr	r0, [sp, #12]
 8006414:	e70b      	b.n	800622e <HAL_RCCEx_GetPeriphCLKFreq+0x10e>
    switch (srcclk)
 8006416:	f1b3 4f80 	cmp.w	r3, #1073741824	@ 0x40000000
 800641a:	d016      	beq.n	800644a <HAL_RCCEx_GetPeriphCLKFreq+0x32a>
 800641c:	f1b3 4fa0 	cmp.w	r3, #1342177280	@ 0x50000000
 8006420:	d0aa      	beq.n	8006378 <HAL_RCCEx_GetPeriphCLKFreq+0x258>
 8006422:	e6cc      	b.n	80061be <HAL_RCCEx_GetPeriphCLKFreq+0x9e>
        if (HAL_IS_BIT_SET(RCC->CR, RCC_CR_PLL2RDY))
 8006424:	4b0c      	ldr	r3, [pc, #48]	@ (8006458 <HAL_RCCEx_GetPeriphCLKFreq+0x338>)
 8006426:	6818      	ldr	r0, [r3, #0]
 8006428:	f010 6000 	ands.w	r0, r0, #134217728	@ 0x8000000
 800642c:	f43f aeff 	beq.w	800622e <HAL_RCCEx_GetPeriphCLKFreq+0x10e>
 8006430:	e7cb      	b.n	80063ca <HAL_RCCEx_GetPeriphCLKFreq+0x2aa>
        if (HAL_IS_BIT_SET(RCC->CR, RCC_CR_HSIRDY))
 8006432:	4b09      	ldr	r3, [pc, #36]	@ (8006458 <HAL_RCCEx_GetPeriphCLKFreq+0x338>)
 8006434:	6818      	ldr	r0, [r3, #0]
 8006436:	f010 0004 	ands.w	r0, r0, #4
 800643a:	f43f aef8 	beq.w	800622e <HAL_RCCEx_GetPeriphCLKFreq+0x10e>
          frequency = (HSI_VALUE >> (__HAL_RCC_GET_HSI_DIVIDER() >> 3));
 800643e:	681b      	ldr	r3, [r3, #0]
 8006440:	4806      	ldr	r0, [pc, #24]	@ (800645c <HAL_RCCEx_GetPeriphCLKFreq+0x33c>)
 8006442:	f3c3 03c1 	ubfx	r3, r3, #3, #2
 8006446:	40d8      	lsrs	r0, r3
 8006448:	e6f1      	b.n	800622e <HAL_RCCEx_GetPeriphCLKFreq+0x10e>
        if (HAL_IS_BIT_SET(RCC->CR, RCC_CR_CSIRDY))
 800644a:	4b03      	ldr	r3, [pc, #12]	@ (8006458 <HAL_RCCEx_GetPeriphCLKFreq+0x338>)
 800644c:	6818      	ldr	r0, [r3, #0]
 800644e:	f410 7080 	ands.w	r0, r0, #256	@ 0x100
 8006452:	f43f aeec 	beq.w	800622e <HAL_RCCEx_GetPeriphCLKFreq+0x10e>
 8006456:	e786      	b.n	8006366 <HAL_RCCEx_GetPeriphCLKFreq+0x246>
 8006458:	58024400 	.word	0x58024400
 800645c:	03d09000 	.word	0x03d09000

08006460 <HAL_TIM_Base_Init>:
  * @retval HAL status
  */
HAL_StatusTypeDef HAL_TIM_Base_Init(TIM_HandleTypeDef *htim)
{
  /* Check the TIM handle allocation */
  if (htim == NULL)
 8006460:	2800      	cmp	r0, #0
 8006462:	f000 8095 	beq.w	8006590 <HAL_TIM_Base_Init+0x130>
{
 8006466:	b5f8      	push	{r3, r4, r5, r6, r7, lr}
  assert_param(IS_TIM_COUNTER_MODE(htim->Init.CounterMode));
  assert_param(IS_TIM_CLOCKDIVISION_DIV(htim->Init.ClockDivision));
  assert_param(IS_TIM_PERIOD(htim, htim->Init.Period));
  assert_param(IS_TIM_AUTORELOAD_PRELOAD(htim->Init.AutoReloadPreload));

  if (htim->State == HAL_TIM_STATE_RESET)
 8006468:	f890 303d 	ldrb.w	r3, [r0, #61]	@ 0x3d
 800646c:	4604      	mov	r4, r0
 800646e:	f003 02ff 	and.w	r2, r3, #255	@ 0xff
 8006472:	2b00      	cmp	r3, #0
 8006474:	f000 8087 	beq.w	8006586 <HAL_TIM_Base_Init+0x126>

  /* Set the TIM state */
  htim->State = HAL_TIM_STATE_BUSY;

  /* Set the Time Base configuration */
  TIM_Base_SetConfig(htim->Instance, &htim->Init);
 8006478:	6823      	ldr	r3, [r4, #0]
  htim->State = HAL_TIM_STATE_BUSY;
 800647a:	2202      	movs	r2, #2
{
  uint32_t tmpcr1;
  tmpcr1 = TIMx->CR1;

  /* Set TIM Time Base Unit parameters ---------------------------------------*/
  if (IS_TIM_COUNTER_MODE_SELECT_INSTANCE(TIMx))
 800647c:	4945      	ldr	r1, [pc, #276]	@ (8006594 <HAL_TIM_Base_Init+0x134>)
 800647e:	4d46      	ldr	r5, [pc, #280]	@ (8006598 <HAL_TIM_Base_Init+0x138>)
 8006480:	f1b3 4f80 	cmp.w	r3, #1073741824	@ 0x40000000
 8006484:	eba3 0101 	sub.w	r1, r3, r1
  htim->State = HAL_TIM_STATE_BUSY;
 8006488:	f884 203d 	strb.w	r2, [r4, #61]	@ 0x3d
  if (IS_TIM_COUNTER_MODE_SELECT_INSTANCE(TIMx))
 800648c:	eba3 0e05 	sub.w	lr, r3, r5
  tmpcr1 = TIMx->CR1;
 8006490:	681a      	ldr	r2, [r3, #0]
  if (IS_TIM_COUNTER_MODE_SELECT_INSTANCE(TIMx))
 8006492:	fab1 f181 	clz	r1, r1
    tmpcr1 &= ~TIM_CR1_CKD;
    tmpcr1 |= (uint32_t)Structure->ClockDivision;
  }

  /* Set the auto-reload preload */
  MODIFY_REG(tmpcr1, TIM_CR1_ARPE, Structure->AutoReloadPreload);
 8006496:	69a0      	ldr	r0, [r4, #24]
  if (IS_TIM_COUNTER_MODE_SELECT_INSTANCE(TIMx))
 8006498:	fabe fe8e 	clz	lr, lr

  /* Set the Autoreload value */
  TIMx->ARR = (uint32_t)Structure->Period ;
 800649c:	68e7      	ldr	r7, [r4, #12]
  if (IS_TIM_COUNTER_MODE_SELECT_INSTANCE(TIMx))
 800649e:	ea4f 1151 	mov.w	r1, r1, lsr #5

  /* Set the Prescaler value */
  TIMx->PSC = Structure->Prescaler;
 80064a2:	6866      	ldr	r6, [r4, #4]
  if (IS_TIM_COUNTER_MODE_SELECT_INSTANCE(TIMx))
 80064a4:	ea4f 1e5e 	mov.w	lr, lr, lsr #5
 80064a8:	d01f      	beq.n	80064ea <HAL_TIM_Base_Init+0x8a>
 80064aa:	b9f1      	cbnz	r1, 80064ea <HAL_TIM_Base_Init+0x8a>
 80064ac:	f8df c0f8 	ldr.w	ip, [pc, #248]	@ 80065a8 <HAL_TIM_Base_Init+0x148>
 80064b0:	4563      	cmp	r3, ip
 80064b2:	d050      	beq.n	8006556 <HAL_TIM_Base_Init+0xf6>
 80064b4:	f50c 6c80 	add.w	ip, ip, #1024	@ 0x400
 80064b8:	4563      	cmp	r3, ip
 80064ba:	d04c      	beq.n	8006556 <HAL_TIM_Base_Init+0xf6>
 80064bc:	f50c 6c80 	add.w	ip, ip, #1024	@ 0x400
 80064c0:	4563      	cmp	r3, ip
 80064c2:	d012      	beq.n	80064ea <HAL_TIM_Base_Init+0x8a>
 80064c4:	f1be 0f00 	cmp.w	lr, #0
 80064c8:	d10f      	bne.n	80064ea <HAL_TIM_Base_Init+0x8a>
  if (IS_TIM_CLOCK_DIVISION_INSTANCE(TIMx))
 80064ca:	4d34      	ldr	r5, [pc, #208]	@ (800659c <HAL_TIM_Base_Init+0x13c>)
 80064cc:	4934      	ldr	r1, [pc, #208]	@ (80065a0 <HAL_TIM_Base_Init+0x140>)
 80064ce:	428b      	cmp	r3, r1
 80064d0:	bf18      	it	ne
 80064d2:	42ab      	cmpne	r3, r5
 80064d4:	d043      	beq.n	800655e <HAL_TIM_Base_Init+0xfe>
 80064d6:	f501 6180 	add.w	r1, r1, #1024	@ 0x400
 80064da:	428b      	cmp	r3, r1
 80064dc:	d03f      	beq.n	800655e <HAL_TIM_Base_Init+0xfe>
  MODIFY_REG(tmpcr1, TIM_CR1_ARPE, Structure->AutoReloadPreload);
 80064de:	f022 0280 	bic.w	r2, r2, #128	@ 0x80
  TIMx->ARR = (uint32_t)Structure->Period ;
 80064e2:	62df      	str	r7, [r3, #44]	@ 0x2c
  TIMx->PSC = Structure->Prescaler;
 80064e4:	629e      	str	r6, [r3, #40]	@ 0x28
  MODIFY_REG(tmpcr1, TIM_CR1_ARPE, Structure->AutoReloadPreload);
 80064e6:	4310      	orrs	r0, r2

  if (IS_TIM_REPETITION_COUNTER_INSTANCE(TIMx))
 80064e8:	e014      	b.n	8006514 <HAL_TIM_Base_Init+0xb4>
    tmpcr1 |= Structure->CounterMode;
 80064ea:	68a5      	ldr	r5, [r4, #8]
    tmpcr1 &= ~(TIM_CR1_DIR | TIM_CR1_CMS);
 80064ec:	f022 0270 	bic.w	r2, r2, #112	@ 0x70
    tmpcr1 |= (uint32_t)Structure->ClockDivision;
 80064f0:	f8d4 c010 	ldr.w	ip, [r4, #16]
    tmpcr1 |= Structure->CounterMode;
 80064f4:	432a      	orrs	r2, r5
  TIMx->ARR = (uint32_t)Structure->Period ;
 80064f6:	62df      	str	r7, [r3, #44]	@ 0x2c
  TIMx->PSC = Structure->Prescaler;
 80064f8:	629e      	str	r6, [r3, #40]	@ 0x28
    tmpcr1 &= ~TIM_CR1_CKD;
 80064fa:	f422 7240 	bic.w	r2, r2, #768	@ 0x300
    tmpcr1 |= (uint32_t)Structure->ClockDivision;
 80064fe:	ea42 020c 	orr.w	r2, r2, ip
  MODIFY_REG(tmpcr1, TIM_CR1_ARPE, Structure->AutoReloadPreload);
 8006502:	f022 0280 	bic.w	r2, r2, #128	@ 0x80
 8006506:	4310      	orrs	r0, r2
  if (IS_TIM_REPETITION_COUNTER_INSTANCE(TIMx))
 8006508:	b911      	cbnz	r1, 8006510 <HAL_TIM_Base_Init+0xb0>
 800650a:	f1be 0f00 	cmp.w	lr, #0
 800650e:	d02f      	beq.n	8006570 <HAL_TIM_Base_Init+0x110>
  {
    /* Set the Repetition Counter value */
    TIMx->RCR = Structure->RepetitionCounter;
 8006510:	6962      	ldr	r2, [r4, #20]
 8006512:	631a      	str	r2, [r3, #48]	@ 0x30
  }

  /* Disable Update Event (UEV) with Update Generation (UG)
     by changing Update Request Source (URS) to avoid Update flag (UIF) */
  SET_BIT(TIMx->CR1, TIM_CR1_URS);
 8006514:	6819      	ldr	r1, [r3, #0]

  /* Generate an update event to reload the Prescaler
     and the repetition counter (only for advanced timer) value immediately */
  TIMx->EGR = TIM_EGR_UG;
 8006516:	2201      	movs	r2, #1
  SET_BIT(TIMx->CR1, TIM_CR1_URS);
 8006518:	f041 0104 	orr.w	r1, r1, #4
 800651c:	6019      	str	r1, [r3, #0]
  TIMx->EGR = TIM_EGR_UG;
 800651e:	615a      	str	r2, [r3, #20]

  TIMx->CR1 = tmpcr1;
 8006520:	6018      	str	r0, [r3, #0]
  return HAL_OK;
 8006522:	2000      	movs	r0, #0
  htim->DMABurstState = HAL_DMA_BURST_STATE_READY;
 8006524:	f884 2048 	strb.w	r2, [r4, #72]	@ 0x48
  TIM_CHANNEL_STATE_SET_ALL(htim, HAL_TIM_CHANNEL_STATE_READY);
 8006528:	f884 203e 	strb.w	r2, [r4, #62]	@ 0x3e
 800652c:	f884 203f 	strb.w	r2, [r4, #63]	@ 0x3f
 8006530:	f884 2040 	strb.w	r2, [r4, #64]	@ 0x40
 8006534:	f884 2041 	strb.w	r2, [r4, #65]	@ 0x41
 8006538:	f884 2042 	strb.w	r2, [r4, #66]	@ 0x42
 800653c:	f884 2043 	strb.w	r2, [r4, #67]	@ 0x43
  TIM_CHANNEL_N_STATE_SET_ALL(htim, HAL_TIM_CHANNEL_STATE_READY);
 8006540:	f884 2044 	strb.w	r2, [r4, #68]	@ 0x44
 8006544:	f884 2045 	strb.w	r2, [r4, #69]	@ 0x45
 8006548:	f884 2046 	strb.w	r2, [r4, #70]	@ 0x46
 800654c:	f884 2047 	strb.w	r2, [r4, #71]	@ 0x47
  htim->State = HAL_TIM_STATE_READY;
 8006550:	f884 203d 	strb.w	r2, [r4, #61]	@ 0x3d
}
 8006554:	bdf8      	pop	{r3, r4, r5, r6, r7, pc}
    tmpcr1 &= ~(TIM_CR1_DIR | TIM_CR1_CMS);
 8006556:	f022 0270 	bic.w	r2, r2, #112	@ 0x70
    tmpcr1 |= Structure->CounterMode;
 800655a:	68a1      	ldr	r1, [r4, #8]
 800655c:	430a      	orrs	r2, r1
    tmpcr1 |= (uint32_t)Structure->ClockDivision;
 800655e:	6921      	ldr	r1, [r4, #16]
    tmpcr1 &= ~TIM_CR1_CKD;
 8006560:	f422 7240 	bic.w	r2, r2, #768	@ 0x300
  TIMx->ARR = (uint32_t)Structure->Period ;
 8006564:	62df      	str	r7, [r3, #44]	@ 0x2c
    tmpcr1 |= (uint32_t)Structure->ClockDivision;
 8006566:	430a      	orrs	r2, r1
  TIMx->PSC = Structure->Prescaler;
 8006568:	629e      	str	r6, [r3, #40]	@ 0x28
  MODIFY_REG(tmpcr1, TIM_CR1_ARPE, Structure->AutoReloadPreload);
 800656a:	f022 0280 	bic.w	r2, r2, #128	@ 0x80
 800656e:	4310      	orrs	r0, r2
  if (IS_TIM_CLOCK_DIVISION_INSTANCE(TIMx))
 8006570:	490c      	ldr	r1, [pc, #48]	@ (80065a4 <HAL_TIM_Base_Init+0x144>)
 8006572:	4a0a      	ldr	r2, [pc, #40]	@ (800659c <HAL_TIM_Base_Init+0x13c>)
  if (IS_TIM_REPETITION_COUNTER_INSTANCE(TIMx))
 8006574:	4293      	cmp	r3, r2
 8006576:	bf18      	it	ne
 8006578:	428b      	cmpne	r3, r1
 800657a:	d0c9      	beq.n	8006510 <HAL_TIM_Base_Init+0xb0>
  if (IS_TIM_CLOCK_DIVISION_INSTANCE(TIMx))
 800657c:	f502 6280 	add.w	r2, r2, #1024	@ 0x400
  if (IS_TIM_REPETITION_COUNTER_INSTANCE(TIMx))
 8006580:	4293      	cmp	r3, r2
 8006582:	d0c5      	beq.n	8006510 <HAL_TIM_Base_Init+0xb0>
 8006584:	e7c6      	b.n	8006514 <HAL_TIM_Base_Init+0xb4>
    htim->Lock = HAL_UNLOCKED;
 8006586:	f880 203c 	strb.w	r2, [r0, #60]	@ 0x3c
    HAL_TIM_Base_MspInit(htim);
 800658a:	f7fa febb 	bl	8001304 <HAL_TIM_Base_MspInit>
 800658e:	e773      	b.n	8006478 <HAL_TIM_Base_Init+0x18>
    return HAL_ERROR;
 8006590:	2001      	movs	r0, #1
}
 8006592:	4770      	bx	lr
 8006594:	40010000 	.word	0x40010000
 8006598:	40010400 	.word	0x40010400
 800659c:	40014000 	.word	0x40014000
 80065a0:	40014400 	.word	0x40014400
 80065a4:	40014800 	.word	0x40014800
 80065a8:	40000400 	.word	0x40000400

080065ac <HAL_TIM_Base_Start>:
  if (htim->State != HAL_TIM_STATE_READY)
 80065ac:	f890 303d 	ldrb.w	r3, [r0, #61]	@ 0x3d
 80065b0:	2b01      	cmp	r3, #1
 80065b2:	d139      	bne.n	8006628 <HAL_TIM_Base_Start+0x7c>
  if (IS_TIM_SLAVE_INSTANCE(htim->Instance))
 80065b4:	6802      	ldr	r2, [r0, #0]
 80065b6:	4b1d      	ldr	r3, [pc, #116]	@ (800662c <HAL_TIM_Base_Start+0x80>)
 80065b8:	491d      	ldr	r1, [pc, #116]	@ (8006630 <HAL_TIM_Base_Start+0x84>)
 80065ba:	f1b2 4f80 	cmp.w	r2, #1073741824	@ 0x40000000
 80065be:	bf18      	it	ne
 80065c0:	429a      	cmpne	r2, r3
{
 80065c2:	b430      	push	{r4, r5}
  if (IS_TIM_SLAVE_INSTANCE(htim->Instance))
 80065c4:	bf0c      	ite	eq
 80065c6:	2301      	moveq	r3, #1
 80065c8:	2300      	movne	r3, #0
 80065ca:	4d1a      	ldr	r5, [pc, #104]	@ (8006634 <HAL_TIM_Base_Start+0x88>)
  htim->State = HAL_TIM_STATE_BUSY;
 80065cc:	2402      	movs	r4, #2
  if (IS_TIM_SLAVE_INSTANCE(htim->Instance))
 80065ce:	42aa      	cmp	r2, r5
 80065d0:	bf08      	it	eq
 80065d2:	f043 0301 	orreq.w	r3, r3, #1
  htim->State = HAL_TIM_STATE_BUSY;
 80065d6:	f880 403d 	strb.w	r4, [r0, #61]	@ 0x3d
  if (IS_TIM_SLAVE_INSTANCE(htim->Instance))
 80065da:	4c17      	ldr	r4, [pc, #92]	@ (8006638 <HAL_TIM_Base_Start+0x8c>)
 80065dc:	428a      	cmp	r2, r1
 80065de:	bf08      	it	eq
 80065e0:	f043 0301 	orreq.w	r3, r3, #1
 80065e4:	4815      	ldr	r0, [pc, #84]	@ (800663c <HAL_TIM_Base_Start+0x90>)
 80065e6:	f501 5180 	add.w	r1, r1, #4096	@ 0x1000
 80065ea:	42a2      	cmp	r2, r4
 80065ec:	bf08      	it	eq
 80065ee:	f043 0301 	orreq.w	r3, r3, #1
 80065f2:	4282      	cmp	r2, r0
 80065f4:	bf08      	it	eq
 80065f6:	f043 0301 	orreq.w	r3, r3, #1
 80065fa:	428a      	cmp	r2, r1
 80065fc:	bf08      	it	eq
 80065fe:	f043 0301 	orreq.w	r3, r3, #1
 8006602:	b913      	cbnz	r3, 800660a <HAL_TIM_Base_Start+0x5e>
 8006604:	4b0e      	ldr	r3, [pc, #56]	@ (8006640 <HAL_TIM_Base_Start+0x94>)
 8006606:	429a      	cmp	r2, r3
 8006608:	d107      	bne.n	800661a <HAL_TIM_Base_Start+0x6e>
    tmpsmcr = htim->Instance->SMCR & TIM_SMCR_SMS;
 800660a:	6891      	ldr	r1, [r2, #8]
 800660c:	4b0d      	ldr	r3, [pc, #52]	@ (8006644 <HAL_TIM_Base_Start+0x98>)
 800660e:	400b      	ands	r3, r1
    if (!IS_TIM_SLAVEMODE_TRIGGER_ENABLED(tmpsmcr))
 8006610:	2b06      	cmp	r3, #6
 8006612:	d006      	beq.n	8006622 <HAL_TIM_Base_Start+0x76>
 8006614:	f5b3 3f80 	cmp.w	r3, #65536	@ 0x10000
 8006618:	d003      	beq.n	8006622 <HAL_TIM_Base_Start+0x76>
      __HAL_TIM_ENABLE(htim);
 800661a:	6813      	ldr	r3, [r2, #0]
 800661c:	f043 0301 	orr.w	r3, r3, #1
 8006620:	6013      	str	r3, [r2, #0]
  return HAL_OK;
 8006622:	2000      	movs	r0, #0
}
 8006624:	bc30      	pop	{r4, r5}
 8006626:	4770      	bx	lr
    return HAL_ERROR;
 8006628:	2001      	movs	r0, #1
}
 800662a:	4770      	bx	lr
 800662c:	40010000 	.word	0x40010000
 8006630:	40000800 	.word	0x40000800
 8006634:	40000400 	.word	0x40000400
 8006638:	40000c00 	.word	0x40000c00
 800663c:	40010400 	.word	0x40010400
 8006640:	40014000 	.word	0x40014000
 8006644:	00010007 	.word	0x00010007

08006648 <HAL_TIM_ConfigClockSource>:
  __HAL_LOCK(htim);
 8006648:	f890 203c 	ldrb.w	r2, [r0, #60]	@ 0x3c
 800664c:	2a01      	cmp	r2, #1
 800664e:	d06d      	beq.n	800672c <HAL_TIM_ConfigClockSource+0xe4>
  tmpsmcr = htim->Instance->SMCR;
 8006650:	6802      	ldr	r2, [r0, #0]
 8006652:	4603      	mov	r3, r0
  __HAL_LOCK(htim);
 8006654:	2001      	movs	r0, #1
{
 8006656:	b430      	push	{r4, r5}
  htim->State = HAL_TIM_STATE_BUSY;
 8006658:	2402      	movs	r4, #2
  __HAL_LOCK(htim);
 800665a:	f883 003c 	strb.w	r0, [r3, #60]	@ 0x3c
  htim->State = HAL_TIM_STATE_BUSY;
 800665e:	f883 403d 	strb.w	r4, [r3, #61]	@ 0x3d
  tmpsmcr &= ~(TIM_SMCR_ETF | TIM_SMCR_ETPS | TIM_SMCR_ECE | TIM_SMCR_ETP);
 8006662:	4c59      	ldr	r4, [pc, #356]	@ (80067c8 <HAL_TIM_ConfigClockSource+0x180>)
  tmpsmcr = htim->Instance->SMCR;
 8006664:	6895      	ldr	r5, [r2, #8]
  tmpsmcr &= ~(TIM_SMCR_ETF | TIM_SMCR_ETPS | TIM_SMCR_ECE | TIM_SMCR_ETP);
 8006666:	402c      	ands	r4, r5
  htim->Instance->SMCR = tmpsmcr;
 8006668:	6094      	str	r4, [r2, #8]
  switch (sClockSourceConfig->ClockSource)
 800666a:	680c      	ldr	r4, [r1, #0]
 800666c:	2c70      	cmp	r4, #112	@ 0x70
 800666e:	f000 8087 	beq.w	8006780 <HAL_TIM_ConfigClockSource+0x138>
 8006672:	d825      	bhi.n	80066c0 <HAL_TIM_ConfigClockSource+0x78>
 8006674:	2c50      	cmp	r4, #80	@ 0x50
 8006676:	d05b      	beq.n	8006730 <HAL_TIM_ConfigClockSource+0xe8>
 8006678:	d82b      	bhi.n	80066d2 <HAL_TIM_ConfigClockSource+0x8a>
 800667a:	2c40      	cmp	r4, #64	@ 0x40
 800667c:	f040 8090 	bne.w	80067a0 <HAL_TIM_ConfigClockSource+0x158>
                               sClockSourceConfig->ClockPolarity,
 8006680:	684c      	ldr	r4, [r1, #4]
                               sClockSourceConfig->ClockFilter);
 8006682:	68cd      	ldr	r5, [r1, #12]
{
  uint32_t tmpccmr1;
  uint32_t tmpccer;

  /* Disable the Channel 1: Reset the CC1E Bit */
  tmpccer = TIMx->CCER;
 8006684:	6a11      	ldr	r1, [r2, #32]
  TIMx->CCER &= ~TIM_CCER_CC1E;
 8006686:	6a10      	ldr	r0, [r2, #32]
  /* Set the filter */
  tmpccmr1 &= ~TIM_CCMR1_IC1F;
  tmpccmr1 |= (TIM_ICFilter << 4U);

  /* Select the Polarity and set the CC1E Bit */
  tmpccer &= ~(TIM_CCER_CC1P | TIM_CCER_CC1NP);
 8006688:	f021 010a 	bic.w	r1, r1, #10
  TIMx->CCER &= ~TIM_CCER_CC1E;
 800668c:	f020 0001 	bic.w	r0, r0, #1
  tmpccer |= TIM_ICPolarity;
 8006690:	430c      	orrs	r4, r1
  uint32_t tmpsmcr;

  /* Get the TIMx SMCR register value */
  tmpsmcr = TIMx->SMCR;
  /* Reset the TS Bits */
  tmpsmcr &= ~TIM_SMCR_TS;
 8006692:	494e      	ldr	r1, [pc, #312]	@ (80067cc <HAL_TIM_ConfigClockSource+0x184>)
  TIMx->CCER &= ~TIM_CCER_CC1E;
 8006694:	6210      	str	r0, [r2, #32]
  tmpccmr1 = TIMx->CCMR1;
 8006696:	6990      	ldr	r0, [r2, #24]
  tmpccmr1 &= ~TIM_CCMR1_IC1F;
 8006698:	f020 00f0 	bic.w	r0, r0, #240	@ 0xf0
  tmpccmr1 |= (TIM_ICFilter << 4U);
 800669c:	ea40 1005 	orr.w	r0, r0, r5, lsl #4
  TIMx->CCMR1 = tmpccmr1;
 80066a0:	6190      	str	r0, [r2, #24]
  TIMx->CCER = tmpccer;
 80066a2:	6214      	str	r4, [r2, #32]
  tmpsmcr = TIMx->SMCR;
 80066a4:	6890      	ldr	r0, [r2, #8]
  tmpsmcr &= ~TIM_SMCR_TS;
 80066a6:	4001      	ands	r1, r0
  /* Set the Input Trigger source and the slave mode*/
  tmpsmcr |= (InputTriggerSource | TIM_SLAVEMODE_EXTERNAL1);
 80066a8:	f041 0147 	orr.w	r1, r1, #71	@ 0x47
  /* Write to TIMx SMCR */
  TIMx->SMCR = tmpsmcr;
 80066ac:	6091      	str	r1, [r2, #8]
  HAL_StatusTypeDef status = HAL_OK;
 80066ae:	2000      	movs	r0, #0
  htim->State = HAL_TIM_STATE_READY;
 80066b0:	2101      	movs	r1, #1
  __HAL_UNLOCK(htim);
 80066b2:	2200      	movs	r2, #0
  htim->State = HAL_TIM_STATE_READY;
 80066b4:	f883 103d 	strb.w	r1, [r3, #61]	@ 0x3d
  __HAL_UNLOCK(htim);
 80066b8:	f883 203c 	strb.w	r2, [r3, #60]	@ 0x3c
}
 80066bc:	bc30      	pop	{r4, r5}
 80066be:	4770      	bx	lr
  switch (sClockSourceConfig->ClockSource)
 80066c0:	f5b4 5f00 	cmp.w	r4, #8192	@ 0x2000
 80066c4:	d04c      	beq.n	8006760 <HAL_TIM_ConfigClockSource+0x118>
 80066c6:	d81f      	bhi.n	8006708 <HAL_TIM_ConfigClockSource+0xc0>
 80066c8:	f5b4 5080 	subs.w	r0, r4, #4096	@ 0x1000
 80066cc:	bf18      	it	ne
 80066ce:	2001      	movne	r0, #1
 80066d0:	e7ee      	b.n	80066b0 <HAL_TIM_ConfigClockSource+0x68>
 80066d2:	2c60      	cmp	r4, #96	@ 0x60
 80066d4:	d1ec      	bne.n	80066b0 <HAL_TIM_ConfigClockSource+0x68>
  tmpccer = TIMx->CCER;
 80066d6:	6a10      	ldr	r0, [r2, #32]
                               sClockSourceConfig->ClockPolarity,
 80066d8:	684c      	ldr	r4, [r1, #4]
  tmpccer &= ~(TIM_CCER_CC2P | TIM_CCER_CC2NP);
 80066da:	f020 00a0 	bic.w	r0, r0, #160	@ 0xa0
                               sClockSourceConfig->ClockFilter);
 80066de:	68cd      	ldr	r5, [r1, #12]
  tmpsmcr &= ~TIM_SMCR_TS;
 80066e0:	493a      	ldr	r1, [pc, #232]	@ (80067cc <HAL_TIM_ConfigClockSource+0x184>)
  tmpccer |= (TIM_ICPolarity << 4U);
 80066e2:	ea40 1004 	orr.w	r0, r0, r4, lsl #4
  TIMx->CCER &= ~TIM_CCER_CC2E;
 80066e6:	6a14      	ldr	r4, [r2, #32]
 80066e8:	f024 0410 	bic.w	r4, r4, #16
 80066ec:	6214      	str	r4, [r2, #32]
  tmpccmr1 = TIMx->CCMR1;
 80066ee:	6994      	ldr	r4, [r2, #24]
  tmpccmr1 &= ~TIM_CCMR1_IC2F;
 80066f0:	f424 4470 	bic.w	r4, r4, #61440	@ 0xf000
  tmpccmr1 |= (TIM_ICFilter << 12U);
 80066f4:	ea44 3405 	orr.w	r4, r4, r5, lsl #12
  TIMx->CCMR1 = tmpccmr1 ;
 80066f8:	6194      	str	r4, [r2, #24]
  TIMx->CCER = tmpccer;
 80066fa:	6210      	str	r0, [r2, #32]
  tmpsmcr = TIMx->SMCR;
 80066fc:	6890      	ldr	r0, [r2, #8]
  tmpsmcr &= ~TIM_SMCR_TS;
 80066fe:	4001      	ands	r1, r0
  tmpsmcr |= (InputTriggerSource | TIM_SLAVEMODE_EXTERNAL1);
 8006700:	f041 0167 	orr.w	r1, r1, #103	@ 0x67
  TIMx->SMCR = tmpsmcr;
 8006704:	6091      	str	r1, [r2, #8]
}
 8006706:	e7d2      	b.n	80066ae <HAL_TIM_ConfigClockSource+0x66>
  switch (sClockSourceConfig->ClockSource)
 8006708:	4931      	ldr	r1, [pc, #196]	@ (80067d0 <HAL_TIM_ConfigClockSource+0x188>)
 800670a:	428c      	cmp	r4, r1
 800670c:	d006      	beq.n	800671c <HAL_TIM_ConfigClockSource+0xd4>
 800670e:	d94f      	bls.n	80067b0 <HAL_TIM_ConfigClockSource+0x168>
 8006710:	4930      	ldr	r1, [pc, #192]	@ (80067d4 <HAL_TIM_ConfigClockSource+0x18c>)
 8006712:	428c      	cmp	r4, r1
 8006714:	d002      	beq.n	800671c <HAL_TIM_ConfigClockSource+0xd4>
 8006716:	3110      	adds	r1, #16
 8006718:	428c      	cmp	r4, r1
 800671a:	d1c9      	bne.n	80066b0 <HAL_TIM_ConfigClockSource+0x68>
  tmpsmcr = TIMx->SMCR;
 800671c:	6890      	ldr	r0, [r2, #8]
  tmpsmcr &= ~TIM_SMCR_TS;
 800671e:	492b      	ldr	r1, [pc, #172]	@ (80067cc <HAL_TIM_ConfigClockSource+0x184>)
 8006720:	4001      	ands	r1, r0
  tmpsmcr |= (InputTriggerSource | TIM_SLAVEMODE_EXTERNAL1);
 8006722:	4321      	orrs	r1, r4
 8006724:	f041 0107 	orr.w	r1, r1, #7
  TIMx->SMCR = tmpsmcr;
 8006728:	6091      	str	r1, [r2, #8]
}
 800672a:	e7c0      	b.n	80066ae <HAL_TIM_ConfigClockSource+0x66>
  __HAL_LOCK(htim);
 800672c:	2002      	movs	r0, #2
}
 800672e:	4770      	bx	lr
                               sClockSourceConfig->ClockPolarity,
 8006730:	684c      	ldr	r4, [r1, #4]
                               sClockSourceConfig->ClockFilter);
 8006732:	68cd      	ldr	r5, [r1, #12]
  tmpccer = TIMx->CCER;
 8006734:	6a11      	ldr	r1, [r2, #32]
  TIMx->CCER &= ~TIM_CCER_CC1E;
 8006736:	6a10      	ldr	r0, [r2, #32]
  tmpccer &= ~(TIM_CCER_CC1P | TIM_CCER_CC1NP);
 8006738:	f021 010a 	bic.w	r1, r1, #10
  TIMx->CCER &= ~TIM_CCER_CC1E;
 800673c:	f020 0001 	bic.w	r0, r0, #1
  tmpccer |= TIM_ICPolarity;
 8006740:	430c      	orrs	r4, r1
  tmpsmcr &= ~TIM_SMCR_TS;
 8006742:	4922      	ldr	r1, [pc, #136]	@ (80067cc <HAL_TIM_ConfigClockSource+0x184>)
  TIMx->CCER &= ~TIM_CCER_CC1E;
 8006744:	6210      	str	r0, [r2, #32]
  tmpccmr1 = TIMx->CCMR1;
 8006746:	6990      	ldr	r0, [r2, #24]
  tmpccmr1 &= ~TIM_CCMR1_IC1F;
 8006748:	f020 00f0 	bic.w	r0, r0, #240	@ 0xf0
  tmpccmr1 |= (TIM_ICFilter << 4U);
 800674c:	ea40 1005 	orr.w	r0, r0, r5, lsl #4
  TIMx->CCMR1 = tmpccmr1;
 8006750:	6190      	str	r0, [r2, #24]
  TIMx->CCER = tmpccer;
 8006752:	6214      	str	r4, [r2, #32]
  tmpsmcr = TIMx->SMCR;
 8006754:	6890      	ldr	r0, [r2, #8]
  tmpsmcr &= ~TIM_SMCR_TS;
 8006756:	4001      	ands	r1, r0
  tmpsmcr |= (InputTriggerSource | TIM_SLAVEMODE_EXTERNAL1);
 8006758:	f041 0157 	orr.w	r1, r1, #87	@ 0x57
  TIMx->SMCR = tmpsmcr;
 800675c:	6091      	str	r1, [r2, #8]
}
 800675e:	e7a6      	b.n	80066ae <HAL_TIM_ConfigClockSource+0x66>

  /* Reset the ETR Bits */
  tmpsmcr &= ~(TIM_SMCR_ETF | TIM_SMCR_ETPS | TIM_SMCR_ECE | TIM_SMCR_ETP);

  /* Set the Prescaler, the Filter value and the Polarity */
  tmpsmcr |= (uint32_t)(TIM_ExtTRGPrescaler | (TIM_ExtTRGPolarity | (ExtTRGFilter << 8U)));
 8006760:	e9d1 5001 	ldrd	r5, r0, [r1, #4]
  tmpsmcr = TIMx->SMCR;
 8006764:	6894      	ldr	r4, [r2, #8]
  tmpsmcr |= (uint32_t)(TIM_ExtTRGPrescaler | (TIM_ExtTRGPolarity | (ExtTRGFilter << 8U)));
 8006766:	4328      	orrs	r0, r5
 8006768:	68cd      	ldr	r5, [r1, #12]
  tmpsmcr &= ~(TIM_SMCR_ETF | TIM_SMCR_ETPS | TIM_SMCR_ECE | TIM_SMCR_ETP);
 800676a:	f424 417f 	bic.w	r1, r4, #65280	@ 0xff00
  tmpsmcr |= (uint32_t)(TIM_ExtTRGPrescaler | (TIM_ExtTRGPolarity | (ExtTRGFilter << 8U)));
 800676e:	ea40 2005 	orr.w	r0, r0, r5, lsl #8
 8006772:	4308      	orrs	r0, r1

  /* Write to TIMx SMCR */
  TIMx->SMCR = tmpsmcr;
 8006774:	6090      	str	r0, [r2, #8]
      htim->Instance->SMCR |= TIM_SMCR_ECE;
 8006776:	6891      	ldr	r1, [r2, #8]
 8006778:	f441 4180 	orr.w	r1, r1, #16384	@ 0x4000
 800677c:	6091      	str	r1, [r2, #8]
      break;
 800677e:	e796      	b.n	80066ae <HAL_TIM_ConfigClockSource+0x66>
  tmpsmcr |= (uint32_t)(TIM_ExtTRGPrescaler | (TIM_ExtTRGPolarity | (ExtTRGFilter << 8U)));
 8006780:	e9d1 5001 	ldrd	r5, r0, [r1, #4]
  tmpsmcr = TIMx->SMCR;
 8006784:	6894      	ldr	r4, [r2, #8]
  tmpsmcr |= (uint32_t)(TIM_ExtTRGPrescaler | (TIM_ExtTRGPolarity | (ExtTRGFilter << 8U)));
 8006786:	4328      	orrs	r0, r5
 8006788:	68cd      	ldr	r5, [r1, #12]
  tmpsmcr &= ~(TIM_SMCR_ETF | TIM_SMCR_ETPS | TIM_SMCR_ECE | TIM_SMCR_ETP);
 800678a:	f424 417f 	bic.w	r1, r4, #65280	@ 0xff00
  tmpsmcr |= (uint32_t)(TIM_ExtTRGPrescaler | (TIM_ExtTRGPolarity | (ExtTRGFilter << 8U)));
 800678e:	ea40 2005 	orr.w	r0, r0, r5, lsl #8
 8006792:	4308      	orrs	r0, r1
  TIMx->SMCR = tmpsmcr;
 8006794:	6090      	str	r0, [r2, #8]
      tmpsmcr = htim->Instance->SMCR;
 8006796:	6891      	ldr	r1, [r2, #8]
      tmpsmcr |= (TIM_SLAVEMODE_EXTERNAL1 | TIM_CLOCKSOURCE_ETRMODE1);
 8006798:	f041 0177 	orr.w	r1, r1, #119	@ 0x77
      htim->Instance->SMCR = tmpsmcr;
 800679c:	6091      	str	r1, [r2, #8]
      break;
 800679e:	e786      	b.n	80066ae <HAL_TIM_ConfigClockSource+0x66>
  switch (sClockSourceConfig->ClockSource)
 80067a0:	d886      	bhi.n	80066b0 <HAL_TIM_ConfigClockSource+0x68>
 80067a2:	2c20      	cmp	r4, #32
 80067a4:	d0ba      	beq.n	800671c <HAL_TIM_ConfigClockSource+0xd4>
 80067a6:	d80a      	bhi.n	80067be <HAL_TIM_ConfigClockSource+0x176>
 80067a8:	f034 0110 	bics.w	r1, r4, #16
 80067ac:	d180      	bne.n	80066b0 <HAL_TIM_ConfigClockSource+0x68>
 80067ae:	e7b5      	b.n	800671c <HAL_TIM_ConfigClockSource+0xd4>
 80067b0:	f024 0110 	bic.w	r1, r4, #16
 80067b4:	f5b1 1f80 	cmp.w	r1, #1048576	@ 0x100000
 80067b8:	f47f af7a 	bne.w	80066b0 <HAL_TIM_ConfigClockSource+0x68>
 80067bc:	e7ae      	b.n	800671c <HAL_TIM_ConfigClockSource+0xd4>
 80067be:	2c30      	cmp	r4, #48	@ 0x30
 80067c0:	d0ac      	beq.n	800671c <HAL_TIM_ConfigClockSource+0xd4>
      status = HAL_ERROR;
 80067c2:	2001      	movs	r0, #1
 80067c4:	e774      	b.n	80066b0 <HAL_TIM_ConfigClockSource+0x68>
 80067c6:	bf00      	nop
 80067c8:	ffce0088 	.word	0xffce0088
 80067cc:	ffcfff8f 	.word	0xffcfff8f
 80067d0:	00100020 	.word	0x00100020
 80067d4:	00100030 	.word	0x00100030

080067d8 <HAL_TIMEx_MasterConfigSynchronization>:
  assert_param(IS_TIM_MASTER_INSTANCE(htim->Instance));
  assert_param(IS_TIM_TRGO_SOURCE(sMasterConfig->MasterOutputTrigger));
  assert_param(IS_TIM_MSM_STATE(sMasterConfig->MasterSlaveMode));

  /* Check input state */
  __HAL_LOCK(htim);
 80067d8:	f890 303c 	ldrb.w	r3, [r0, #60]	@ 0x3c
 80067dc:	2b01      	cmp	r3, #1
 80067de:	d04b      	beq.n	8006878 <HAL_TIMEx_MasterConfigSynchronization+0xa0>

  /* Change the handler state */
  htim->State = HAL_TIM_STATE_BUSY;

  /* Get the TIMx CR2 register value */
  tmpcr2 = htim->Instance->CR2;
 80067e0:	6803      	ldr	r3, [r0, #0]
 80067e2:	4602      	mov	r2, r0
  htim->State = HAL_TIM_STATE_BUSY;
 80067e4:	2002      	movs	r0, #2
{
 80067e6:	b430      	push	{r4, r5}

  /* Get the TIMx SMCR register value */
  tmpsmcr = htim->Instance->SMCR;

  /* If the timer supports ADC synchronization through TRGO2, set the master mode selection 2 */
  if (IS_TIM_TRGO2_INSTANCE(htim->Instance))
 80067e8:	4d24      	ldr	r5, [pc, #144]	@ (800687c <HAL_TIMEx_MasterConfigSynchronization+0xa4>)
  htim->State = HAL_TIM_STATE_BUSY;
 80067ea:	f882 003d 	strb.w	r0, [r2, #61]	@ 0x3d
  if (IS_TIM_TRGO2_INSTANCE(htim->Instance))
 80067ee:	42ab      	cmp	r3, r5
  tmpcr2 = htim->Instance->CR2;
 80067f0:	6858      	ldr	r0, [r3, #4]
  tmpsmcr = htim->Instance->SMCR;
 80067f2:	689c      	ldr	r4, [r3, #8]
  if (IS_TIM_TRGO2_INSTANCE(htim->Instance))
 80067f4:	d029      	beq.n	800684a <HAL_TIMEx_MasterConfigSynchronization+0x72>
 80067f6:	f505 6580 	add.w	r5, r5, #1024	@ 0x400
 80067fa:	42ab      	cmp	r3, r5
 80067fc:	d025      	beq.n	800684a <HAL_TIMEx_MasterConfigSynchronization+0x72>
  tmpcr2 |=  sMasterConfig->MasterOutputTrigger;

  /* Update TIMx CR2 */
  htim->Instance->CR2 = tmpcr2;

  if (IS_TIM_SLAVE_INSTANCE(htim->Instance))
 80067fe:	4d20      	ldr	r5, [pc, #128]	@ (8006880 <HAL_TIMEx_MasterConfigSynchronization+0xa8>)
  tmpcr2 &= ~TIM_CR2_MMS;
 8006800:	f020 0070 	bic.w	r0, r0, #112	@ 0x70
  if (IS_TIM_SLAVE_INSTANCE(htim->Instance))
 8006804:	42ab      	cmp	r3, r5
 8006806:	bf18      	it	ne
 8006808:	f1b3 4f80 	cmpne.w	r3, #1073741824	@ 0x40000000
 800680c:	f505 6580 	add.w	r5, r5, #1024	@ 0x400
 8006810:	bf0c      	ite	eq
 8006812:	f04f 0c01 	moveq.w	ip, #1
 8006816:	f04f 0c00 	movne.w	ip, #0
 800681a:	42ab      	cmp	r3, r5
 800681c:	bf08      	it	eq
 800681e:	f04c 0c01 	orreq.w	ip, ip, #1
 8006822:	f505 6580 	add.w	r5, r5, #1024	@ 0x400
 8006826:	42ab      	cmp	r3, r5
 8006828:	bf08      	it	eq
 800682a:	f04c 0c01 	orreq.w	ip, ip, #1
  tmpcr2 |=  sMasterConfig->MasterOutputTrigger;
 800682e:	680d      	ldr	r5, [r1, #0]
 8006830:	4328      	orrs	r0, r5
  if (IS_TIM_SLAVE_INSTANCE(htim->Instance))
 8006832:	4d14      	ldr	r5, [pc, #80]	@ (8006884 <HAL_TIMEx_MasterConfigSynchronization+0xac>)
  htim->Instance->CR2 = tmpcr2;
 8006834:	6058      	str	r0, [r3, #4]
  if (IS_TIM_SLAVE_INSTANCE(htim->Instance))
 8006836:	42ab      	cmp	r3, r5
 8006838:	bf14      	ite	ne
 800683a:	4660      	movne	r0, ip
 800683c:	f04c 0001 	orreq.w	r0, ip, #1
 8006840:	b960      	cbnz	r0, 800685c <HAL_TIMEx_MasterConfigSynchronization+0x84>
 8006842:	4811      	ldr	r0, [pc, #68]	@ (8006888 <HAL_TIMEx_MasterConfigSynchronization+0xb0>)
 8006844:	4283      	cmp	r3, r0
 8006846:	d009      	beq.n	800685c <HAL_TIMEx_MasterConfigSynchronization+0x84>
 8006848:	e00d      	b.n	8006866 <HAL_TIMEx_MasterConfigSynchronization+0x8e>
    tmpcr2 |= sMasterConfig->MasterOutputTrigger2;
 800684a:	684d      	ldr	r5, [r1, #4]
    tmpcr2 &= ~TIM_CR2_MMS2;
 800684c:	f420 0070 	bic.w	r0, r0, #15728640	@ 0xf00000
    tmpcr2 |= sMasterConfig->MasterOutputTrigger2;
 8006850:	4328      	orrs	r0, r5
  tmpcr2 |=  sMasterConfig->MasterOutputTrigger;
 8006852:	680d      	ldr	r5, [r1, #0]
  tmpcr2 &= ~TIM_CR2_MMS;
 8006854:	f020 0070 	bic.w	r0, r0, #112	@ 0x70
  tmpcr2 |=  sMasterConfig->MasterOutputTrigger;
 8006858:	4328      	orrs	r0, r5
  htim->Instance->CR2 = tmpcr2;
 800685a:	6058      	str	r0, [r3, #4]
  {
    /* Reset the MSM Bit */
    tmpsmcr &= ~TIM_SMCR_MSM;
    /* Set master mode */
    tmpsmcr |= sMasterConfig->MasterSlaveMode;
 800685c:	6889      	ldr	r1, [r1, #8]
    tmpsmcr &= ~TIM_SMCR_MSM;
 800685e:	f024 0480 	bic.w	r4, r4, #128	@ 0x80
    tmpsmcr |= sMasterConfig->MasterSlaveMode;
 8006862:	430c      	orrs	r4, r1

    /* Update TIMx SMCR */
    htim->Instance->SMCR = tmpsmcr;
 8006864:	609c      	str	r4, [r3, #8]
  }

  /* Change the htim state */
  htim->State = HAL_TIM_STATE_READY;

  __HAL_UNLOCK(htim);
 8006866:	2300      	movs	r3, #0
  htim->State = HAL_TIM_STATE_READY;
 8006868:	2101      	movs	r1, #1

  return HAL_OK;
 800686a:	4618      	mov	r0, r3
  htim->State = HAL_TIM_STATE_READY;
 800686c:	f882 103d 	strb.w	r1, [r2, #61]	@ 0x3d
  __HAL_UNLOCK(htim);
 8006870:	f882 303c 	strb.w	r3, [r2, #60]	@ 0x3c
}
 8006874:	bc30      	pop	{r4, r5}
 8006876:	4770      	bx	lr
  __HAL_LOCK(htim);
 8006878:	2002      	movs	r0, #2
}
 800687a:	4770      	bx	lr
 800687c:	40010000 	.word	0x40010000
 8006880:	40000400 	.word	0x40000400
 8006884:	40001800 	.word	0x40001800
 8006888:	40014000 	.word	0x40014000

0800688c <arm_fill_f32>:
 800688c:	b410      	push	{r4}
 800688e:	088c      	lsrs	r4, r1, #2
 8006890:	d010      	beq.n	80068b4 <arm_fill_f32+0x28>
 8006892:	f100 0310 	add.w	r3, r0, #16
 8006896:	4622      	mov	r2, r4
 8006898:	3a01      	subs	r2, #1
 800689a:	ed03 0a04 	vstr	s0, [r3, #-16]
 800689e:	ed03 0a03 	vstr	s0, [r3, #-12]
 80068a2:	f103 0310 	add.w	r3, r3, #16
 80068a6:	ed03 0a06 	vstr	s0, [r3, #-24]	@ 0xffffffe8
 80068aa:	ed03 0a05 	vstr	s0, [r3, #-20]	@ 0xffffffec
 80068ae:	d1f3      	bne.n	8006898 <arm_fill_f32+0xc>
 80068b0:	eb00 1004 	add.w	r0, r0, r4, lsl #4
 80068b4:	f011 0103 	ands.w	r1, r1, #3
 80068b8:	d003      	beq.n	80068c2 <arm_fill_f32+0x36>
 80068ba:	3901      	subs	r1, #1
 80068bc:	eca0 0a01 	vstmia	r0!, {s0}
 80068c0:	d1fb      	bne.n	80068ba <arm_fill_f32+0x2e>
 80068c2:	f85d 4b04 	ldr.w	r4, [sp], #4
 80068c6:	4770      	bx	lr

080068c8 <arm_copy_f32>:
 80068c8:	e92d 41f0 	stmdb	sp!, {r4, r5, r6, r7, r8, lr}
 80068cc:	ea5f 0892 	movs.w	r8, r2, lsr #2
 80068d0:	d01e      	beq.n	8006910 <arm_copy_f32+0x48>
 80068d2:	f100 0410 	add.w	r4, r0, #16
 80068d6:	f101 0310 	add.w	r3, r1, #16
 80068da:	4645      	mov	r5, r8
 80068dc:	f854 cc10 	ldr.w	ip, [r4, #-16]
 80068e0:	3d01      	subs	r5, #1
 80068e2:	f854 ec0c 	ldr.w	lr, [r4, #-12]
 80068e6:	f103 0310 	add.w	r3, r3, #16
 80068ea:	f854 7c08 	ldr.w	r7, [r4, #-8]
 80068ee:	f104 0410 	add.w	r4, r4, #16
 80068f2:	f854 6c14 	ldr.w	r6, [r4, #-20]
 80068f6:	f843 cc20 	str.w	ip, [r3, #-32]
 80068fa:	f843 ec1c 	str.w	lr, [r3, #-28]
 80068fe:	f843 7c18 	str.w	r7, [r3, #-24]
 8006902:	f843 6c14 	str.w	r6, [r3, #-20]
 8006906:	d1e9      	bne.n	80068dc <arm_copy_f32+0x14>
 8006908:	ea4f 1808 	mov.w	r8, r8, lsl #4
 800690c:	4440      	add	r0, r8
 800690e:	4441      	add	r1, r8
 8006910:	f012 0203 	ands.w	r2, r2, #3
 8006914:	d005      	beq.n	8006922 <arm_copy_f32+0x5a>
 8006916:	f850 3b04 	ldr.w	r3, [r0], #4
 800691a:	3a01      	subs	r2, #1
 800691c:	f841 3b04 	str.w	r3, [r1], #4
 8006920:	d1f9      	bne.n	8006916 <arm_copy_f32+0x4e>
 8006922:	e8bd 81f0 	ldmia.w	sp!, {r4, r5, r6, r7, r8, pc}
 8006926:	bf00      	nop

08006928 <arm_rfft_fast_init_f32>:
 8006928:	084b      	lsrs	r3, r1, #1
 800692a:	2b80      	cmp	r3, #128	@ 0x80
 800692c:	b430      	push	{r4, r5}
 800692e:	8201      	strh	r1, [r0, #16]
 8006930:	8003      	strh	r3, [r0, #0]
 8006932:	d06f      	beq.n	8006a14 <arm_rfft_fast_init_f32+0xec>
 8006934:	d916      	bls.n	8006964 <arm_rfft_fast_init_f32+0x3c>
 8006936:	f5b3 7f00 	cmp.w	r3, #512	@ 0x200
 800693a:	d05e      	beq.n	80069fa <arm_rfft_fast_init_f32+0xd2>
 800693c:	d935      	bls.n	80069aa <arm_rfft_fast_init_f32+0x82>
 800693e:	f5b3 6f80 	cmp.w	r3, #1024	@ 0x400
 8006942:	d025      	beq.n	8006990 <arm_rfft_fast_init_f32+0x68>
 8006944:	f5b3 6f00 	cmp.w	r3, #2048	@ 0x800
 8006948:	d112      	bne.n	8006970 <arm_rfft_fast_init_f32+0x48>
 800694a:	f44f 656e 	mov.w	r5, #3808	@ 0xee0
 800694e:	4c37      	ldr	r4, [pc, #220]	@ (8006a2c <arm_rfft_fast_init_f32+0x104>)
 8006950:	4937      	ldr	r1, [pc, #220]	@ (8006a30 <arm_rfft_fast_init_f32+0x108>)
 8006952:	2300      	movs	r3, #0
 8006954:	4a37      	ldr	r2, [pc, #220]	@ (8006a34 <arm_rfft_fast_init_f32+0x10c>)
 8006956:	8185      	strh	r5, [r0, #12]
 8006958:	6084      	str	r4, [r0, #8]
 800695a:	6041      	str	r1, [r0, #4]
 800695c:	6142      	str	r2, [r0, #20]
 800695e:	b258      	sxtb	r0, r3
 8006960:	bc30      	pop	{r4, r5}
 8006962:	4770      	bx	lr
 8006964:	2b20      	cmp	r3, #32
 8006966:	d030      	beq.n	80069ca <arm_rfft_fast_init_f32+0xa2>
 8006968:	2b40      	cmp	r3, #64	@ 0x40
 800696a:	d005      	beq.n	8006978 <arm_rfft_fast_init_f32+0x50>
 800696c:	2b10      	cmp	r3, #16
 800696e:	d038      	beq.n	80069e2 <arm_rfft_fast_init_f32+0xba>
 8006970:	23ff      	movs	r3, #255	@ 0xff
 8006972:	bc30      	pop	{r4, r5}
 8006974:	b258      	sxtb	r0, r3
 8006976:	4770      	bx	lr
 8006978:	2538      	movs	r5, #56	@ 0x38
 800697a:	4c2f      	ldr	r4, [pc, #188]	@ (8006a38 <arm_rfft_fast_init_f32+0x110>)
 800697c:	492f      	ldr	r1, [pc, #188]	@ (8006a3c <arm_rfft_fast_init_f32+0x114>)
 800697e:	2300      	movs	r3, #0
 8006980:	4a2f      	ldr	r2, [pc, #188]	@ (8006a40 <arm_rfft_fast_init_f32+0x118>)
 8006982:	8185      	strh	r5, [r0, #12]
 8006984:	6084      	str	r4, [r0, #8]
 8006986:	6041      	str	r1, [r0, #4]
 8006988:	6142      	str	r2, [r0, #20]
 800698a:	b258      	sxtb	r0, r3
 800698c:	bc30      	pop	{r4, r5}
 800698e:	4770      	bx	lr
 8006990:	f44f 65e1 	mov.w	r5, #1800	@ 0x708
 8006994:	4c2b      	ldr	r4, [pc, #172]	@ (8006a44 <arm_rfft_fast_init_f32+0x11c>)
 8006996:	492c      	ldr	r1, [pc, #176]	@ (8006a48 <arm_rfft_fast_init_f32+0x120>)
 8006998:	2300      	movs	r3, #0
 800699a:	4a2c      	ldr	r2, [pc, #176]	@ (8006a4c <arm_rfft_fast_init_f32+0x124>)
 800699c:	8185      	strh	r5, [r0, #12]
 800699e:	6084      	str	r4, [r0, #8]
 80069a0:	6041      	str	r1, [r0, #4]
 80069a2:	6142      	str	r2, [r0, #20]
 80069a4:	b258      	sxtb	r0, r3
 80069a6:	bc30      	pop	{r4, r5}
 80069a8:	4770      	bx	lr
 80069aa:	f5b3 7f80 	cmp.w	r3, #256	@ 0x100
 80069ae:	d1df      	bne.n	8006970 <arm_rfft_fast_init_f32+0x48>
 80069b0:	f44f 75dc 	mov.w	r5, #440	@ 0x1b8
 80069b4:	4c26      	ldr	r4, [pc, #152]	@ (8006a50 <arm_rfft_fast_init_f32+0x128>)
 80069b6:	4927      	ldr	r1, [pc, #156]	@ (8006a54 <arm_rfft_fast_init_f32+0x12c>)
 80069b8:	2300      	movs	r3, #0
 80069ba:	4a27      	ldr	r2, [pc, #156]	@ (8006a58 <arm_rfft_fast_init_f32+0x130>)
 80069bc:	8185      	strh	r5, [r0, #12]
 80069be:	6084      	str	r4, [r0, #8]
 80069c0:	6041      	str	r1, [r0, #4]
 80069c2:	6142      	str	r2, [r0, #20]
 80069c4:	b258      	sxtb	r0, r3
 80069c6:	bc30      	pop	{r4, r5}
 80069c8:	4770      	bx	lr
 80069ca:	2530      	movs	r5, #48	@ 0x30
 80069cc:	4c23      	ldr	r4, [pc, #140]	@ (8006a5c <arm_rfft_fast_init_f32+0x134>)
 80069ce:	4924      	ldr	r1, [pc, #144]	@ (8006a60 <arm_rfft_fast_init_f32+0x138>)
 80069d0:	2300      	movs	r3, #0
 80069d2:	4a24      	ldr	r2, [pc, #144]	@ (8006a64 <arm_rfft_fast_init_f32+0x13c>)
 80069d4:	8185      	strh	r5, [r0, #12]
 80069d6:	6084      	str	r4, [r0, #8]
 80069d8:	6041      	str	r1, [r0, #4]
 80069da:	6142      	str	r2, [r0, #20]
 80069dc:	b258      	sxtb	r0, r3
 80069de:	bc30      	pop	{r4, r5}
 80069e0:	4770      	bx	lr
 80069e2:	2514      	movs	r5, #20
 80069e4:	4c20      	ldr	r4, [pc, #128]	@ (8006a68 <arm_rfft_fast_init_f32+0x140>)
 80069e6:	4921      	ldr	r1, [pc, #132]	@ (8006a6c <arm_rfft_fast_init_f32+0x144>)
 80069e8:	2300      	movs	r3, #0
 80069ea:	4a21      	ldr	r2, [pc, #132]	@ (8006a70 <arm_rfft_fast_init_f32+0x148>)
 80069ec:	8185      	strh	r5, [r0, #12]
 80069ee:	6084      	str	r4, [r0, #8]
 80069f0:	6041      	str	r1, [r0, #4]
 80069f2:	6142      	str	r2, [r0, #20]
 80069f4:	b258      	sxtb	r0, r3
 80069f6:	bc30      	pop	{r4, r5}
 80069f8:	4770      	bx	lr
 80069fa:	f44f 75e0 	mov.w	r5, #448	@ 0x1c0
 80069fe:	4c1d      	ldr	r4, [pc, #116]	@ (8006a74 <arm_rfft_fast_init_f32+0x14c>)
 8006a00:	491d      	ldr	r1, [pc, #116]	@ (8006a78 <arm_rfft_fast_init_f32+0x150>)
 8006a02:	2300      	movs	r3, #0
 8006a04:	4a1d      	ldr	r2, [pc, #116]	@ (8006a7c <arm_rfft_fast_init_f32+0x154>)
 8006a06:	8185      	strh	r5, [r0, #12]
 8006a08:	6084      	str	r4, [r0, #8]
 8006a0a:	6041      	str	r1, [r0, #4]
 8006a0c:	6142      	str	r2, [r0, #20]
 8006a0e:	b258      	sxtb	r0, r3
 8006a10:	bc30      	pop	{r4, r5}
 8006a12:	4770      	bx	lr
 8006a14:	25d0      	movs	r5, #208	@ 0xd0
 8006a16:	4c1a      	ldr	r4, [pc, #104]	@ (8006a80 <arm_rfft_fast_init_f32+0x158>)
 8006a18:	491a      	ldr	r1, [pc, #104]	@ (8006a84 <arm_rfft_fast_init_f32+0x15c>)
 8006a1a:	2300      	movs	r3, #0
 8006a1c:	4a1a      	ldr	r2, [pc, #104]	@ (8006a88 <arm_rfft_fast_init_f32+0x160>)
 8006a1e:	8185      	strh	r5, [r0, #12]
 8006a20:	6084      	str	r4, [r0, #8]
 8006a22:	6041      	str	r1, [r0, #4]
 8006a24:	6142      	str	r2, [r0, #20]
 8006a26:	b258      	sxtb	r0, r3
 8006a28:	bc30      	pop	{r4, r5}
 8006a2a:	4770      	bx	lr
 8006a2c:	0807a544 	.word	0x0807a544
 8006a30:	0806b73c 	.word	0x0806b73c
 8006a34:	080718ac 	.word	0x080718ac
 8006a38:	0806f83c 	.word	0x0806f83c
 8006a3c:	0807c304 	.word	0x0807c304
 8006a40:	0807e7f4 	.word	0x0807e7f4
 8006a44:	0807822c 	.word	0x0807822c
 8006a48:	0807612c 	.word	0x0807612c
 8006a4c:	0806f8ac 	.word	0x0806f8ac
 8006a50:	0807e484 	.word	0x0807e484
 8006a54:	080758ac 	.word	0x080758ac
 8006a58:	0807c504 	.word	0x0807c504
 8006a5c:	080790e4 	.word	0x080790e4
 8006a60:	0807812c 	.word	0x0807812c
 8006a64:	0806f73c 	.word	0x0806f73c
 8006a68:	0807903c 	.word	0x0807903c
 8006a6c:	080760ac 	.word	0x080760ac
 8006a70:	08079064 	.word	0x08079064
 8006a74:	0807cd04 	.word	0x0807cd04
 8006a78:	08079544 	.word	0x08079544
 8006a7c:	0807d084 	.word	0x0807d084
 8006a80:	0807e9f4 	.word	0x0807e9f4
 8006a84:	08079144 	.word	0x08079144
 8006a88:	0807e084 	.word	0x0807e084

08006a8c <arm_rfft_fast_f32>:
 8006a8c:	e92d 41f0 	stmdb	sp!, {r4, r5, r6, r7, r8, lr}
 8006a90:	8a05      	ldrh	r5, [r0, #16]
 8006a92:	4606      	mov	r6, r0
 8006a94:	4690      	mov	r8, r2
 8006a96:	460c      	mov	r4, r1
 8006a98:	086d      	lsrs	r5, r5, #1
 8006a9a:	8005      	strh	r5, [r0, #0]
 8006a9c:	2b00      	cmp	r3, #0
 8006a9e:	d15e      	bne.n	8006b5e <arm_rfft_fast_f32+0xd2>
 8006aa0:	461a      	mov	r2, r3
 8006aa2:	2301      	movs	r3, #1
 8006aa4:	f000 fbe0 	bl	8007268 <arm_cfft_f32>
 8006aa8:	edd4 7a00 	vldr	s15, [r4]
 8006aac:	ed94 7a01 	vldr	s14, [r4, #4]
 8006ab0:	eeb6 6a00 	vmov.f32	s12, #96	@ 0x3f000000  0.5
 8006ab4:	ee77 7aa7 	vadd.f32	s15, s15, s15
 8006ab8:	8837      	ldrh	r7, [r6, #0]
 8006aba:	ee37 7a07 	vadd.f32	s14, s14, s14
 8006abe:	6975      	ldr	r5, [r6, #20]
 8006ac0:	3f01      	subs	r7, #1
 8006ac2:	eef0 3a46 	vmov.f32	s7, s12
 8006ac6:	3510      	adds	r5, #16
 8006ac8:	f108 0610 	add.w	r6, r8, #16
 8006acc:	ee77 6a87 	vadd.f32	s13, s15, s14
 8006ad0:	eb04 00c7 	add.w	r0, r4, r7, lsl #3
 8006ad4:	ee77 7ac7 	vsub.f32	s15, s15, s14
 8006ad8:	f104 0310 	add.w	r3, r4, #16
 8006adc:	3808      	subs	r0, #8
 8006ade:	ee26 7a86 	vmul.f32	s14, s13, s12
 8006ae2:	ee67 7a86 	vmul.f32	s15, s15, s12
 8006ae6:	ed88 7a00 	vstr	s14, [r8]
 8006aea:	edc8 7a01 	vstr	s15, [r8, #4]
 8006aee:	edd0 6a02 	vldr	s13, [r0, #8]
 8006af2:	3f01      	subs	r7, #1
 8006af4:	ed13 5a02 	vldr	s10, [r3, #-8]
 8006af8:	f1a0 0008 	sub.w	r0, r0, #8
 8006afc:	ed13 7a01 	vldr	s14, [r3, #-4]
 8006b00:	f105 0508 	add.w	r5, r5, #8
 8006b04:	ee76 7ac5 	vsub.f32	s15, s13, s10
 8006b08:	ed15 6a04 	vldr	s12, [r5, #-16]
 8006b0c:	edd0 5a05 	vldr	s11, [r0, #20]
 8006b10:	ee36 5a85 	vadd.f32	s10, s13, s10
 8006b14:	ed55 6a03 	vldr	s13, [r5, #-12]
 8006b18:	f103 0308 	add.w	r3, r3, #8
 8006b1c:	ee35 4a87 	vadd.f32	s8, s11, s14
 8006b20:	f106 0608 	add.w	r6, r6, #8
 8006b24:	ee66 4a27 	vmul.f32	s9, s12, s15
 8006b28:	ee77 5a65 	vsub.f32	s11, s14, s11
 8006b2c:	ee26 7aa7 	vmul.f32	s14, s13, s15
 8006b30:	ee34 5a85 	vadd.f32	s10, s9, s10
 8006b34:	ee26 6a04 	vmul.f32	s12, s12, s8
 8006b38:	ee66 6a84 	vmul.f32	s13, s13, s8
 8006b3c:	ee77 7a25 	vadd.f32	s15, s14, s11
 8006b40:	ee76 6a85 	vadd.f32	s13, s13, s10
 8006b44:	ee77 7ac6 	vsub.f32	s15, s15, s12
 8006b48:	ee66 6aa3 	vmul.f32	s13, s13, s7
 8006b4c:	ee67 7aa3 	vmul.f32	s15, s15, s7
 8006b50:	ed46 6a04 	vstr	s13, [r6, #-16]
 8006b54:	ed46 7a03 	vstr	s15, [r6, #-12]
 8006b58:	d1c9      	bne.n	8006aee <arm_rfft_fast_f32+0x62>
 8006b5a:	e8bd 81f0 	ldmia.w	sp!, {r4, r5, r6, r7, r8, pc}
 8006b5e:	edd1 7a00 	vldr	s15, [r1]
 8006b62:	eef6 3a00 	vmov.f32	s7, #96	@ 0x3f000000  0.5
 8006b66:	edd1 6a01 	vldr	s13, [r1, #4]
 8006b6a:	1e68      	subs	r0, r5, #1
 8006b6c:	6975      	ldr	r5, [r6, #20]
 8006b6e:	ee37 7aa6 	vadd.f32	s14, s15, s13
 8006b72:	00c1      	lsls	r1, r0, #3
 8006b74:	ee77 7ae6 	vsub.f32	s15, s15, s13
 8006b78:	ee27 7a23 	vmul.f32	s14, s14, s7
 8006b7c:	ee67 7aa3 	vmul.f32	s15, s15, s7
 8006b80:	ed82 7a00 	vstr	s14, [r2]
 8006b84:	edc2 7a01 	vstr	s15, [r2, #4]
 8006b88:	b3e0      	cbz	r0, 8006c04 <arm_rfft_fast_f32+0x178>
 8006b8a:	3908      	subs	r1, #8
 8006b8c:	f104 0210 	add.w	r2, r4, #16
 8006b90:	3510      	adds	r5, #16
 8006b92:	440c      	add	r4, r1
 8006b94:	f108 0110 	add.w	r1, r8, #16
 8006b98:	ed94 7a02 	vldr	s14, [r4, #8]
 8006b9c:	3801      	subs	r0, #1
 8006b9e:	ed52 6a02 	vldr	s13, [r2, #-8]
 8006ba2:	f1a4 0408 	sub.w	r4, r4, #8
 8006ba6:	ed15 6a02 	vldr	s12, [r5, #-8]
 8006baa:	f102 0208 	add.w	r2, r2, #8
 8006bae:	ee76 7ac7 	vsub.f32	s15, s13, s14
 8006bb2:	ed94 4a05 	vldr	s8, [r4, #20]
 8006bb6:	ed12 5a03 	vldr	s10, [r2, #-12]
 8006bba:	ee77 6a26 	vadd.f32	s13, s14, s13
 8006bbe:	ed55 5a01 	vldr	s11, [r5, #-4]
 8006bc2:	f101 0108 	add.w	r1, r1, #8
 8006bc6:	ee26 3a27 	vmul.f32	s6, s12, s15
 8006bca:	f105 0508 	add.w	r5, r5, #8
 8006bce:	ee74 4a05 	vadd.f32	s9, s8, s10
 8006bd2:	ee25 7aa7 	vmul.f32	s14, s11, s15
 8006bd6:	ee35 5a44 	vsub.f32	s10, s10, s8
 8006bda:	ee76 6ac3 	vsub.f32	s13, s13, s6
 8006bde:	ee26 6a24 	vmul.f32	s12, s12, s9
 8006be2:	ee77 7a05 	vadd.f32	s15, s14, s10
 8006be6:	ee65 5aa4 	vmul.f32	s11, s11, s9
 8006bea:	ee77 7ac6 	vsub.f32	s15, s15, s12
 8006bee:	ee36 7ae5 	vsub.f32	s14, s13, s11
 8006bf2:	ee67 7aa3 	vmul.f32	s15, s15, s7
 8006bf6:	ee27 7a23 	vmul.f32	s14, s14, s7
 8006bfa:	ed41 7a03 	vstr	s15, [r1, #-12]
 8006bfe:	ed01 7a04 	vstr	s14, [r1, #-16]
 8006c02:	d1c9      	bne.n	8006b98 <arm_rfft_fast_f32+0x10c>
 8006c04:	4630      	mov	r0, r6
 8006c06:	4641      	mov	r1, r8
 8006c08:	461a      	mov	r2, r3
 8006c0a:	2301      	movs	r3, #1
 8006c0c:	e8bd 41f0 	ldmia.w	sp!, {r4, r5, r6, r7, r8, lr}
 8006c10:	f000 bb2a 	b.w	8007268 <arm_cfft_f32>

08006c14 <arm_cfft_radix8by2_f32>:
 8006c14:	e92d 41f0 	stmdb	sp!, {r4, r5, r6, r7, r8, lr}
 8006c18:	ed2d 8b06 	vpush	{d8-d10}
 8006c1c:	f8b0 e000 	ldrh.w	lr, [r0]
 8006c20:	4607      	mov	r7, r0
 8006c22:	6842      	ldr	r2, [r0, #4]
 8006c24:	ea4f 0c5e 	mov.w	ip, lr, lsr #1
 8006c28:	eb01 088e 	add.w	r8, r1, lr, lsl #2
 8006c2c:	ea5f 0ede 	movs.w	lr, lr, lsr #3
 8006c30:	ea4f 038c 	mov.w	r3, ip, lsl #2
 8006c34:	f000 80af 	beq.w	8006d96 <arm_cfft_radix8by2_f32+0x182>
 8006c38:	3310      	adds	r3, #16
 8006c3a:	3210      	adds	r2, #16
 8006c3c:	f101 0610 	add.w	r6, r1, #16
 8006c40:	f108 0510 	add.w	r5, r8, #16
 8006c44:	18cc      	adds	r4, r1, r3
 8006c46:	4443      	add	r3, r8
 8006c48:	ed55 6a04 	vldr	s13, [r5, #-16]
 8006c4c:	f1be 0e01 	subs.w	lr, lr, #1
 8006c50:	ed56 4a04 	vldr	s9, [r6, #-16]
 8006c54:	f104 0410 	add.w	r4, r4, #16
 8006c58:	ed55 7a02 	vldr	s15, [r5, #-8]
 8006c5c:	f106 0610 	add.w	r6, r6, #16
 8006c60:	ee74 9aa6 	vadd.f32	s19, s9, s13
 8006c64:	ed53 0a04 	vldr	s1, [r3, #-16]
 8006c68:	ed13 5a03 	vldr	s10, [r3, #-12]
 8006c6c:	ee74 4ae6 	vsub.f32	s9, s9, s13
 8006c70:	ed13 3a02 	vldr	s6, [r3, #-8]
 8006c74:	f102 0210 	add.w	r2, r2, #16
 8006c78:	ed15 7a03 	vldr	s14, [r5, #-12]
 8006c7c:	f103 0310 	add.w	r3, r3, #16
 8006c80:	ed55 2a01 	vldr	s5, [r5, #-4]
 8006c84:	f105 0510 	add.w	r5, r5, #16
 8006c88:	ed54 3a06 	vldr	s7, [r4, #-24]	@ 0xffffffe8
 8006c8c:	ed14 4a05 	vldr	s8, [r4, #-20]	@ 0xffffffec
 8006c90:	ed13 6a05 	vldr	s12, [r3, #-20]	@ 0xffffffec
 8006c94:	ee33 8a83 	vadd.f32	s16, s7, s6
 8006c98:	ed56 6a07 	vldr	s13, [r6, #-28]	@ 0xffffffe4
 8006c9c:	ed16 2a05 	vldr	s4, [r6, #-20]	@ 0xffffffec
 8006ca0:	ee34 0a06 	vadd.f32	s0, s8, s12
 8006ca4:	ed54 5a08 	vldr	s11, [r4, #-32]	@ 0xffffffe0
 8006ca8:	ee76 aa87 	vadd.f32	s21, s13, s14
 8006cac:	ed14 1a07 	vldr	s2, [r4, #-28]	@ 0xffffffe4
 8006cb0:	ee36 7ac7 	vsub.f32	s14, s13, s14
 8006cb4:	ed56 1a06 	vldr	s3, [r6, #-24]	@ 0xffffffe8
 8006cb8:	ee35 9aa0 	vadd.f32	s18, s11, s1
 8006cbc:	ed46 9a08 	vstr	s19, [r6, #-32]	@ 0xffffffe0
 8006cc0:	ee71 8a05 	vadd.f32	s17, s2, s10
 8006cc4:	ee31 aaa7 	vadd.f32	s20, s3, s15
 8006cc8:	ed46 aa07 	vstr	s21, [r6, #-28]	@ 0xffffffe4
 8006ccc:	ee72 9a22 	vadd.f32	s19, s4, s5
 8006cd0:	ee70 5ae5 	vsub.f32	s11, s1, s11
 8006cd4:	ee35 5a41 	vsub.f32	s10, s10, s2
 8006cd8:	ed06 aa06 	vstr	s20, [r6, #-24]	@ 0xffffffe8
 8006cdc:	ed46 9a05 	vstr	s19, [r6, #-20]	@ 0xffffffec
 8006ce0:	ee36 6a44 	vsub.f32	s12, s12, s8
 8006ce4:	ed04 9a08 	vstr	s18, [r4, #-32]	@ 0xffffffe0
 8006ce8:	ee71 1ae7 	vsub.f32	s3, s3, s15
 8006cec:	ed44 8a07 	vstr	s17, [r4, #-28]	@ 0xffffffe4
 8006cf0:	ee72 7a62 	vsub.f32	s15, s4, s5
 8006cf4:	ed04 8a06 	vstr	s16, [r4, #-24]	@ 0xffffffe8
 8006cf8:	ee73 2a63 	vsub.f32	s5, s6, s7
 8006cfc:	ed04 0a05 	vstr	s0, [r4, #-20]	@ 0xffffffec
 8006d00:	ed12 4a08 	vldr	s8, [r2, #-32]	@ 0xffffffe0
 8006d04:	ed52 6a07 	vldr	s13, [r2, #-28]	@ 0xffffffe4
 8006d08:	ee24 3a84 	vmul.f32	s6, s9, s8
 8006d0c:	ee27 2a26 	vmul.f32	s4, s14, s13
 8006d10:	ee64 4aa6 	vmul.f32	s9, s9, s13
 8006d14:	ee65 3aa6 	vmul.f32	s7, s11, s13
 8006d18:	ee27 7a04 	vmul.f32	s14, s14, s8
 8006d1c:	ee65 5a84 	vmul.f32	s11, s11, s8
 8006d20:	ee65 6a26 	vmul.f32	s13, s10, s13
 8006d24:	ee25 5a04 	vmul.f32	s10, s10, s8
 8006d28:	ee37 7a64 	vsub.f32	s14, s14, s9
 8006d2c:	ee76 6aa5 	vadd.f32	s13, s13, s11
 8006d30:	ee33 4a02 	vadd.f32	s8, s6, s4
 8006d34:	ee33 5ac5 	vsub.f32	s10, s7, s10
 8006d38:	ed05 7a07 	vstr	s14, [r5, #-28]	@ 0xffffffe4
 8006d3c:	ed05 4a08 	vstr	s8, [r5, #-32]	@ 0xffffffe0
 8006d40:	ed03 5a08 	vstr	s10, [r3, #-32]	@ 0xffffffe0
 8006d44:	ed43 6a07 	vstr	s13, [r3, #-28]	@ 0xffffffe4
 8006d48:	ed52 6a06 	vldr	s13, [r2, #-24]	@ 0xffffffe8
 8006d4c:	ed12 7a05 	vldr	s14, [r2, #-20]	@ 0xffffffec
 8006d50:	ee61 4aa6 	vmul.f32	s9, s3, s13
 8006d54:	ee27 4a87 	vmul.f32	s8, s15, s14
 8006d58:	ee61 5a87 	vmul.f32	s11, s3, s14
 8006d5c:	ee67 7aa6 	vmul.f32	s15, s15, s13
 8006d60:	ee22 5a87 	vmul.f32	s10, s5, s14
 8006d64:	ee26 7a07 	vmul.f32	s14, s12, s14
 8006d68:	ee26 6a26 	vmul.f32	s12, s12, s13
 8006d6c:	ee62 6aa6 	vmul.f32	s13, s5, s13
 8006d70:	ee74 4a84 	vadd.f32	s9, s9, s8
 8006d74:	ee77 7ae5 	vsub.f32	s15, s15, s11
 8006d78:	ee35 6a46 	vsub.f32	s12, s10, s12
 8006d7c:	ee37 7a26 	vadd.f32	s14, s14, s13
 8006d80:	ed45 4a06 	vstr	s9, [r5, #-24]	@ 0xffffffe8
 8006d84:	ed45 7a05 	vstr	s15, [r5, #-20]	@ 0xffffffec
 8006d88:	ed03 6a06 	vstr	s12, [r3, #-24]	@ 0xffffffe8
 8006d8c:	ed03 7a05 	vstr	s14, [r3, #-20]	@ 0xffffffec
 8006d90:	f47f af5a 	bne.w	8006c48 <arm_cfft_radix8by2_f32+0x34>
 8006d94:	687a      	ldr	r2, [r7, #4]
 8006d96:	fa1f f48c 	uxth.w	r4, ip
 8006d9a:	4608      	mov	r0, r1
 8006d9c:	2302      	movs	r3, #2
 8006d9e:	4621      	mov	r1, r4
 8006da0:	f000 fcbe 	bl	8007720 <arm_radix8_butterfly_f32>
 8006da4:	4640      	mov	r0, r8
 8006da6:	4621      	mov	r1, r4
 8006da8:	687a      	ldr	r2, [r7, #4]
 8006daa:	2302      	movs	r3, #2
 8006dac:	ecbd 8b06 	vpop	{d8-d10}
 8006db0:	e8bd 41f0 	ldmia.w	sp!, {r4, r5, r6, r7, r8, lr}
 8006db4:	f000 bcb4 	b.w	8007720 <arm_radix8_butterfly_f32>

08006db8 <arm_cfft_radix8by4_f32>:
 8006db8:	e92d 4ff0 	stmdb	sp!, {r4, r5, r6, r7, r8, r9, sl, fp, lr}
 8006dbc:	ed2d 8b06 	vpush	{d8-d10}
 8006dc0:	8804      	ldrh	r4, [r0, #0]
 8006dc2:	b08f      	sub	sp, #60	@ 0x3c
 8006dc4:	ed91 6a00 	vldr	s12, [r1]
 8006dc8:	460a      	mov	r2, r1
 8006dca:	0864      	lsrs	r4, r4, #1
 8006dcc:	ed91 7a01 	vldr	s14, [r1, #4]
 8006dd0:	9101      	str	r1, [sp, #4]
 8006dd2:	00a3      	lsls	r3, r4, #2
 8006dd4:	9104      	str	r1, [sp, #16]
 8006dd6:	0864      	lsrs	r4, r4, #1
 8006dd8:	6841      	ldr	r1, [r0, #4]
 8006dda:	900c      	str	r0, [sp, #48]	@ 0x30
 8006ddc:	4625      	mov	r5, r4
 8006dde:	940b      	str	r4, [sp, #44]	@ 0x2c
 8006de0:	f101 0408 	add.w	r4, r1, #8
 8006de4:	f101 0610 	add.w	r6, r1, #16
 8006de8:	9406      	str	r4, [sp, #24]
 8006dea:	18d4      	adds	r4, r2, r3
 8006dec:	1eaa      	subs	r2, r5, #2
 8006dee:	f101 0518 	add.w	r5, r1, #24
 8006df2:	18e0      	adds	r0, r4, r3
 8006df4:	ed94 4a00 	vldr	s8, [r4]
 8006df8:	edd4 3a01 	vldr	s7, [r4, #4]
 8006dfc:	46a6      	mov	lr, r4
 8006dfe:	edd0 6a00 	vldr	s13, [r0]
 8006e02:	18c7      	adds	r7, r0, r3
 8006e04:	edd0 7a01 	vldr	s15, [r0, #4]
 8006e08:	46a0      	mov	r8, r4
 8006e0a:	ee76 5a26 	vadd.f32	s11, s12, s13
 8006e0e:	edd7 4a00 	vldr	s9, [r7]
 8006e12:	9402      	str	r4, [sp, #8]
 8006e14:	4604      	mov	r4, r0
 8006e16:	9507      	str	r5, [sp, #28]
 8006e18:	4605      	mov	r5, r0
 8006e1a:	ee75 2a84 	vadd.f32	s5, s11, s8
 8006e1e:	900a      	str	r0, [sp, #40]	@ 0x28
 8006e20:	9801      	ldr	r0, [sp, #4]
 8006e22:	ee76 6a66 	vsub.f32	s13, s12, s13
 8006e26:	ee37 6a27 	vadd.f32	s12, s14, s15
 8006e2a:	ed97 5a01 	vldr	s10, [r7, #4]
 8006e2e:	ee74 2aa2 	vadd.f32	s5, s9, s5
 8006e32:	46bc      	mov	ip, r7
 8006e34:	ee77 7a67 	vsub.f32	s15, s14, s15
 8006e38:	9605      	str	r6, [sp, #20]
 8006e3a:	ee36 7a63 	vsub.f32	s14, s12, s7
 8006e3e:	9703      	str	r7, [sp, #12]
 8006e40:	ee12 9a90 	vmov	r9, s5
 8006e44:	ee33 3aa6 	vadd.f32	s6, s7, s13
 8006e48:	ee75 5ac4 	vsub.f32	s11, s11, s8
 8006e4c:	1f3e      	subs	r6, r7, #4
 8006e4e:	f840 9b08 	str.w	r9, [r0], #8
 8006e52:	ee76 6ae3 	vsub.f32	s13, s13, s7
 8006e56:	edde 2a01 	vldr	s5, [lr, #4]
 8006e5a:	ee77 3ac4 	vsub.f32	s7, s15, s8
 8006e5e:	ee77 7a84 	vadd.f32	s15, s15, s8
 8006e62:	ed9c 4a01 	vldr	s8, [ip, #4]
 8006e66:	ee36 6a22 	vadd.f32	s12, s12, s5
 8006e6a:	9001      	str	r0, [sp, #4]
 8006e6c:	ee37 7a45 	vsub.f32	s14, s14, s10
 8006e70:	9804      	ldr	r0, [sp, #16]
 8006e72:	ee75 6a26 	vadd.f32	s13, s10, s13
 8006e76:	f1ae 0704 	sub.w	r7, lr, #4
 8006e7a:	ee36 6a04 	vadd.f32	s12, s12, s8
 8006e7e:	ee33 4a45 	vsub.f32	s8, s6, s10
 8006e82:	ee75 5ae4 	vsub.f32	s11, s11, s9
 8006e86:	ee33 5aa4 	vadd.f32	s10, s7, s9
 8006e8a:	ed80 6a01 	vstr	s12, [r0, #4]
 8006e8e:	ee14 9a10 	vmov	r9, s8
 8006e92:	ee77 7ae4 	vsub.f32	s15, s15, s9
 8006e96:	f848 9b08 	str.w	r9, [r8], #8
 8006e9a:	ed8e 5a01 	vstr	s10, [lr, #4]
 8006e9e:	ee15 ea90 	vmov	lr, s11
 8006ea2:	f844 eb08 	str.w	lr, [r4], #8
 8006ea6:	ee16 ea90 	vmov	lr, s13
 8006eaa:	9408      	str	r4, [sp, #32]
 8006eac:	462c      	mov	r4, r5
 8006eae:	ed85 7a01 	vstr	s14, [r5, #4]
 8006eb2:	9d03      	ldr	r5, [sp, #12]
 8006eb4:	f84c eb08 	str.w	lr, [ip], #8
 8006eb8:	edc5 7a01 	vstr	s15, [r5, #4]
 8006ebc:	0855      	lsrs	r5, r2, #1
 8006ebe:	9509      	str	r5, [sp, #36]	@ 0x24
 8006ec0:	f000 8130 	beq.w	8007124 <arm_cfft_radix8by4_f32+0x36c>
 8006ec4:	9804      	ldr	r0, [sp, #16]
 8006ec6:	3b08      	subs	r3, #8
 8006ec8:	46ab      	mov	fp, r5
 8006eca:	f1a4 020c 	sub.w	r2, r4, #12
 8006ece:	f100 0510 	add.w	r5, r0, #16
 8006ed2:	f101 0920 	add.w	r9, r1, #32
 8006ed6:	f101 0e30 	add.w	lr, r1, #48	@ 0x30
 8006eda:	f8dd a014 	ldr.w	sl, [sp, #20]
 8006ede:	4433      	add	r3, r6
 8006ee0:	3410      	adds	r4, #16
 8006ee2:	4660      	mov	r0, ip
 8006ee4:	4641      	mov	r1, r8
 8006ee6:	f8cd c034 	str.w	ip, [sp, #52]	@ 0x34
 8006eea:	ed54 6a02 	vldr	s13, [r4, #-8]
 8006eee:	f1bb 0b01 	subs.w	fp, fp, #1
 8006ef2:	ed55 5a02 	vldr	s11, [r5, #-8]
 8006ef6:	f10a 0a08 	add.w	sl, sl, #8
 8006efa:	edd1 7a00 	vldr	s15, [r1]
 8006efe:	f105 0508 	add.w	r5, r5, #8
 8006f02:	ee75 3aa6 	vadd.f32	s7, s11, s13
 8006f06:	edd0 2a00 	vldr	s5, [r0]
 8006f0a:	ed14 7a01 	vldr	s14, [r4, #-4]
 8006f0e:	ee75 5ae6 	vsub.f32	s11, s11, s13
 8006f12:	ed55 6a03 	vldr	s13, [r5, #-12]
 8006f16:	f1a2 0208 	sub.w	r2, r2, #8
 8006f1a:	ee73 4aa7 	vadd.f32	s9, s7, s15
 8006f1e:	ed90 2a01 	vldr	s4, [r0, #4]
 8006f22:	ee36 5a87 	vadd.f32	s10, s13, s14
 8006f26:	ed91 6a01 	vldr	s12, [r1, #4]
 8006f2a:	ee36 7ac7 	vsub.f32	s14, s13, s14
 8006f2e:	f109 0910 	add.w	r9, r9, #16
 8006f32:	ee72 6aa4 	vadd.f32	s13, s5, s9
 8006f36:	f104 0408 	add.w	r4, r4, #8
 8006f3a:	ee73 3ae7 	vsub.f32	s7, s7, s15
 8006f3e:	f10e 0e18 	add.w	lr, lr, #24
 8006f42:	ee37 3a67 	vsub.f32	s6, s14, s15
 8006f46:	f1a3 0308 	sub.w	r3, r3, #8
 8006f4a:	ed45 6a04 	vstr	s13, [r5, #-16]
 8006f4e:	ee37 7a27 	vadd.f32	s14, s14, s15
 8006f52:	edd1 6a01 	vldr	s13, [r1, #4]
 8006f56:	ee76 1a25 	vadd.f32	s3, s12, s11
 8006f5a:	edd0 4a01 	vldr	s9, [r0, #4]
 8006f5e:	ee33 3a22 	vadd.f32	s6, s6, s5
 8006f62:	ee75 6a26 	vadd.f32	s13, s10, s13
 8006f66:	ee35 5a46 	vsub.f32	s10, s10, s12
 8006f6a:	ee35 6ac6 	vsub.f32	s12, s11, s12
 8006f6e:	ee76 6aa4 	vadd.f32	s13, s13, s9
 8006f72:	ee71 1ac2 	vsub.f32	s3, s3, s4
 8006f76:	ee35 5a42 	vsub.f32	s10, s10, s4
 8006f7a:	ed45 6a03 	vstr	s13, [r5, #-12]
 8006f7e:	ee32 2a06 	vadd.f32	s4, s4, s12
 8006f82:	edd6 7a00 	vldr	s15, [r6]
 8006f86:	ee73 3ae2 	vsub.f32	s7, s7, s5
 8006f8a:	ed97 1a00 	vldr	s2, [r7]
 8006f8e:	ee77 2a62 	vsub.f32	s5, s14, s5
 8006f92:	ed92 8a04 	vldr	s16, [r2, #16]
 8006f96:	ee71 8a27 	vadd.f32	s17, s2, s15
 8006f9a:	ed93 aa04 	vldr	s20, [r3, #16]
 8006f9e:	ed16 7a01 	vldr	s14, [r6, #-4]
 8006fa2:	ee71 7a67 	vsub.f32	s15, s2, s15
 8006fa6:	ed57 0a01 	vldr	s1, [r7, #-4]
 8006faa:	ee38 1a4a 	vsub.f32	s2, s16, s20
 8006fae:	ee38 6a88 	vadd.f32	s12, s17, s16
 8006fb2:	edd3 9a03 	vldr	s19, [r3, #12]
 8006fb6:	ee30 0a87 	vadd.f32	s0, s1, s14
 8006fba:	ed92 9a03 	vldr	s18, [r2, #12]
 8006fbe:	ee78 5ac8 	vsub.f32	s11, s17, s16
 8006fc2:	ee3a 6a06 	vadd.f32	s12, s20, s12
 8006fc6:	ee30 7ac7 	vsub.f32	s14, s1, s14
 8006fca:	ee37 4ac9 	vsub.f32	s8, s15, s18
 8006fce:	ee16 ca10 	vmov	ip, s12
 8006fd2:	ee30 6a49 	vsub.f32	s12, s0, s18
 8006fd6:	ee71 4a07 	vadd.f32	s9, s2, s14
 8006fda:	f847 c908 	str.w	ip, [r7], #-8
 8006fde:	ee34 4a29 	vadd.f32	s8, s8, s19
 8006fe2:	edd2 8a03 	vldr	s17, [r2, #12]
 8006fe6:	ee39 9ac9 	vsub.f32	s18, s19, s18
 8006fea:	ed93 8a03 	vldr	s16, [r3, #12]
 8006fee:	ee71 0a47 	vsub.f32	s1, s2, s14
 8006ff2:	ee30 0a28 	vadd.f32	s0, s0, s17
 8006ff6:	ee39 1a67 	vsub.f32	s2, s18, s15
 8006ffa:	ee36 6a69 	vsub.f32	s12, s12, s19
 8006ffe:	ee30 0a08 	vadd.f32	s0, s0, s16
 8007002:	ee75 5aca 	vsub.f32	s11, s11, s20
 8007006:	ed87 0a01 	vstr	s0, [r7, #4]
 800700a:	ed1a 0a04 	vldr	s0, [sl, #-16]
 800700e:	ed5a 6a03 	vldr	s13, [sl, #-12]
 8007012:	ee21 8a80 	vmul.f32	s16, s3, s0
 8007016:	ee23 7a26 	vmul.f32	s14, s6, s13
 800701a:	ee64 7a26 	vmul.f32	s15, s8, s13
 800701e:	ee61 1aa6 	vmul.f32	s3, s3, s13
 8007022:	ee24 4a00 	vmul.f32	s8, s8, s0
 8007026:	ee23 3a00 	vmul.f32	s6, s6, s0
 800702a:	ee64 6aa6 	vmul.f32	s13, s9, s13
 800702e:	ee24 0a80 	vmul.f32	s0, s9, s0
 8007032:	ee38 7a07 	vadd.f32	s14, s16, s14
 8007036:	ee76 6a84 	vadd.f32	s13, s13, s8
 800703a:	ee37 0ac0 	vsub.f32	s0, s15, s0
 800703e:	ee33 3a61 	vsub.f32	s6, s6, s3
 8007042:	ee17 ca10 	vmov	ip, s14
 8007046:	f841 cb08 	str.w	ip, [r1], #8
 800704a:	ed01 3a01 	vstr	s6, [r1, #-4]
 800704e:	ed82 0a04 	vstr	s0, [r2, #16]
 8007052:	edc2 6a03 	vstr	s13, [r2, #12]
 8007056:	ed59 6a08 	vldr	s13, [r9, #-32]	@ 0xffffffe0
 800705a:	ed59 7a07 	vldr	s15, [r9, #-28]	@ 0xffffffe4
 800705e:	ee25 7ae6 	vnmul.f32	s14, s11, s13
 8007062:	ee23 4aa6 	vmul.f32	s8, s7, s13
 8007066:	ee65 4a27 	vmul.f32	s9, s10, s15
 800706a:	ee65 5aa7 	vmul.f32	s11, s11, s15
 800706e:	ee63 3aa7 	vmul.f32	s7, s7, s15
 8007072:	ee66 7a27 	vmul.f32	s15, s12, s15
 8007076:	ee25 5a26 	vmul.f32	s10, s10, s13
 800707a:	ee66 6a26 	vmul.f32	s13, s12, s13
 800707e:	ee77 7a67 	vsub.f32	s15, s14, s15
 8007082:	ee34 6a24 	vadd.f32	s12, s8, s9
 8007086:	ee75 6ae6 	vsub.f32	s13, s11, s13
 800708a:	ee35 5a63 	vsub.f32	s10, s10, s7
 800708e:	ee17 ca90 	vmov	ip, s15
 8007092:	ed04 6a04 	vstr	s12, [r4, #-16]
 8007096:	ed04 5a03 	vstr	s10, [r4, #-12]
 800709a:	f846 c908 	str.w	ip, [r6], #-8
 800709e:	edc6 6a01 	vstr	s13, [r6, #4]
 80070a2:	ed5e 7a0c 	vldr	s15, [lr, #-48]	@ 0xffffffd0
 80070a6:	ed1e 7a0b 	vldr	s14, [lr, #-44]	@ 0xffffffd4
 80070aa:	ee62 5a27 	vmul.f32	s11, s4, s15
 80070ae:	ee22 6a87 	vmul.f32	s12, s5, s14
 80070b2:	ee22 2a07 	vmul.f32	s4, s4, s14
 80070b6:	ee62 2aa7 	vmul.f32	s5, s5, s15
 80070ba:	ee61 6a07 	vmul.f32	s13, s2, s14
 80070be:	ee20 7a87 	vmul.f32	s14, s1, s14
 80070c2:	ee60 0aa7 	vmul.f32	s1, s1, s15
 80070c6:	ee61 7a27 	vmul.f32	s15, s2, s15
 80070ca:	ee35 6a86 	vadd.f32	s12, s11, s12
 80070ce:	ee72 2ac2 	vsub.f32	s5, s5, s4
 80070d2:	ee76 0ae0 	vsub.f32	s1, s13, s1
 80070d6:	ee77 7a27 	vadd.f32	s15, s14, s15
 80070da:	ee16 ca10 	vmov	ip, s12
 80070de:	f840 cb08 	str.w	ip, [r0], #8
 80070e2:	ed40 2a01 	vstr	s5, [r0, #-4]
 80070e6:	edc3 0a04 	vstr	s1, [r3, #16]
 80070ea:	edc3 7a03 	vstr	s15, [r3, #12]
 80070ee:	f47f aefc 	bne.w	8006eea <arm_cfft_radix8by4_f32+0x132>
 80070f2:	9909      	ldr	r1, [sp, #36]	@ 0x24
 80070f4:	9805      	ldr	r0, [sp, #20]
 80070f6:	00cb      	lsls	r3, r1, #3
 80070f8:	f8dd c034 	ldr.w	ip, [sp, #52]	@ 0x34
 80070fc:	eb01 0241 	add.w	r2, r1, r1, lsl #1
 8007100:	eb00 1101 	add.w	r1, r0, r1, lsl #4
 8007104:	4498      	add	r8, r3
 8007106:	449c      	add	ip, r3
 8007108:	9105      	str	r1, [sp, #20]
 800710a:	9901      	ldr	r1, [sp, #4]
 800710c:	4419      	add	r1, r3
 800710e:	9101      	str	r1, [sp, #4]
 8007110:	9906      	ldr	r1, [sp, #24]
 8007112:	4419      	add	r1, r3
 8007114:	9106      	str	r1, [sp, #24]
 8007116:	9908      	ldr	r1, [sp, #32]
 8007118:	4419      	add	r1, r3
 800711a:	9b07      	ldr	r3, [sp, #28]
 800711c:	eb03 03c2 	add.w	r3, r3, r2, lsl #3
 8007120:	9108      	str	r1, [sp, #32]
 8007122:	9307      	str	r3, [sp, #28]
 8007124:	9a01      	ldr	r2, [sp, #4]
 8007126:	2304      	movs	r3, #4
 8007128:	9e08      	ldr	r6, [sp, #32]
 800712a:	edd2 6a00 	vldr	s13, [r2]
 800712e:	ed96 4a00 	vldr	s8, [r6]
 8007132:	edd8 7a00 	vldr	s15, [r8]
 8007136:	ee36 6a84 	vadd.f32	s12, s13, s8
 800713a:	eddc 2a00 	vldr	s5, [ip]
 800713e:	ed96 7a01 	vldr	s14, [r6, #4]
 8007142:	ee36 4ac4 	vsub.f32	s8, s13, s8
 8007146:	edd2 6a01 	vldr	s13, [r2, #4]
 800714a:	ee76 4a27 	vadd.f32	s9, s12, s15
 800714e:	ed98 2a01 	vldr	s4, [r8, #4]
 8007152:	ee76 5a87 	vadd.f32	s11, s13, s14
 8007156:	ed9c 5a01 	vldr	s10, [ip, #4]
 800715a:	ee36 7ac7 	vsub.f32	s14, s13, s14
 800715e:	9d05      	ldr	r5, [sp, #20]
 8007160:	ee72 6aa4 	vadd.f32	s13, s5, s9
 8007164:	f8bd 402c 	ldrh.w	r4, [sp, #44]	@ 0x2c
 8007168:	ee72 3a04 	vadd.f32	s7, s4, s8
 800716c:	9804      	ldr	r0, [sp, #16]
 800716e:	ee77 4a67 	vsub.f32	s9, s14, s15
 8007172:	4621      	mov	r1, r4
 8007174:	edc2 6a00 	vstr	s13, [r2]
 8007178:	ee76 6a67 	vsub.f32	s13, s12, s15
 800717c:	ed98 3a01 	vldr	s6, [r8, #4]
 8007180:	ee35 6ac2 	vsub.f32	s12, s11, s4
 8007184:	eddc 1a01 	vldr	s3, [ip, #4]
 8007188:	ee74 4aa2 	vadd.f32	s9, s9, s5
 800718c:	ee35 3a83 	vadd.f32	s6, s11, s6
 8007190:	ee34 4a42 	vsub.f32	s8, s8, s4
 8007194:	ee73 3ac5 	vsub.f32	s7, s7, s10
 8007198:	ee73 5a21 	vadd.f32	s11, s6, s3
 800719c:	ee37 7a27 	vadd.f32	s14, s14, s15
 80071a0:	ee36 6a45 	vsub.f32	s12, s12, s10
 80071a4:	edc2 5a01 	vstr	s11, [r2, #4]
 80071a8:	ee35 5a04 	vadd.f32	s10, s10, s8
 80071ac:	9a06      	ldr	r2, [sp, #24]
 80071ae:	ee76 6ae2 	vsub.f32	s13, s13, s5
 80071b2:	edd2 7a00 	vldr	s15, [r2]
 80071b6:	edd2 5a01 	vldr	s11, [r2, #4]
 80071ba:	ee23 4aa7 	vmul.f32	s8, s7, s15
 80071be:	ee63 3aa5 	vmul.f32	s7, s7, s11
 80071c2:	ee64 5aa5 	vmul.f32	s11, s9, s11
 80071c6:	ee64 4aa7 	vmul.f32	s9, s9, s15
 80071ca:	ee77 7a62 	vsub.f32	s15, s14, s5
 80071ce:	ee74 5a25 	vadd.f32	s11, s8, s11
 80071d2:	ee74 4ae3 	vsub.f32	s9, s9, s7
 80071d6:	edc8 5a00 	vstr	s11, [r8]
 80071da:	edc8 4a01 	vstr	s9, [r8, #4]
 80071de:	edd5 4a01 	vldr	s9, [r5, #4]
 80071e2:	ed95 7a00 	vldr	s14, [r5]
 80071e6:	9d07      	ldr	r5, [sp, #28]
 80071e8:	ee66 5a87 	vmul.f32	s11, s13, s14
 80071ec:	ee66 6aa4 	vmul.f32	s13, s13, s9
 80071f0:	ee26 7a07 	vmul.f32	s14, s12, s14
 80071f4:	ee26 6a24 	vmul.f32	s12, s12, s9
 80071f8:	ee77 6a66 	vsub.f32	s13, s14, s13
 80071fc:	ee35 6a86 	vadd.f32	s12, s11, s12
 8007200:	edc6 6a01 	vstr	s13, [r6, #4]
 8007204:	ed86 6a00 	vstr	s12, [r6]
 8007208:	ed95 6a01 	vldr	s12, [r5, #4]
 800720c:	ed95 7a00 	vldr	s14, [r5]
 8007210:	9e0c      	ldr	r6, [sp, #48]	@ 0x30
 8007212:	ee65 6a07 	vmul.f32	s13, s10, s14
 8007216:	ee27 7a87 	vmul.f32	s14, s15, s14
 800721a:	ee25 5a06 	vmul.f32	s10, s10, s12
 800721e:	ee67 7a86 	vmul.f32	s15, s15, s12
 8007222:	ee37 5a45 	vsub.f32	s10, s14, s10
 8007226:	ee76 7aa7 	vadd.f32	s15, s13, s15
 800722a:	ed8c 5a01 	vstr	s10, [ip, #4]
 800722e:	edcc 7a00 	vstr	s15, [ip]
 8007232:	6872      	ldr	r2, [r6, #4]
 8007234:	f000 fa74 	bl	8007720 <arm_radix8_butterfly_f32>
 8007238:	9802      	ldr	r0, [sp, #8]
 800723a:	4621      	mov	r1, r4
 800723c:	6872      	ldr	r2, [r6, #4]
 800723e:	2304      	movs	r3, #4
 8007240:	f000 fa6e 	bl	8007720 <arm_radix8_butterfly_f32>
 8007244:	980a      	ldr	r0, [sp, #40]	@ 0x28
 8007246:	4621      	mov	r1, r4
 8007248:	6872      	ldr	r2, [r6, #4]
 800724a:	2304      	movs	r3, #4
 800724c:	f000 fa68 	bl	8007720 <arm_radix8_butterfly_f32>
 8007250:	9803      	ldr	r0, [sp, #12]
 8007252:	4621      	mov	r1, r4
 8007254:	6872      	ldr	r2, [r6, #4]
 8007256:	2304      	movs	r3, #4
 8007258:	b00f      	add	sp, #60	@ 0x3c
 800725a:	ecbd 8b06 	vpop	{d8-d10}
 800725e:	e8bd 4ff0 	ldmia.w	sp!, {r4, r5, r6, r7, r8, r9, sl, fp, lr}
 8007262:	f000 ba5d 	b.w	8007720 <arm_radix8_butterfly_f32>
 8007266:	bf00      	nop

08007268 <arm_cfft_f32>:
 8007268:	2a01      	cmp	r2, #1
 800726a:	e92d 41f0 	stmdb	sp!, {r4, r5, r6, r7, r8, lr}
 800726e:	4606      	mov	r6, r0
 8007270:	4617      	mov	r7, r2
 8007272:	460c      	mov	r4, r1
 8007274:	4698      	mov	r8, r3
 8007276:	8805      	ldrh	r5, [r0, #0]
 8007278:	d053      	beq.n	8007322 <arm_cfft_f32+0xba>
 800727a:	f5b5 7f80 	cmp.w	r5, #256	@ 0x100
 800727e:	d04b      	beq.n	8007318 <arm_cfft_f32+0xb0>
 8007280:	d916      	bls.n	80072b0 <arm_cfft_f32+0x48>
 8007282:	f5b5 6f80 	cmp.w	r5, #1024	@ 0x400
 8007286:	d01a      	beq.n	80072be <arm_cfft_f32+0x56>
 8007288:	d95a      	bls.n	8007340 <arm_cfft_f32+0xd8>
 800728a:	f5b5 6f00 	cmp.w	r5, #2048	@ 0x800
 800728e:	d043      	beq.n	8007318 <arm_cfft_f32+0xb0>
 8007290:	f5b5 5f80 	cmp.w	r5, #4096	@ 0x1000
 8007294:	d105      	bne.n	80072a2 <arm_cfft_f32+0x3a>
 8007296:	4620      	mov	r0, r4
 8007298:	4629      	mov	r1, r5
 800729a:	6872      	ldr	r2, [r6, #4]
 800729c:	2301      	movs	r3, #1
 800729e:	f000 fa3f 	bl	8007720 <arm_radix8_butterfly_f32>
 80072a2:	f1b8 0f00 	cmp.w	r8, #0
 80072a6:	d111      	bne.n	80072cc <arm_cfft_f32+0x64>
 80072a8:	2f01      	cmp	r7, #1
 80072aa:	d016      	beq.n	80072da <arm_cfft_f32+0x72>
 80072ac:	e8bd 81f0 	ldmia.w	sp!, {r4, r5, r6, r7, r8, pc}
 80072b0:	2d20      	cmp	r5, #32
 80072b2:	d031      	beq.n	8007318 <arm_cfft_f32+0xb0>
 80072b4:	d948      	bls.n	8007348 <arm_cfft_f32+0xe0>
 80072b6:	2d40      	cmp	r5, #64	@ 0x40
 80072b8:	d0ed      	beq.n	8007296 <arm_cfft_f32+0x2e>
 80072ba:	2d80      	cmp	r5, #128	@ 0x80
 80072bc:	d1f1      	bne.n	80072a2 <arm_cfft_f32+0x3a>
 80072be:	4630      	mov	r0, r6
 80072c0:	4621      	mov	r1, r4
 80072c2:	f7ff fca7 	bl	8006c14 <arm_cfft_radix8by2_f32>
 80072c6:	f1b8 0f00 	cmp.w	r8, #0
 80072ca:	d0ed      	beq.n	80072a8 <arm_cfft_f32+0x40>
 80072cc:	4620      	mov	r0, r4
 80072ce:	89b1      	ldrh	r1, [r6, #12]
 80072d0:	68b2      	ldr	r2, [r6, #8]
 80072d2:	f7f9 f801 	bl	80002d8 <arm_bitreversal_32>
 80072d6:	2f01      	cmp	r7, #1
 80072d8:	d1e8      	bne.n	80072ac <arm_cfft_f32+0x44>
 80072da:	ee07 5a90 	vmov	s15, r5
 80072de:	eef8 6a67 	vcvt.f32.u32	s13, s15
 80072e2:	eef7 7a00 	vmov.f32	s15, #112	@ 0x3f800000  1.0
 80072e6:	eec7 6aa6 	vdiv.f32	s13, s15, s13
 80072ea:	2d00      	cmp	r5, #0
 80072ec:	d0de      	beq.n	80072ac <arm_cfft_f32+0x44>
 80072ee:	f104 0108 	add.w	r1, r4, #8
 80072f2:	2300      	movs	r3, #0
 80072f4:	ed11 7a02 	vldr	s14, [r1, #-8]
 80072f8:	3301      	adds	r3, #1
 80072fa:	ed51 7a01 	vldr	s15, [r1, #-4]
 80072fe:	3108      	adds	r1, #8
 8007300:	429d      	cmp	r5, r3
 8007302:	ee27 7a26 	vmul.f32	s14, s14, s13
 8007306:	ee67 7ae6 	vnmul.f32	s15, s15, s13
 800730a:	ed01 7a04 	vstr	s14, [r1, #-16]
 800730e:	ed41 7a03 	vstr	s15, [r1, #-12]
 8007312:	d1ef      	bne.n	80072f4 <arm_cfft_f32+0x8c>
 8007314:	e8bd 81f0 	ldmia.w	sp!, {r4, r5, r6, r7, r8, pc}
 8007318:	4630      	mov	r0, r6
 800731a:	4621      	mov	r1, r4
 800731c:	f7ff fd4c 	bl	8006db8 <arm_cfft_radix8by4_f32>
 8007320:	e7bf      	b.n	80072a2 <arm_cfft_f32+0x3a>
 8007322:	b1a5      	cbz	r5, 800734e <arm_cfft_f32+0xe6>
 8007324:	f101 030c 	add.w	r3, r1, #12
 8007328:	2200      	movs	r2, #0
 800732a:	ed53 7a02 	vldr	s15, [r3, #-8]
 800732e:	3201      	adds	r2, #1
 8007330:	3308      	adds	r3, #8
 8007332:	eef1 7a67 	vneg.f32	s15, s15
 8007336:	4295      	cmp	r5, r2
 8007338:	ed43 7a04 	vstr	s15, [r3, #-16]
 800733c:	d1f5      	bne.n	800732a <arm_cfft_f32+0xc2>
 800733e:	e79c      	b.n	800727a <arm_cfft_f32+0x12>
 8007340:	f5b5 7f00 	cmp.w	r5, #512	@ 0x200
 8007344:	d0a7      	beq.n	8007296 <arm_cfft_f32+0x2e>
 8007346:	e7ac      	b.n	80072a2 <arm_cfft_f32+0x3a>
 8007348:	2d10      	cmp	r5, #16
 800734a:	d0b8      	beq.n	80072be <arm_cfft_f32+0x56>
 800734c:	e7a9      	b.n	80072a2 <arm_cfft_f32+0x3a>
 800734e:	f5b5 7f80 	cmp.w	r5, #256	@ 0x100
 8007352:	d896      	bhi.n	8007282 <arm_cfft_f32+0x1a>
 8007354:	e7ac      	b.n	80072b0 <arm_cfft_f32+0x48>
 8007356:	bf00      	nop

08007358 <arm_fir_init_f32>:
 8007358:	b5f8      	push	{r3, r4, r5, r6, r7, lr}
 800735a:	9e06      	ldr	r6, [sp, #24]
 800735c:	f06f 4440 	mvn.w	r4, #3221225472	@ 0xc0000000
 8007360:	460f      	mov	r7, r1
 8007362:	6082      	str	r2, [r0, #8]
 8007364:	4434      	add	r4, r6
 8007366:	4605      	mov	r5, r0
 8007368:	461e      	mov	r6, r3
 800736a:	8007      	strh	r7, [r0, #0]
 800736c:	19e2      	adds	r2, r4, r7
 800736e:	2100      	movs	r1, #0
 8007370:	4618      	mov	r0, r3
 8007372:	0092      	lsls	r2, r2, #2
 8007374:	f000 fcb4 	bl	8007ce0 <memset>
 8007378:	606e      	str	r6, [r5, #4]
 800737a:	bdf8      	pop	{r3, r4, r5, r6, r7, pc}

0800737c <arm_biquad_cascade_df1_init_f32>:
 800737c:	b538      	push	{r3, r4, r5, lr}
 800737e:	4604      	mov	r4, r0
 8007380:	4608      	mov	r0, r1
 8007382:	461d      	mov	r5, r3
 8007384:	2100      	movs	r1, #0
 8007386:	60a2      	str	r2, [r4, #8]
 8007388:	0102      	lsls	r2, r0, #4
 800738a:	6020      	str	r0, [r4, #0]
 800738c:	4618      	mov	r0, r3
 800738e:	f000 fca7 	bl	8007ce0 <memset>
 8007392:	6065      	str	r5, [r4, #4]
 8007394:	bd38      	pop	{r3, r4, r5, pc}
 8007396:	bf00      	nop

08007398 <arm_biquad_cascade_df1_f32>:
 8007398:	ea4f 0c93 	mov.w	ip, r3, lsr #2
 800739c:	e92d 43f0 	stmdb	sp!, {r4, r5, r6, r7, r8, r9, lr}
 80073a0:	4696      	mov	lr, r2
 80073a2:	6886      	ldr	r6, [r0, #8]
 80073a4:	6845      	ldr	r5, [r0, #4]
 80073a6:	ea4f 180c 	mov.w	r8, ip, lsl #4
 80073aa:	f003 0203 	and.w	r2, r3, #3
 80073ae:	3614      	adds	r6, #20
 80073b0:	3510      	adds	r5, #16
 80073b2:	6807      	ldr	r7, [r0, #0]
 80073b4:	eb0e 0908 	add.w	r9, lr, r8
 80073b8:	ed56 3a05 	vldr	s7, [r6, #-20]	@ 0xffffffec
 80073bc:	ed16 3a04 	vldr	s6, [r6, #-16]
 80073c0:	ed56 2a03 	vldr	s5, [r6, #-12]
 80073c4:	ed16 2a02 	vldr	s4, [r6, #-8]
 80073c8:	ed56 1a01 	vldr	s3, [r6, #-4]
 80073cc:	ed15 1a04 	vldr	s2, [r5, #-16]
 80073d0:	ed55 0a03 	vldr	s1, [r5, #-12]
 80073d4:	ed55 7a02 	vldr	s15, [r5, #-8]
 80073d8:	ed15 6a01 	vldr	s12, [r5, #-4]
 80073dc:	f1bc 0f00 	cmp.w	ip, #0
 80073e0:	f000 80a3 	beq.w	800752a <arm_biquad_cascade_df1_f32+0x192>
 80073e4:	f101 0010 	add.w	r0, r1, #16
 80073e8:	f10e 0310 	add.w	r3, lr, #16
 80073ec:	4664      	mov	r4, ip
 80073ee:	ed10 4a04 	vldr	s8, [r0, #-16]
 80073f2:	ee23 7a01 	vmul.f32	s14, s6, s2
 80073f6:	ee62 0aa0 	vmul.f32	s1, s5, s1
 80073fa:	3c01      	subs	r4, #1
 80073fc:	ee23 5a84 	vmul.f32	s10, s7, s8
 8007400:	f100 0010 	add.w	r0, r0, #16
 8007404:	ee22 0a27 	vmul.f32	s0, s4, s15
 8007408:	f103 0310 	add.w	r3, r3, #16
 800740c:	ee21 6a86 	vmul.f32	s12, s3, s12
 8007410:	ee75 4a07 	vadd.f32	s9, s10, s14
 8007414:	ee61 6aa7 	vmul.f32	s13, s3, s15
 8007418:	ee63 5a04 	vmul.f32	s11, s6, s8
 800741c:	ee34 7aa0 	vadd.f32	s14, s9, s1
 8007420:	ee22 1a81 	vmul.f32	s2, s5, s2
 8007424:	ee22 4a84 	vmul.f32	s8, s5, s8
 8007428:	ee37 7a00 	vadd.f32	s14, s14, s0
 800742c:	ee37 6a06 	vadd.f32	s12, s14, s12
 8007430:	ed03 6a08 	vstr	s12, [r3, #-32]	@ 0xffffffe0
 8007434:	ee22 7a06 	vmul.f32	s14, s4, s12
 8007438:	ed50 7a07 	vldr	s15, [r0, #-28]	@ 0xffffffe4
 800743c:	ee21 6a86 	vmul.f32	s12, s3, s12
 8007440:	ee23 5aa7 	vmul.f32	s10, s7, s15
 8007444:	ee23 0a27 	vmul.f32	s0, s6, s15
 8007448:	ee62 4aa7 	vmul.f32	s9, s5, s15
 800744c:	ee35 5a25 	vadd.f32	s10, s10, s11
 8007450:	ee75 5a01 	vadd.f32	s11, s10, s2
 8007454:	ee75 5a87 	vadd.f32	s11, s11, s14
 8007458:	ee75 6aa6 	vadd.f32	s13, s11, s13
 800745c:	ed43 6a07 	vstr	s13, [r3, #-28]	@ 0xffffffe4
 8007460:	ee62 7a26 	vmul.f32	s15, s4, s13
 8007464:	ed50 0a06 	vldr	s1, [r0, #-24]	@ 0xffffffe8
 8007468:	ee61 5aa6 	vmul.f32	s11, s3, s13
 800746c:	ee23 5aa0 	vmul.f32	s10, s7, s1
 8007470:	ee23 7a20 	vmul.f32	s14, s6, s1
 8007474:	ee35 5a00 	vadd.f32	s10, s10, s0
 8007478:	ee75 6a04 	vadd.f32	s13, s10, s8
 800747c:	ee76 6aa7 	vadd.f32	s13, s13, s15
 8007480:	ee36 6a86 	vadd.f32	s12, s13, s12
 8007484:	ed03 6a06 	vstr	s12, [r3, #-24]	@ 0xffffffe8
 8007488:	ee62 7a06 	vmul.f32	s15, s4, s12
 800748c:	ed10 1a05 	vldr	s2, [r0, #-20]	@ 0xffffffec
 8007490:	ee63 6a81 	vmul.f32	s13, s7, s2
 8007494:	ee36 7a87 	vadd.f32	s14, s13, s14
 8007498:	ee37 7a24 	vadd.f32	s14, s14, s9
 800749c:	ee77 7a27 	vadd.f32	s15, s14, s15
 80074a0:	ee77 7aa5 	vadd.f32	s15, s15, s11
 80074a4:	ed43 7a05 	vstr	s15, [r3, #-20]	@ 0xffffffec
 80074a8:	d1a1      	bne.n	80073ee <arm_biquad_cascade_df1_f32+0x56>
 80074aa:	4441      	add	r1, r8
 80074ac:	4648      	mov	r0, r9
 80074ae:	b39a      	cbz	r2, 8007518 <arm_biquad_cascade_df1_f32+0x180>
 80074b0:	4613      	mov	r3, r2
 80074b2:	e003      	b.n	80074bc <arm_biquad_cascade_df1_f32+0x124>
 80074b4:	eef0 7a45 	vmov.f32	s15, s10
 80074b8:	eeb0 1a47 	vmov.f32	s2, s14
 80074bc:	ecb1 7a01 	vldmia	r1!, {s14}
 80074c0:	ee63 4a01 	vmul.f32	s9, s6, s2
 80074c4:	ee62 5aa0 	vmul.f32	s11, s5, s1
 80074c8:	3b01      	subs	r3, #1
 80074ca:	ee23 4a87 	vmul.f32	s8, s7, s14
 80074ce:	ee22 5a27 	vmul.f32	s10, s4, s15
 80074d2:	ee61 6a86 	vmul.f32	s13, s3, s12
 80074d6:	ee74 4a24 	vadd.f32	s9, s8, s9
 80074da:	eef0 0a41 	vmov.f32	s1, s2
 80074de:	eeb0 6a67 	vmov.f32	s12, s15
 80074e2:	ee74 4aa5 	vadd.f32	s9, s9, s11
 80074e6:	ee34 5a85 	vadd.f32	s10, s9, s10
 80074ea:	ee35 5a26 	vadd.f32	s10, s10, s13
 80074ee:	eca0 5a01 	vstmia	r0!, {s10}
 80074f2:	d1df      	bne.n	80074b4 <arm_biquad_cascade_df1_f32+0x11c>
 80074f4:	3f01      	subs	r7, #1
 80074f6:	ed05 7a04 	vstr	s14, [r5, #-16]
 80074fa:	ed05 1a03 	vstr	s2, [r5, #-12]
 80074fe:	f106 0614 	add.w	r6, r6, #20
 8007502:	ed05 5a02 	vstr	s10, [r5, #-8]
 8007506:	4671      	mov	r1, lr
 8007508:	ed45 7a01 	vstr	s15, [r5, #-4]
 800750c:	f105 0510 	add.w	r5, r5, #16
 8007510:	f47f af52 	bne.w	80073b8 <arm_biquad_cascade_df1_f32+0x20>
 8007514:	e8bd 83f0 	ldmia.w	sp!, {r4, r5, r6, r7, r8, r9, pc}
 8007518:	eeb0 5a67 	vmov.f32	s10, s15
 800751c:	eeb0 7a41 	vmov.f32	s14, s2
 8007520:	eef0 7a46 	vmov.f32	s15, s12
 8007524:	eeb0 1a60 	vmov.f32	s2, s1
 8007528:	e7e4      	b.n	80074f4 <arm_biquad_cascade_df1_f32+0x15c>
 800752a:	4670      	mov	r0, lr
 800752c:	e7bf      	b.n	80074ae <arm_biquad_cascade_df1_f32+0x116>
 800752e:	bf00      	nop

08007530 <arm_scale_f32>:
 8007530:	b470      	push	{r4, r5, r6}
 8007532:	0896      	lsrs	r6, r2, #2
 8007534:	d025      	beq.n	8007582 <arm_scale_f32+0x52>
 8007536:	f100 0410 	add.w	r4, r0, #16
 800753a:	f101 0310 	add.w	r3, r1, #16
 800753e:	4635      	mov	r5, r6
 8007540:	ed14 6a04 	vldr	s12, [r4, #-16]
 8007544:	3d01      	subs	r5, #1
 8007546:	ed54 6a03 	vldr	s13, [r4, #-12]
 800754a:	f103 0310 	add.w	r3, r3, #16
 800754e:	ed14 7a02 	vldr	s14, [r4, #-8]
 8007552:	ee26 6a00 	vmul.f32	s12, s12, s0
 8007556:	ed54 7a01 	vldr	s15, [r4, #-4]
 800755a:	ee66 6a80 	vmul.f32	s13, s13, s0
 800755e:	ee27 7a00 	vmul.f32	s14, s14, s0
 8007562:	f104 0410 	add.w	r4, r4, #16
 8007566:	ee67 7a80 	vmul.f32	s15, s15, s0
 800756a:	ed03 6a08 	vstr	s12, [r3, #-32]	@ 0xffffffe0
 800756e:	ed43 6a07 	vstr	s13, [r3, #-28]	@ 0xffffffe4
 8007572:	ed03 7a06 	vstr	s14, [r3, #-24]	@ 0xffffffe8
 8007576:	ed43 7a05 	vstr	s15, [r3, #-20]	@ 0xffffffec
 800757a:	d1e1      	bne.n	8007540 <arm_scale_f32+0x10>
 800757c:	0136      	lsls	r6, r6, #4
 800757e:	4430      	add	r0, r6
 8007580:	4431      	add	r1, r6
 8007582:	f012 0203 	ands.w	r2, r2, #3
 8007586:	d007      	beq.n	8007598 <arm_scale_f32+0x68>
 8007588:	ecf0 7a01 	vldmia	r0!, {s15}
 800758c:	3a01      	subs	r2, #1
 800758e:	ee67 7a80 	vmul.f32	s15, s15, s0
 8007592:	ece1 7a01 	vstmia	r1!, {s15}
 8007596:	d1f7      	bne.n	8007588 <arm_scale_f32+0x58>
 8007598:	bc70      	pop	{r4, r5, r6}
 800759a:	4770      	bx	lr

0800759c <arm_offset_f32>:
 800759c:	b470      	push	{r4, r5, r6}
 800759e:	0896      	lsrs	r6, r2, #2
 80075a0:	d025      	beq.n	80075ee <arm_offset_f32+0x52>
 80075a2:	f100 0410 	add.w	r4, r0, #16
 80075a6:	f101 0310 	add.w	r3, r1, #16
 80075aa:	4635      	mov	r5, r6
 80075ac:	ed14 6a04 	vldr	s12, [r4, #-16]
 80075b0:	3d01      	subs	r5, #1
 80075b2:	ed54 6a03 	vldr	s13, [r4, #-12]
 80075b6:	f103 0310 	add.w	r3, r3, #16
 80075ba:	ed14 7a02 	vldr	s14, [r4, #-8]
 80075be:	ee36 6a00 	vadd.f32	s12, s12, s0
 80075c2:	ed54 7a01 	vldr	s15, [r4, #-4]
 80075c6:	ee76 6a80 	vadd.f32	s13, s13, s0
 80075ca:	ee37 7a00 	vadd.f32	s14, s14, s0
 80075ce:	f104 0410 	add.w	r4, r4, #16
 80075d2:	ee77 7a80 	vadd.f32	s15, s15, s0
 80075d6:	ed03 6a08 	vstr	s12, [r3, #-32]	@ 0xffffffe0
 80075da:	ed43 6a07 	vstr	s13, [r3, #-28]	@ 0xffffffe4
 80075de:	ed03 7a06 	vstr	s14, [r3, #-24]	@ 0xffffffe8
 80075e2:	ed43 7a05 	vstr	s15, [r3, #-20]	@ 0xffffffec
 80075e6:	d1e1      	bne.n	80075ac <arm_offset_f32+0x10>
 80075e8:	0136      	lsls	r6, r6, #4
 80075ea:	4430      	add	r0, r6
 80075ec:	4431      	add	r1, r6
 80075ee:	f012 0203 	ands.w	r2, r2, #3
 80075f2:	d007      	beq.n	8007604 <arm_offset_f32+0x68>
 80075f4:	ecf0 7a01 	vldmia	r0!, {s15}
 80075f8:	3a01      	subs	r2, #1
 80075fa:	ee77 7a80 	vadd.f32	s15, s15, s0
 80075fe:	ece1 7a01 	vstmia	r1!, {s15}
 8007602:	d1f7      	bne.n	80075f4 <arm_offset_f32+0x58>
 8007604:	bc70      	pop	{r4, r5, r6}
 8007606:	4770      	bx	lr

08007608 <arm_mult_f32>:
 8007608:	b5f0      	push	{r4, r5, r6, r7, lr}
 800760a:	ea5f 0e93 	movs.w	lr, r3, lsr #2
 800760e:	d033      	beq.n	8007678 <arm_mult_f32+0x70>
 8007610:	f100 0610 	add.w	r6, r0, #16
 8007614:	f101 0510 	add.w	r5, r1, #16
 8007618:	f102 0410 	add.w	r4, r2, #16
 800761c:	4677      	mov	r7, lr
 800761e:	ed16 7a04 	vldr	s14, [r6, #-16]
 8007622:	3f01      	subs	r7, #1
 8007624:	ed15 6a04 	vldr	s12, [r5, #-16]
 8007628:	f106 0610 	add.w	r6, r6, #16
 800762c:	ed56 7a06 	vldr	s15, [r6, #-24]	@ 0xffffffe8
 8007630:	f105 0510 	add.w	r5, r5, #16
 8007634:	ee27 6a06 	vmul.f32	s12, s14, s12
 8007638:	ed55 6a06 	vldr	s13, [r5, #-24]	@ 0xffffffe8
 800763c:	ed16 7a07 	vldr	s14, [r6, #-28]	@ 0xffffffe4
 8007640:	f104 0410 	add.w	r4, r4, #16
 8007644:	ed55 5a07 	vldr	s11, [r5, #-28]	@ 0xffffffe4
 8007648:	ee67 6aa6 	vmul.f32	s13, s15, s13
 800764c:	ed56 7a05 	vldr	s15, [r6, #-20]	@ 0xffffffec
 8007650:	ed04 6a08 	vstr	s12, [r4, #-32]	@ 0xffffffe0
 8007654:	ee27 7a25 	vmul.f32	s14, s14, s11
 8007658:	ed15 6a05 	vldr	s12, [r5, #-20]	@ 0xffffffec
 800765c:	ed44 6a06 	vstr	s13, [r4, #-24]	@ 0xffffffe8
 8007660:	ee67 7a86 	vmul.f32	s15, s15, s12
 8007664:	ed04 7a07 	vstr	s14, [r4, #-28]	@ 0xffffffe4
 8007668:	ed44 7a05 	vstr	s15, [r4, #-20]	@ 0xffffffec
 800766c:	d1d7      	bne.n	800761e <arm_mult_f32+0x16>
 800766e:	ea4f 140e 	mov.w	r4, lr, lsl #4
 8007672:	4420      	add	r0, r4
 8007674:	4421      	add	r1, r4
 8007676:	4422      	add	r2, r4
 8007678:	f013 0303 	ands.w	r3, r3, #3
 800767c:	d009      	beq.n	8007692 <arm_mult_f32+0x8a>
 800767e:	ecf0 7a01 	vldmia	r0!, {s15}
 8007682:	3b01      	subs	r3, #1
 8007684:	ecb1 7a01 	vldmia	r1!, {s14}
 8007688:	ee67 7a87 	vmul.f32	s15, s15, s14
 800768c:	ece2 7a01 	vstmia	r2!, {s15}
 8007690:	d1f5      	bne.n	800767e <arm_mult_f32+0x76>
 8007692:	bdf0      	pop	{r4, r5, r6, r7, pc}

08007694 <arm_add_f32>:
 8007694:	b5f0      	push	{r4, r5, r6, r7, lr}
 8007696:	ea5f 0e93 	movs.w	lr, r3, lsr #2
 800769a:	d033      	beq.n	8007704 <arm_add_f32+0x70>
 800769c:	f100 0610 	add.w	r6, r0, #16
 80076a0:	f101 0510 	add.w	r5, r1, #16
 80076a4:	f102 0410 	add.w	r4, r2, #16
 80076a8:	4677      	mov	r7, lr
 80076aa:	ed16 7a03 	vldr	s14, [r6, #-12]
 80076ae:	3f01      	subs	r7, #1
 80076b0:	ed56 7a02 	vldr	s15, [r6, #-8]
 80076b4:	f105 0510 	add.w	r5, r5, #16
 80076b8:	ed15 6a07 	vldr	s12, [r5, #-28]	@ 0xffffffe4
 80076bc:	f106 0610 	add.w	r6, r6, #16
 80076c0:	ed55 6a06 	vldr	s13, [r5, #-24]	@ 0xffffffe8
 80076c4:	f104 0410 	add.w	r4, r4, #16
 80076c8:	ed15 5a05 	vldr	s10, [r5, #-20]	@ 0xffffffec
 80076cc:	ee37 6a06 	vadd.f32	s12, s14, s12
 80076d0:	ed55 5a08 	vldr	s11, [r5, #-32]	@ 0xffffffe0
 80076d4:	ee77 6aa6 	vadd.f32	s13, s15, s13
 80076d8:	ed16 7a05 	vldr	s14, [r6, #-20]	@ 0xffffffec
 80076dc:	ed56 7a08 	vldr	s15, [r6, #-32]	@ 0xffffffe0
 80076e0:	ee37 7a05 	vadd.f32	s14, s14, s10
 80076e4:	ed04 6a07 	vstr	s12, [r4, #-28]	@ 0xffffffe4
 80076e8:	ee77 7aa5 	vadd.f32	s15, s15, s11
 80076ec:	ed44 6a06 	vstr	s13, [r4, #-24]	@ 0xffffffe8
 80076f0:	ed04 7a05 	vstr	s14, [r4, #-20]	@ 0xffffffec
 80076f4:	ed44 7a08 	vstr	s15, [r4, #-32]	@ 0xffffffe0
 80076f8:	d1d7      	bne.n	80076aa <arm_add_f32+0x16>
 80076fa:	ea4f 140e 	mov.w	r4, lr, lsl #4
 80076fe:	4420      	add	r0, r4
 8007700:	4421      	add	r1, r4
 8007702:	4422      	add	r2, r4
 8007704:	f013 0303 	ands.w	r3, r3, #3
 8007708:	d009      	beq.n	800771e <arm_add_f32+0x8a>
 800770a:	ecf0 7a01 	vldmia	r0!, {s15}
 800770e:	3b01      	subs	r3, #1
 8007710:	ecb1 7a01 	vldmia	r1!, {s14}
 8007714:	ee77 7a87 	vadd.f32	s15, s15, s14
 8007718:	ece2 7a01 	vstmia	r2!, {s15}
 800771c:	d1f5      	bne.n	800770a <arm_add_f32+0x76>
 800771e:	bdf0      	pop	{r4, r5, r6, r7, pc}

08007720 <arm_radix8_butterfly_f32>:
 8007720:	e92d 4ff0 	stmdb	sp!, {r4, r5, r6, r7, r8, r9, sl, fp, lr}
 8007724:	469e      	mov	lr, r3
 8007726:	1d03      	adds	r3, r0, #4
 8007728:	4683      	mov	fp, r0
 800772a:	468a      	mov	sl, r1
 800772c:	4688      	mov	r8, r1
 800772e:	469c      	mov	ip, r3
 8007730:	ed2d 8b10 	vpush	{d8-d15}
 8007734:	ed9f 9ac4 	vldr	s18, [pc, #784]	@ 8007a48 <arm_radix8_butterfly_f32+0x328>
 8007738:	b09f      	sub	sp, #124	@ 0x7c
 800773a:	921c      	str	r2, [sp, #112]	@ 0x70
 800773c:	931d      	str	r3, [sp, #116]	@ 0x74
 800773e:	ea4f 03d8 	mov.w	r3, r8, lsr #3
 8007742:	f04f 0900 	mov.w	r9, #0
 8007746:	461a      	mov	r2, r3
 8007748:	930e      	str	r3, [sp, #56]	@ 0x38
 800774a:	ea4f 03c8 	mov.w	r3, r8, lsl #3
 800774e:	0051      	lsls	r1, r2, #1
 8007750:	4608      	mov	r0, r1
 8007752:	9103      	str	r1, [sp, #12]
 8007754:	00d1      	lsls	r1, r2, #3
 8007756:	1885      	adds	r5, r0, r2
 8007758:	0110      	lsls	r0, r2, #4
 800775a:	eb0b 0601 	add.w	r6, fp, r1
 800775e:	9101      	str	r1, [sp, #4]
 8007760:	18ac      	adds	r4, r5, r2
 8007762:	9002      	str	r0, [sp, #8]
 8007764:	1877      	adds	r7, r6, r1
 8007766:	4611      	mov	r1, r2
 8007768:	4422      	add	r2, r4
 800776a:	eb0b 05c5 	add.w	r5, fp, r5, lsl #3
 800776e:	eb0b 04c4 	add.w	r4, fp, r4, lsl #3
 8007772:	1850      	adds	r0, r2, r1
 8007774:	eb0b 02c2 	add.w	r2, fp, r2, lsl #3
 8007778:	4401      	add	r1, r0
 800777a:	3204      	adds	r2, #4
 800777c:	eb0b 00c0 	add.w	r0, fp, r0, lsl #3
 8007780:	eb0b 01c1 	add.w	r1, fp, r1, lsl #3
 8007784:	3104      	adds	r1, #4
 8007786:	ed1c 7a01 	vldr	s14, [ip, #-4]
 800778a:	44c1      	add	r9, r8
 800778c:	edd4 6a00 	vldr	s13, [r4]
 8007790:	ed97 6a00 	vldr	s12, [r7]
 8007794:	45ca      	cmp	sl, r9
 8007796:	edd0 7a00 	vldr	s15, [r0]
 800779a:	ee37 5a66 	vsub.f32	s10, s14, s13
 800779e:	edd6 5a00 	vldr	s11, [r6]
 80077a2:	ee37 2a26 	vadd.f32	s4, s14, s13
 80077a6:	ee76 2a67 	vsub.f32	s5, s12, s15
 80077aa:	edd5 6a00 	vldr	s13, [r5]
 80077ae:	ed12 7a01 	vldr	s14, [r2, #-4]
 80077b2:	ee76 4a27 	vadd.f32	s9, s12, s15
 80077b6:	ed11 6a01 	vldr	s12, [r1, #-4]
 80077ba:	ee75 1a87 	vadd.f32	s3, s11, s14
 80077be:	ee36 4a86 	vadd.f32	s8, s13, s12
 80077c2:	ee72 7a24 	vadd.f32	s15, s4, s9
 80077c6:	ee35 7ac7 	vsub.f32	s14, s11, s14
 80077ca:	ee76 5ac6 	vsub.f32	s11, s13, s12
 80077ce:	ee31 6a84 	vadd.f32	s12, s3, s8
 80077d2:	ee32 2a64 	vsub.f32	s4, s4, s9
 80077d6:	ee77 6a65 	vsub.f32	s13, s14, s11
 80077da:	ee77 4a86 	vadd.f32	s9, s15, s12
 80077de:	ee77 7ac6 	vsub.f32	s15, s15, s12
 80077e2:	ee37 7a25 	vadd.f32	s14, s14, s11
 80077e6:	ed4c 4a01 	vstr	s9, [ip, #-4]
 80077ea:	ee71 1ac4 	vsub.f32	s3, s3, s8
 80077ee:	edc4 7a00 	vstr	s15, [r4]
 80077f2:	ee66 6a89 	vmul.f32	s13, s13, s18
 80077f6:	edd6 5a01 	vldr	s11, [r6, #4]
 80077fa:	ee27 6a09 	vmul.f32	s12, s14, s18
 80077fe:	edd5 3a01 	vldr	s7, [r5, #4]
 8007802:	ed92 4a00 	vldr	s8, [r2]
 8007806:	ee35 1a26 	vadd.f32	s2, s10, s13
 800780a:	edd1 4a00 	vldr	s9, [r1]
 800780e:	ee75 6a66 	vsub.f32	s13, s10, s13
 8007812:	ee35 3ac4 	vsub.f32	s6, s11, s8
 8007816:	ed94 0a01 	vldr	s0, [r4, #4]
 800781a:	ee73 7ae4 	vsub.f32	s15, s7, s9
 800781e:	ed9c 7a00 	vldr	s14, [ip]
 8007822:	edd0 0a01 	vldr	s1, [r0, #4]
 8007826:	ee35 4a84 	vadd.f32	s8, s11, s8
 800782a:	ed97 5a01 	vldr	s10, [r7, #4]
 800782e:	ee73 4aa4 	vadd.f32	s9, s7, s9
 8007832:	ee73 5a27 	vadd.f32	s11, s6, s15
 8007836:	ee77 3a00 	vadd.f32	s7, s14, s0
 800783a:	ee33 3a67 	vsub.f32	s6, s6, s15
 800783e:	ee37 7a40 	vsub.f32	s14, s14, s0
 8007842:	ee35 0a20 	vadd.f32	s0, s10, s1
 8007846:	ee63 7a09 	vmul.f32	s15, s6, s18
 800784a:	ee35 5a60 	vsub.f32	s10, s10, s1
 800784e:	ee33 3a80 	vadd.f32	s6, s7, s0
 8007852:	ee74 0a24 	vadd.f32	s1, s8, s9
 8007856:	ee65 5a89 	vmul.f32	s11, s11, s18
 800785a:	ee74 4a64 	vsub.f32	s9, s8, s9
 800785e:	ee33 4ac0 	vsub.f32	s8, s7, s0
 8007862:	ee75 3a25 	vadd.f32	s7, s10, s11
 8007866:	ee75 5a65 	vsub.f32	s11, s10, s11
 800786a:	ee37 5a27 	vadd.f32	s10, s14, s15
 800786e:	ee77 7a67 	vsub.f32	s15, s14, s15
 8007872:	ee32 7a86 	vadd.f32	s14, s5, s12
 8007876:	ee32 6ac6 	vsub.f32	s12, s5, s12
 800787a:	ee73 2a20 	vadd.f32	s5, s6, s1
 800787e:	ee33 3a60 	vsub.f32	s6, s6, s1
 8007882:	ee72 0a24 	vadd.f32	s1, s4, s9
 8007886:	edcc 2a00 	vstr	s5, [ip]
 800788a:	ee72 4a64 	vsub.f32	s9, s4, s9
 800788e:	ed84 3a01 	vstr	s6, [r4, #4]
 8007892:	ee74 2a61 	vsub.f32	s5, s8, s3
 8007896:	ee31 3a23 	vadd.f32	s6, s2, s7
 800789a:	edc7 0a00 	vstr	s1, [r7]
 800789e:	ee31 1a63 	vsub.f32	s2, s2, s7
 80078a2:	edc0 4a00 	vstr	s9, [r0]
 80078a6:	ee76 3aa5 	vadd.f32	s7, s13, s11
 80078aa:	edc7 2a01 	vstr	s5, [r7, #4]
 80078ae:	ee76 6ae5 	vsub.f32	s13, s13, s11
 80078b2:	441c      	add	r4, r3
 80078b4:	ee75 5a47 	vsub.f32	s11, s10, s14
 80078b8:	449c      	add	ip, r3
 80078ba:	ee35 5a07 	vadd.f32	s10, s10, s14
 80078be:	441f      	add	r7, r3
 80078c0:	ee37 7ac6 	vsub.f32	s14, s15, s12
 80078c4:	ee34 4a21 	vadd.f32	s8, s8, s3
 80078c8:	ee77 7a86 	vadd.f32	s15, s15, s12
 80078cc:	ed80 4a01 	vstr	s8, [r0, #4]
 80078d0:	4418      	add	r0, r3
 80078d2:	ed86 3a00 	vstr	s6, [r6]
 80078d6:	ed01 1a01 	vstr	s2, [r1, #-4]
 80078da:	ed42 3a01 	vstr	s7, [r2, #-4]
 80078de:	edc5 6a00 	vstr	s13, [r5]
 80078e2:	edc6 5a01 	vstr	s11, [r6, #4]
 80078e6:	441e      	add	r6, r3
 80078e8:	ed81 5a00 	vstr	s10, [r1]
 80078ec:	4419      	add	r1, r3
 80078ee:	ed82 7a00 	vstr	s14, [r2]
 80078f2:	441a      	add	r2, r3
 80078f4:	edc5 7a01 	vstr	s15, [r5, #4]
 80078f8:	441d      	add	r5, r3
 80078fa:	f63f af44 	bhi.w	8007786 <arm_radix8_butterfly_f32+0x66>
 80078fe:	9f0e      	ldr	r7, [sp, #56]	@ 0x38
 8007900:	2f07      	cmp	r7, #7
 8007902:	f240 81e8 	bls.w	8007cd6 <arm_radix8_butterfly_f32+0x5b6>
 8007906:	9903      	ldr	r1, [sp, #12]
 8007908:	eb0e 054e 	add.w	r5, lr, lr, lsl #1
 800790c:	9e01      	ldr	r6, [sp, #4]
 800790e:	eb07 0087 	add.w	r0, r7, r7, lsl #2
 8007912:	19ca      	adds	r2, r1, r7
 8007914:	1c4c      	adds	r4, r1, #1
 8007916:	eb05 010e 	add.w	r1, r5, lr
 800791a:	00ed      	lsls	r5, r5, #3
 800791c:	eb04 0487 	add.w	r4, r4, r7, lsl #2
 8007920:	3608      	adds	r6, #8
 8007922:	950f      	str	r5, [sp, #60]	@ 0x3c
 8007924:	eb01 050e 	add.w	r5, r1, lr
 8007928:	00c9      	lsls	r1, r1, #3
 800792a:	443c      	add	r4, r7
 800792c:	9618      	str	r6, [sp, #96]	@ 0x60
 800792e:	00ee      	lsls	r6, r5, #3
 8007930:	460f      	mov	r7, r1
 8007932:	9114      	str	r1, [sp, #80]	@ 0x50
 8007934:	9902      	ldr	r1, [sp, #8]
 8007936:	eb0b 04c4 	add.w	r4, fp, r4, lsl #3
 800793a:	9611      	str	r6, [sp, #68]	@ 0x44
 800793c:	00c0      	lsls	r0, r0, #3
 800793e:	9e1c      	ldr	r6, [sp, #112]	@ 0x70
 8007940:	3108      	adds	r1, #8
 8007942:	3404      	adds	r4, #4
 8007944:	f04f 0901 	mov.w	r9, #1
 8007948:	9119      	str	r1, [sp, #100]	@ 0x64
 800794a:	eb05 010e 	add.w	r1, r5, lr
 800794e:	4635      	mov	r5, r6
 8007950:	940b      	str	r4, [sp, #44]	@ 0x2c
 8007952:	9301      	str	r3, [sp, #4]
 8007954:	443d      	add	r5, r7
 8007956:	9f11      	ldr	r7, [sp, #68]	@ 0x44
 8007958:	9507      	str	r5, [sp, #28]
 800795a:	eb01 050e 	add.w	r5, r1, lr
 800795e:	00c9      	lsls	r1, r1, #3
 8007960:	19f7      	adds	r7, r6, r7
 8007962:	00ed      	lsls	r5, r5, #3
 8007964:	9110      	str	r1, [sp, #64]	@ 0x40
 8007966:	00d1      	lsls	r1, r2, #3
 8007968:	970a      	str	r7, [sp, #40]	@ 0x28
 800796a:	462f      	mov	r7, r5
 800796c:	9515      	str	r5, [sp, #84]	@ 0x54
 800796e:	0112      	lsls	r2, r2, #4
 8007970:	9d10      	ldr	r5, [sp, #64]	@ 0x40
 8007972:	19f4      	adds	r4, r6, r7
 8007974:	320c      	adds	r2, #12
 8007976:	3108      	adds	r1, #8
 8007978:	1975      	adds	r5, r6, r5
 800797a:	9408      	str	r4, [sp, #32]
 800797c:	9217      	str	r2, [sp, #92]	@ 0x5c
 800797e:	ea4f 04ce 	mov.w	r4, lr, lsl #3
 8007982:	9509      	str	r5, [sp, #36]	@ 0x24
 8007984:	f100 020c 	add.w	r2, r0, #12
 8007988:	9d0f      	ldr	r5, [sp, #60]	@ 0x3c
 800798a:	9f0e      	ldr	r7, [sp, #56]	@ 0x38
 800798c:	1975      	adds	r5, r6, r5
 800798e:	9216      	str	r2, [sp, #88]	@ 0x58
 8007990:	1932      	adds	r2, r6, r4
 8007992:	911b      	str	r1, [sp, #108]	@ 0x6c
 8007994:	9505      	str	r5, [sp, #20]
 8007996:	ea4f 150e 	mov.w	r5, lr, lsl #4
 800799a:	0179      	lsls	r1, r7, #5
 800799c:	9204      	str	r2, [sp, #16]
 800799e:	1972      	adds	r2, r6, r5
 80079a0:	9412      	str	r4, [sp, #72]	@ 0x48
 80079a2:	9513      	str	r5, [sp, #76]	@ 0x4c
 80079a4:	9206      	str	r2, [sp, #24]
 80079a6:	f101 0208 	add.w	r2, r1, #8
 80079aa:	921a      	str	r2, [sp, #104]	@ 0x68
 80079ac:	2200      	movs	r2, #0
 80079ae:	f102 0108 	add.w	r1, r2, #8
 80079b2:	9b17      	ldr	r3, [sp, #92]	@ 0x5c
 80079b4:	46cc      	mov	ip, r9
 80079b6:	460f      	mov	r7, r1
 80079b8:	910c      	str	r1, [sp, #48]	@ 0x30
 80079ba:	991a      	ldr	r1, [sp, #104]	@ 0x68
 80079bc:	eb0b 0e07 	add.w	lr, fp, r7
 80079c0:	9f04      	ldr	r7, [sp, #16]
 80079c2:	188e      	adds	r6, r1, r2
 80079c4:	9918      	ldr	r1, [sp, #96]	@ 0x60
 80079c6:	edd7 fa00 	vldr	s31, [r7]
 80079ca:	9f06      	ldr	r7, [sp, #24]
 80079cc:	188d      	adds	r5, r1, r2
 80079ce:	9919      	ldr	r1, [sp, #100]	@ 0x64
 80079d0:	445e      	add	r6, fp
 80079d2:	ed97 fa00 	vldr	s30, [r7]
 80079d6:	445d      	add	r5, fp
 80079d8:	9f05      	ldr	r7, [sp, #20]
 80079da:	188c      	adds	r4, r1, r2
 80079dc:	991b      	ldr	r1, [sp, #108]	@ 0x6c
 80079de:	edd7 ea00 	vldr	s29, [r7]
 80079e2:	445c      	add	r4, fp
 80079e4:	9f07      	ldr	r7, [sp, #28]
 80079e6:	1888      	adds	r0, r1, r2
 80079e8:	9916      	ldr	r1, [sp, #88]	@ 0x58
 80079ea:	ed97 ea00 	vldr	s28, [r7]
 80079ee:	4458      	add	r0, fp
 80079f0:	9f0a      	ldr	r7, [sp, #40]	@ 0x28
 80079f2:	4411      	add	r1, r2
 80079f4:	441a      	add	r2, r3
 80079f6:	9b0b      	ldr	r3, [sp, #44]	@ 0x2c
 80079f8:	edd7 da00 	vldr	s27, [r7]
 80079fc:	4459      	add	r1, fp
 80079fe:	9f09      	ldr	r7, [sp, #36]	@ 0x24
 8007a00:	445a      	add	r2, fp
 8007a02:	930d      	str	r3, [sp, #52]	@ 0x34
 8007a04:	ed97 da00 	vldr	s26, [r7]
 8007a08:	9f08      	ldr	r7, [sp, #32]
 8007a0a:	edd7 ca00 	vldr	s25, [r7]
 8007a0e:	9f04      	ldr	r7, [sp, #16]
 8007a10:	ed97 ca01 	vldr	s24, [r7, #4]
 8007a14:	9f06      	ldr	r7, [sp, #24]
 8007a16:	edd7 ba01 	vldr	s23, [r7, #4]
 8007a1a:	9f05      	ldr	r7, [sp, #20]
 8007a1c:	ed97 ba01 	vldr	s22, [r7, #4]
 8007a20:	9f07      	ldr	r7, [sp, #28]
 8007a22:	edd7 aa01 	vldr	s21, [r7, #4]
 8007a26:	9f0a      	ldr	r7, [sp, #40]	@ 0x28
 8007a28:	ed97 aa01 	vldr	s20, [r7, #4]
 8007a2c:	9f09      	ldr	r7, [sp, #36]	@ 0x24
 8007a2e:	9b01      	ldr	r3, [sp, #4]
 8007a30:	edd7 7a01 	vldr	s15, [r7, #4]
 8007a34:	9f08      	ldr	r7, [sp, #32]
 8007a36:	edcd 7a02 	vstr	s15, [sp, #8]
 8007a3a:	edd7 7a01 	vldr	s15, [r7, #4]
 8007a3e:	9f0d      	ldr	r7, [sp, #52]	@ 0x34
 8007a40:	edcd 7a03 	vstr	s15, [sp, #12]
 8007a44:	e002      	b.n	8007a4c <arm_radix8_butterfly_f32+0x32c>
 8007a46:	bf00      	nop
 8007a48:	3f3504f3 	.word	0x3f3504f3
 8007a4c:	ed90 2a00 	vldr	s4, [r0]
 8007a50:	44c4      	add	ip, r8
 8007a52:	ed96 7a00 	vldr	s14, [r6]
 8007a56:	ed94 8a00 	vldr	s16, [r4]
 8007a5a:	45e2      	cmp	sl, ip
 8007a5c:	ed52 7a01 	vldr	s15, [r2, #-4]
 8007a60:	ed95 5a00 	vldr	s10, [r5]
 8007a64:	ed51 5a01 	vldr	s11, [r1, #-4]
 8007a68:	ee38 6a27 	vadd.f32	s12, s16, s15
 8007a6c:	ed9e 1a00 	vldr	s2, [lr]
 8007a70:	ee78 2a67 	vsub.f32	s5, s16, s15
 8007a74:	ed17 4a01 	vldr	s8, [r7, #-4]
 8007a78:	ee75 3a25 	vadd.f32	s7, s10, s11
 8007a7c:	ee31 3a07 	vadd.f32	s6, s2, s14
 8007a80:	edde 4a01 	vldr	s9, [lr, #4]
 8007a84:	ee72 6a04 	vadd.f32	s13, s4, s8
 8007a88:	ee75 5a65 	vsub.f32	s11, s10, s11
 8007a8c:	ee73 1a06 	vadd.f32	s3, s6, s12
 8007a90:	ee33 5aa6 	vadd.f32	s10, s7, s13
 8007a94:	ee32 4a44 	vsub.f32	s8, s4, s8
 8007a98:	ee31 1a47 	vsub.f32	s2, s2, s14
 8007a9c:	ee31 7a85 	vadd.f32	s14, s3, s10
 8007aa0:	ee75 7a84 	vadd.f32	s15, s11, s8
 8007aa4:	ee33 3a46 	vsub.f32	s6, s6, s12
 8007aa8:	ed8e 7a00 	vstr	s14, [lr]
 8007aac:	ee73 3ae6 	vsub.f32	s7, s7, s13
 8007ab0:	ee67 7a89 	vmul.f32	s15, s15, s18
 8007ab4:	ed90 2a01 	vldr	s4, [r0, #4]
 8007ab8:	ed95 7a01 	vldr	s14, [r5, #4]
 8007abc:	ee35 4ac4 	vsub.f32	s8, s11, s8
 8007ac0:	ed91 6a00 	vldr	s12, [r1]
 8007ac4:	ee31 5ac5 	vsub.f32	s10, s3, s10
 8007ac8:	edd7 8a00 	vldr	s17, [r7]
 8007acc:	ee32 8ae7 	vsub.f32	s16, s5, s15
 8007ad0:	ee72 5aa7 	vadd.f32	s11, s5, s15
 8007ad4:	edd2 0a00 	vldr	s1, [r2]
 8007ad8:	ee72 6a68 	vsub.f32	s13, s4, s17
 8007adc:	edd6 7a01 	vldr	s15, [r6, #4]
 8007ae0:	ee77 2a46 	vsub.f32	s5, s14, s12
 8007ae4:	ee37 0a06 	vadd.f32	s0, s14, s12
 8007ae8:	ed94 7a01 	vldr	s14, [r4, #4]
 8007aec:	ee32 6a28 	vadd.f32	s12, s4, s17
 8007af0:	ee72 9ae6 	vsub.f32	s19, s5, s13
 8007af4:	ee34 2aa7 	vadd.f32	s4, s9, s15
 8007af8:	ee72 2aa6 	vadd.f32	s5, s5, s13
 8007afc:	ee77 6a20 	vadd.f32	s13, s14, s1
 8007b00:	ee74 4ae7 	vsub.f32	s9, s9, s15
 8007b04:	ee37 7a60 	vsub.f32	s14, s14, s1
 8007b08:	ee24 4a09 	vmul.f32	s8, s8, s18
 8007b0c:	ee70 0a06 	vadd.f32	s1, s0, s12
 8007b10:	ee69 7a89 	vmul.f32	s15, s19, s18
 8007b14:	ee62 2a89 	vmul.f32	s5, s5, s18
 8007b18:	ee30 6a46 	vsub.f32	s12, s0, s12
 8007b1c:	ee32 0a26 	vadd.f32	s0, s4, s13
 8007b20:	ee72 6a66 	vsub.f32	s13, s4, s13
 8007b24:	ee77 8a62 	vsub.f32	s17, s14, s5
 8007b28:	ee34 2aa7 	vadd.f32	s4, s9, s15
 8007b2c:	ee74 7ae7 	vsub.f32	s15, s9, s15
 8007b30:	ee77 4a22 	vadd.f32	s9, s14, s5
 8007b34:	ee71 2a04 	vadd.f32	s5, s2, s8
 8007b38:	ee31 7a44 	vsub.f32	s14, s2, s8
 8007b3c:	ee30 1a60 	vsub.f32	s2, s0, s1
 8007b40:	ee73 1a06 	vadd.f32	s3, s6, s12
 8007b44:	ee33 6a46 	vsub.f32	s12, s6, s12
 8007b48:	ee36 3ae3 	vsub.f32	s6, s13, s7
 8007b4c:	ee37 4ac8 	vsub.f32	s8, s15, s16
 8007b50:	ee76 6aa3 	vadd.f32	s13, s13, s7
 8007b54:	ee77 7a88 	vadd.f32	s15, s15, s16
 8007b58:	ee72 3a65 	vsub.f32	s7, s4, s11
 8007b5c:	ee2a 8a81 	vmul.f32	s16, s21, s2
 8007b60:	ee72 5a25 	vadd.f32	s11, s4, s11
 8007b64:	ee2e 1a01 	vmul.f32	s2, s28, s2
 8007b68:	ee32 2aa4 	vadd.f32	s4, s5, s9
 8007b6c:	ee72 4ae4 	vsub.f32	s9, s5, s9
 8007b70:	ee77 2a28 	vadd.f32	s5, s14, s17
 8007b74:	ee37 7a68 	vsub.f32	s14, s14, s17
 8007b78:	ee6e 8a05 	vmul.f32	s17, s28, s10
 8007b7c:	ee2a 5a85 	vmul.f32	s10, s21, s10
 8007b80:	ee6f 9a21 	vmul.f32	s19, s30, s3
 8007b84:	ee70 0a20 	vadd.f32	s1, s0, s1
 8007b88:	ee6b 1aa1 	vmul.f32	s3, s23, s3
 8007b8c:	ee2b 0a83 	vmul.f32	s0, s23, s6
 8007b90:	ee2f 3a03 	vmul.f32	s6, s30, s6
 8007b94:	edce 0a01 	vstr	s1, [lr, #4]
 8007b98:	ee38 8a88 	vadd.f32	s16, s17, s16
 8007b9c:	449e      	add	lr, r3
 8007b9e:	ee6c 8a23 	vmul.f32	s17, s24, s7
 8007ba2:	ee31 5a45 	vsub.f32	s10, s2, s10
 8007ba6:	ee6f 3aa3 	vmul.f32	s7, s31, s7
 8007baa:	ed86 8a00 	vstr	s16, [r6]
 8007bae:	ee39 0a80 	vadd.f32	s0, s19, s0
 8007bb2:	ee33 3a61 	vsub.f32	s6, s6, s3
 8007bb6:	ed86 5a01 	vstr	s10, [r6, #4]
 8007bba:	ee6f 0a82 	vmul.f32	s1, s31, s4
 8007bbe:	edcd 3a01 	vstr	s7, [sp, #4]
 8007bc2:	ed9d 5a03 	vldr	s10, [sp, #12]
 8007bc6:	ee2d 8a06 	vmul.f32	s16, s26, s12
 8007bca:	eddd 3a02 	vldr	s7, [sp, #8]
 8007bce:	ee6c 9aa4 	vmul.f32	s19, s25, s9
 8007bd2:	ed84 0a00 	vstr	s0, [r4]
 8007bd6:	ee65 4a24 	vmul.f32	s9, s10, s9
 8007bda:	ed84 3a01 	vstr	s6, [r4, #4]
 8007bde:	ee23 1aa6 	vmul.f32	s2, s7, s13
 8007be2:	ee23 6a86 	vmul.f32	s12, s7, s12
 8007be6:	eddd 3a01 	vldr	s7, [sp, #4]
 8007bea:	ee25 5a25 	vmul.f32	s10, s10, s11
 8007bee:	441e      	add	r6, r3
 8007bf0:	ee2d 0aa2 	vmul.f32	s0, s27, s5
 8007bf4:	441c      	add	r4, r3
 8007bf6:	ee6a 1a04 	vmul.f32	s3, s20, s8
 8007bfa:	ee70 0aa8 	vadd.f32	s1, s1, s17
 8007bfe:	ee2e 3a87 	vmul.f32	s6, s29, s14
 8007c02:	ee6b 8a27 	vmul.f32	s17, s22, s15
 8007c06:	ee2c 2a02 	vmul.f32	s4, s24, s4
 8007c0a:	ee6d 6a26 	vmul.f32	s13, s26, s13
 8007c0e:	ee6c 5aa5 	vmul.f32	s11, s25, s11
 8007c12:	ee6a 2a22 	vmul.f32	s5, s20, s5
 8007c16:	ee2d 4a84 	vmul.f32	s8, s27, s8
 8007c1a:	ee2b 7a07 	vmul.f32	s14, s22, s14
 8007c1e:	ee6e 7aa7 	vmul.f32	s15, s29, s15
 8007c22:	ee73 3ac2 	vsub.f32	s7, s7, s4
 8007c26:	ee38 8a01 	vadd.f32	s16, s16, s2
 8007c2a:	ee36 6ac6 	vsub.f32	s12, s13, s12
 8007c2e:	ee39 5a85 	vadd.f32	s10, s19, s10
 8007c32:	ee75 4ae4 	vsub.f32	s9, s11, s9
 8007c36:	ed02 8a01 	vstr	s16, [r2, #-4]
 8007c3a:	ee30 0a21 	vadd.f32	s0, s0, s3
 8007c3e:	ed82 6a00 	vstr	s12, [r2]
 8007c42:	ee74 2a62 	vsub.f32	s5, s8, s5
 8007c46:	edc5 0a00 	vstr	s1, [r5]
 8007c4a:	ee33 3a28 	vadd.f32	s6, s6, s17
 8007c4e:	edc5 3a01 	vstr	s7, [r5, #4]
 8007c52:	ee37 7ac7 	vsub.f32	s14, s15, s14
 8007c56:	ed07 5a01 	vstr	s10, [r7, #-4]
 8007c5a:	edc7 4a00 	vstr	s9, [r7]
 8007c5e:	441d      	add	r5, r3
 8007c60:	ed01 0a01 	vstr	s0, [r1, #-4]
 8007c64:	441a      	add	r2, r3
 8007c66:	edc1 2a00 	vstr	s5, [r1]
 8007c6a:	441f      	add	r7, r3
 8007c6c:	ed80 3a00 	vstr	s6, [r0]
 8007c70:	4419      	add	r1, r3
 8007c72:	ed80 7a01 	vstr	s14, [r0, #4]
 8007c76:	4418      	add	r0, r3
 8007c78:	f63f aee8 	bhi.w	8007a4c <arm_radix8_butterfly_f32+0x32c>
 8007c7c:	9a12      	ldr	r2, [sp, #72]	@ 0x48
 8007c7e:	f109 0901 	add.w	r9, r9, #1
 8007c82:	9301      	str	r3, [sp, #4]
 8007c84:	9b04      	ldr	r3, [sp, #16]
 8007c86:	4413      	add	r3, r2
 8007c88:	9a13      	ldr	r2, [sp, #76]	@ 0x4c
 8007c8a:	9304      	str	r3, [sp, #16]
 8007c8c:	9b06      	ldr	r3, [sp, #24]
 8007c8e:	4413      	add	r3, r2
 8007c90:	9a0f      	ldr	r2, [sp, #60]	@ 0x3c
 8007c92:	9306      	str	r3, [sp, #24]
 8007c94:	9b05      	ldr	r3, [sp, #20]
 8007c96:	4413      	add	r3, r2
 8007c98:	9a14      	ldr	r2, [sp, #80]	@ 0x50
 8007c9a:	9305      	str	r3, [sp, #20]
 8007c9c:	9b07      	ldr	r3, [sp, #28]
 8007c9e:	4413      	add	r3, r2
 8007ca0:	9a11      	ldr	r2, [sp, #68]	@ 0x44
 8007ca2:	9307      	str	r3, [sp, #28]
 8007ca4:	9b0a      	ldr	r3, [sp, #40]	@ 0x28
 8007ca6:	4413      	add	r3, r2
 8007ca8:	9a10      	ldr	r2, [sp, #64]	@ 0x40
 8007caa:	930a      	str	r3, [sp, #40]	@ 0x28
 8007cac:	9b09      	ldr	r3, [sp, #36]	@ 0x24
 8007cae:	4413      	add	r3, r2
 8007cb0:	9a15      	ldr	r2, [sp, #84]	@ 0x54
 8007cb2:	9309      	str	r3, [sp, #36]	@ 0x24
 8007cb4:	9b08      	ldr	r3, [sp, #32]
 8007cb6:	4413      	add	r3, r2
 8007cb8:	9a0b      	ldr	r2, [sp, #44]	@ 0x2c
 8007cba:	9308      	str	r3, [sp, #32]
 8007cbc:	3208      	adds	r2, #8
 8007cbe:	9b0e      	ldr	r3, [sp, #56]	@ 0x38
 8007cc0:	920b      	str	r2, [sp, #44]	@ 0x2c
 8007cc2:	4599      	cmp	r9, r3
 8007cc4:	9a0c      	ldr	r2, [sp, #48]	@ 0x30
 8007cc6:	f47f ae72 	bne.w	80079ae <arm_radix8_butterfly_f32+0x28e>
 8007cca:	f8bd e048 	ldrh.w	lr, [sp, #72]	@ 0x48
 8007cce:	46c8      	mov	r8, r9
 8007cd0:	f8dd c074 	ldr.w	ip, [sp, #116]	@ 0x74
 8007cd4:	e533      	b.n	800773e <arm_radix8_butterfly_f32+0x1e>
 8007cd6:	b01f      	add	sp, #124	@ 0x7c
 8007cd8:	ecbd 8b10 	vpop	{d8-d15}
 8007cdc:	e8bd 8ff0 	ldmia.w	sp!, {r4, r5, r6, r7, r8, r9, sl, fp, pc}

08007ce0 <memset>:
 8007ce0:	4402      	add	r2, r0
 8007ce2:	4603      	mov	r3, r0
 8007ce4:	4293      	cmp	r3, r2
 8007ce6:	d100      	bne.n	8007cea <memset+0xa>
 8007ce8:	4770      	bx	lr
 8007cea:	f803 1b01 	strb.w	r1, [r3], #1
 8007cee:	e7f9      	b.n	8007ce4 <memset+0x4>

08007cf0 <__errno>:
 8007cf0:	4b01      	ldr	r3, [pc, #4]	@ (8007cf8 <__errno+0x8>)
 8007cf2:	6818      	ldr	r0, [r3, #0]
 8007cf4:	4770      	bx	lr
 8007cf6:	bf00      	nop
 8007cf8:	24000058 	.word	0x24000058

08007cfc <__libc_init_array>:
 8007cfc:	b570      	push	{r4, r5, r6, lr}
 8007cfe:	4d0d      	ldr	r5, [pc, #52]	@ (8007d34 <__libc_init_array+0x38>)
 8007d00:	4c0d      	ldr	r4, [pc, #52]	@ (8007d38 <__libc_init_array+0x3c>)
 8007d02:	1b64      	subs	r4, r4, r5
 8007d04:	10a4      	asrs	r4, r4, #2
 8007d06:	2600      	movs	r6, #0
 8007d08:	42a6      	cmp	r6, r4
 8007d0a:	d109      	bne.n	8007d20 <__libc_init_array+0x24>
 8007d0c:	4d0b      	ldr	r5, [pc, #44]	@ (8007d3c <__libc_init_array+0x40>)
 8007d0e:	4c0c      	ldr	r4, [pc, #48]	@ (8007d40 <__libc_init_array+0x44>)
 8007d10:	f000 f9d2 	bl	80080b8 <_init>
 8007d14:	1b64      	subs	r4, r4, r5
 8007d16:	10a4      	asrs	r4, r4, #2
 8007d18:	2600      	movs	r6, #0
 8007d1a:	42a6      	cmp	r6, r4
 8007d1c:	d105      	bne.n	8007d2a <__libc_init_array+0x2e>
 8007d1e:	bd70      	pop	{r4, r5, r6, pc}
 8007d20:	f855 3b04 	ldr.w	r3, [r5], #4
 8007d24:	4798      	blx	r3
 8007d26:	3601      	adds	r6, #1
 8007d28:	e7ee      	b.n	8007d08 <__libc_init_array+0xc>
 8007d2a:	f855 3b04 	ldr.w	r3, [r5], #4
 8007d2e:	4798      	blx	r3
 8007d30:	3601      	adds	r6, #1
 8007d32:	e7f2      	b.n	8007d1a <__libc_init_array+0x1e>
 8007d34:	0807eba0 	.word	0x0807eba0
 8007d38:	0807eba0 	.word	0x0807eba0
 8007d3c:	0807eba0 	.word	0x0807eba0
 8007d40:	0807eba4 	.word	0x0807eba4

08007d44 <tanhf>:
 8007d44:	b538      	push	{r3, r4, r5, lr}
 8007d46:	ee10 5a10 	vmov	r5, s0
 8007d4a:	f025 4300 	bic.w	r3, r5, #2147483648	@ 0x80000000
 8007d4e:	f1b3 4fff 	cmp.w	r3, #2139095040	@ 0x7f800000
 8007d52:	ed2d 8b02 	vpush	{d8}
 8007d56:	eef0 7a40 	vmov.f32	s15, s0
 8007d5a:	d30f      	bcc.n	8007d7c <tanhf+0x38>
 8007d5c:	4b2a      	ldr	r3, [pc, #168]	@ (8007e08 <tanhf+0xc4>)
 8007d5e:	edd3 6a00 	vldr	s13, [r3]
 8007d62:	ed93 7a00 	vldr	s14, [r3]
 8007d66:	ee86 0aa7 	vdiv.f32	s0, s13, s15
 8007d6a:	2d00      	cmp	r5, #0
 8007d6c:	bfac      	ite	ge
 8007d6e:	ee30 0a07 	vaddge.f32	s0, s0, s14
 8007d72:	ee30 0a47 	vsublt.f32	s0, s0, s14
 8007d76:	ecbd 8b02 	vpop	{d8}
 8007d7a:	bd38      	pop	{r3, r4, r5, pc}
 8007d7c:	4a23      	ldr	r2, [pc, #140]	@ (8007e0c <tanhf+0xc8>)
 8007d7e:	4293      	cmp	r3, r2
 8007d80:	d839      	bhi.n	8007df6 <tanhf+0xb2>
 8007d82:	f1b3 5f10 	cmp.w	r3, #603979776	@ 0x24000000
 8007d86:	d207      	bcs.n	8007d98 <tanhf+0x54>
 8007d88:	4b1f      	ldr	r3, [pc, #124]	@ (8007e08 <tanhf+0xc4>)
 8007d8a:	ed93 0a00 	vldr	s0, [r3]
 8007d8e:	ee30 0a27 	vadd.f32	s0, s0, s15
 8007d92:	ee20 0a27 	vmul.f32	s0, s0, s15
 8007d96:	e7ee      	b.n	8007d76 <tanhf+0x32>
 8007d98:	f1b3 5f7e 	cmp.w	r3, #1065353216	@ 0x3f800000
 8007d9c:	4c1c      	ldr	r4, [pc, #112]	@ (8007e10 <tanhf+0xcc>)
 8007d9e:	d319      	bcc.n	8007dd4 <tanhf+0x90>
 8007da0:	f000 f982 	bl	80080a8 <fabsf>
 8007da4:	edd4 7a00 	vldr	s15, [r4]
 8007da8:	ee20 0a27 	vmul.f32	s0, s0, s15
 8007dac:	f000 f834 	bl	8007e18 <expm1f>
 8007db0:	4b15      	ldr	r3, [pc, #84]	@ (8007e08 <tanhf+0xc4>)
 8007db2:	edd3 7a00 	vldr	s15, [r3]
 8007db6:	ed94 6a00 	vldr	s12, [r4]
 8007dba:	ed94 7a00 	vldr	s14, [r4]
 8007dbe:	ee37 7a00 	vadd.f32	s14, s14, s0
 8007dc2:	eec6 6a07 	vdiv.f32	s13, s12, s14
 8007dc6:	ee37 0ae6 	vsub.f32	s0, s15, s13
 8007dca:	2d00      	cmp	r5, #0
 8007dcc:	bfb8      	it	lt
 8007dce:	eeb1 0a40 	vneglt.f32	s0, s0
 8007dd2:	e7d0      	b.n	8007d76 <tanhf+0x32>
 8007dd4:	ed94 8a00 	vldr	s16, [r4]
 8007dd8:	f000 f966 	bl	80080a8 <fabsf>
 8007ddc:	ee28 0a40 	vnmul.f32	s0, s16, s0
 8007de0:	f000 f81a 	bl	8007e18 <expm1f>
 8007de4:	edd4 7a00 	vldr	s15, [r4]
 8007de8:	ee77 7a80 	vadd.f32	s15, s15, s0
 8007dec:	eeb1 7a40 	vneg.f32	s14, s0
 8007df0:	ee87 0a27 	vdiv.f32	s0, s14, s15
 8007df4:	e7e9      	b.n	8007dca <tanhf+0x86>
 8007df6:	4b04      	ldr	r3, [pc, #16]	@ (8007e08 <tanhf+0xc4>)
 8007df8:	ed93 0a00 	vldr	s0, [r3]
 8007dfc:	4b05      	ldr	r3, [pc, #20]	@ (8007e14 <tanhf+0xd0>)
 8007dfe:	edd3 7a00 	vldr	s15, [r3]
 8007e02:	ee30 0a67 	vsub.f32	s0, s0, s15
 8007e06:	e7e0      	b.n	8007dca <tanhf+0x86>
 8007e08:	0807eb9c 	.word	0x0807eb9c
 8007e0c:	41afffff 	.word	0x41afffff
 8007e10:	0807eb98 	.word	0x0807eb98
 8007e14:	0807eb94 	.word	0x0807eb94

08007e18 <expm1f>:
 8007e18:	ee10 3a10 	vmov	r3, s0
 8007e1c:	4a83      	ldr	r2, [pc, #524]	@ (800802c <expm1f+0x214>)
 8007e1e:	f003 4000 	and.w	r0, r3, #2147483648	@ 0x80000000
 8007e22:	f023 4300 	bic.w	r3, r3, #2147483648	@ 0x80000000
 8007e26:	4293      	cmp	r3, r2
 8007e28:	d91e      	bls.n	8007e68 <expm1f+0x50>
 8007e2a:	f1b3 4fff 	cmp.w	r3, #2139095040	@ 0x7f800000
 8007e2e:	d902      	bls.n	8007e36 <expm1f+0x1e>
 8007e30:	ee30 0a00 	vadd.f32	s0, s0, s0
 8007e34:	4770      	bx	lr
 8007e36:	d105      	bne.n	8007e44 <expm1f+0x2c>
 8007e38:	eeff 7a00 	vmov.f32	s15, #240	@ 0xbf800000 -1.0
 8007e3c:	2800      	cmp	r0, #0
 8007e3e:	fe00 0a27 	vseleq.f32	s0, s0, s15
 8007e42:	4770      	bx	lr
 8007e44:	b920      	cbnz	r0, 8007e50 <expm1f+0x38>
 8007e46:	4a7a      	ldr	r2, [pc, #488]	@ (8008030 <expm1f+0x218>)
 8007e48:	4293      	cmp	r3, r2
 8007e4a:	d963      	bls.n	8007f14 <expm1f+0xfc>
 8007e4c:	f000 b926 	b.w	800809c <__math_oflowf>
 8007e50:	eddf 7a78 	vldr	s15, [pc, #480]	@ 8008034 <expm1f+0x21c>
 8007e54:	ee70 7a27 	vadd.f32	s15, s0, s15
 8007e58:	eef5 7ac0 	vcmpe.f32	s15, #0.0
 8007e5c:	eef1 fa10 	vmrs	APSR_nzcv, fpscr
 8007e60:	d551      	bpl.n	8007f06 <expm1f+0xee>
 8007e62:	eebf 0a00 	vmov.f32	s0, #240	@ 0xbf800000 -1.0
 8007e66:	4770      	bx	lr
 8007e68:	4a73      	ldr	r2, [pc, #460]	@ (8008038 <expm1f+0x220>)
 8007e6a:	4293      	cmp	r3, r2
 8007e6c:	d972      	bls.n	8007f54 <expm1f+0x13c>
 8007e6e:	4a73      	ldr	r2, [pc, #460]	@ (800803c <expm1f+0x224>)
 8007e70:	4293      	cmp	r3, r2
 8007e72:	d868      	bhi.n	8007f46 <expm1f+0x12e>
 8007e74:	ed9f 7a72 	vldr	s14, [pc, #456]	@ 8008040 <expm1f+0x228>
 8007e78:	2800      	cmp	r0, #0
 8007e7a:	d13d      	bne.n	8007ef8 <expm1f+0xe0>
 8007e7c:	ee30 7a47 	vsub.f32	s14, s0, s14
 8007e80:	eddf 6a70 	vldr	s13, [pc, #448]	@ 8008044 <expm1f+0x22c>
 8007e84:	2301      	movs	r3, #1
 8007e86:	ee37 0a66 	vsub.f32	s0, s14, s13
 8007e8a:	ee77 7a40 	vsub.f32	s15, s14, s0
 8007e8e:	ee77 7ae6 	vsub.f32	s15, s15, s13
 8007e92:	eef6 5a00 	vmov.f32	s11, #96	@ 0x3f000000  0.5
 8007e96:	ee20 4a25 	vmul.f32	s8, s0, s11
 8007e9a:	ed9f 6a6b 	vldr	s12, [pc, #428]	@ 8008048 <expm1f+0x230>
 8007e9e:	eddf 6a6b 	vldr	s13, [pc, #428]	@ 800804c <expm1f+0x234>
 8007ea2:	ed9f 5a6b 	vldr	s10, [pc, #428]	@ 8008050 <expm1f+0x238>
 8007ea6:	ee20 7a04 	vmul.f32	s14, s0, s8
 8007eaa:	eef0 4a08 	vmov.f32	s9, #8	@ 0x40400000  3.0
 8007eae:	eee7 6a06 	vfma.f32	s13, s14, s12
 8007eb2:	ed9f 6a68 	vldr	s12, [pc, #416]	@ 8008054 <expm1f+0x23c>
 8007eb6:	eea6 6a87 	vfma.f32	s12, s13, s14
 8007eba:	eddf 6a67 	vldr	s13, [pc, #412]	@ 8008058 <expm1f+0x240>
 8007ebe:	eee6 6a07 	vfma.f32	s13, s12, s14
 8007ec2:	eeb7 6a00 	vmov.f32	s12, #112	@ 0x3f800000  1.0
 8007ec6:	eea6 5a87 	vfma.f32	s10, s13, s14
 8007eca:	eef0 6a46 	vmov.f32	s13, s12
 8007ece:	eee5 6a07 	vfma.f32	s13, s10, s14
 8007ed2:	eee4 4a66 	vfms.f32	s9, s8, s13
 8007ed6:	eeb1 4a08 	vmov.f32	s8, #24	@ 0x40c00000  6.0
 8007eda:	eea0 4a64 	vfms.f32	s8, s0, s9
 8007ede:	ee36 5ae4 	vsub.f32	s10, s13, s9
 8007ee2:	eec5 6a04 	vdiv.f32	s13, s10, s8
 8007ee6:	ee66 6a87 	vmul.f32	s13, s13, s14
 8007eea:	2b00      	cmp	r3, #0
 8007eec:	d140      	bne.n	8007f70 <expm1f+0x158>
 8007eee:	ee90 7a26 	vfnms.f32	s14, s0, s13
 8007ef2:	ee30 0a47 	vsub.f32	s0, s0, s14
 8007ef6:	4770      	bx	lr
 8007ef8:	ee30 7a07 	vadd.f32	s14, s0, s14
 8007efc:	eddf 6a57 	vldr	s13, [pc, #348]	@ 800805c <expm1f+0x244>
 8007f00:	f04f 33ff 	mov.w	r3, #4294967295
 8007f04:	e7bf      	b.n	8007e86 <expm1f+0x6e>
 8007f06:	ed9f 7a56 	vldr	s14, [pc, #344]	@ 8008060 <expm1f+0x248>
 8007f0a:	ee20 7a07 	vmul.f32	s14, s0, s14
 8007f0e:	eefe 7a00 	vmov.f32	s15, #224	@ 0xbf000000 -0.5
 8007f12:	e005      	b.n	8007f20 <expm1f+0x108>
 8007f14:	ed9f 7a52 	vldr	s14, [pc, #328]	@ 8008060 <expm1f+0x248>
 8007f18:	ee20 7a07 	vmul.f32	s14, s0, s14
 8007f1c:	eef6 7a00 	vmov.f32	s15, #96	@ 0x3f000000  0.5
 8007f20:	ee77 7a87 	vadd.f32	s15, s15, s14
 8007f24:	eeb0 7a40 	vmov.f32	s14, s0
 8007f28:	eefd 7ae7 	vcvt.s32.f32	s15, s15
 8007f2c:	eef8 6ae7 	vcvt.f32.s32	s13, s15
 8007f30:	ee17 3a90 	vmov	r3, s15
 8007f34:	eddf 7a42 	vldr	s15, [pc, #264]	@ 8008040 <expm1f+0x228>
 8007f38:	eea6 7ae7 	vfms.f32	s14, s13, s15
 8007f3c:	eddf 7a41 	vldr	s15, [pc, #260]	@ 8008044 <expm1f+0x22c>
 8007f40:	ee66 6aa7 	vmul.f32	s13, s13, s15
 8007f44:	e79f      	b.n	8007e86 <expm1f+0x6e>
 8007f46:	ed9f 7a46 	vldr	s14, [pc, #280]	@ 8008060 <expm1f+0x248>
 8007f4a:	ee20 7a07 	vmul.f32	s14, s0, s14
 8007f4e:	2800      	cmp	r0, #0
 8007f50:	d0e4      	beq.n	8007f1c <expm1f+0x104>
 8007f52:	e7dc      	b.n	8007f0e <expm1f+0xf6>
 8007f54:	f1b3 5f4c 	cmp.w	r3, #855638016	@ 0x33000000
 8007f58:	d208      	bcs.n	8007f6c <expm1f+0x154>
 8007f5a:	eddf 7a42 	vldr	s15, [pc, #264]	@ 8008064 <expm1f+0x24c>
 8007f5e:	ee70 7a27 	vadd.f32	s15, s0, s15
 8007f62:	ee77 7ae7 	vsub.f32	s15, s15, s15
 8007f66:	ee30 0a67 	vsub.f32	s0, s0, s15
 8007f6a:	4770      	bx	lr
 8007f6c:	2300      	movs	r3, #0
 8007f6e:	e790      	b.n	8007e92 <expm1f+0x7a>
 8007f70:	ee76 6ae7 	vsub.f32	s13, s13, s15
 8007f74:	1c5a      	adds	r2, r3, #1
 8007f76:	eed6 7a80 	vfnms.f32	s15, s13, s0
 8007f7a:	ee77 7ac7 	vsub.f32	s15, s15, s14
 8007f7e:	d106      	bne.n	8007f8e <expm1f+0x176>
 8007f80:	ee70 7a67 	vsub.f32	s15, s0, s15
 8007f84:	eebe 0a00 	vmov.f32	s0, #224	@ 0xbf000000 -0.5
 8007f88:	eea7 0aa5 	vfma.f32	s0, s15, s11
 8007f8c:	4770      	bx	lr
 8007f8e:	2b01      	cmp	r3, #1
 8007f90:	d118      	bne.n	8007fc4 <expm1f+0x1ac>
 8007f92:	eebd 7a00 	vmov.f32	s14, #208	@ 0xbe800000 -0.250
 8007f96:	eeb4 0ac7 	vcmpe.f32	s0, s14
 8007f9a:	eef1 fa10 	vmrs	APSR_nzcv, fpscr
 8007f9e:	bf5b      	ittet	pl
 8007fa0:	ee70 7a67 	vsubpl.f32	s15, s0, s15
 8007fa4:	eeb0 7a00 	vmovpl.f32	s14, #0	@ 0x40000000  2.0
 8007fa8:	ee70 5a25 	vaddmi.f32	s11, s0, s11
 8007fac:	eea7 6a87 	vfmapl.f32	s12, s15, s14
 8007fb0:	bf43      	ittte	mi
 8007fb2:	ee77 7ae5 	vsubmi.f32	s15, s15, s11
 8007fb6:	eeb8 0a00 	vmovmi.f32	s0, #128	@ 0xc0000000 -2.0
 8007fba:	ee27 0a80 	vmulmi.f32	s0, s15, s0
 8007fbe:	eeb0 0a46 	vmovpl.f32	s0, s12
 8007fc2:	4770      	bx	lr
 8007fc4:	1c5a      	adds	r2, r3, #1
 8007fc6:	2a39      	cmp	r2, #57	@ 0x39
 8007fc8:	ea4f 51c3 	mov.w	r1, r3, lsl #23
 8007fcc:	d90b      	bls.n	8007fe6 <expm1f+0x1ce>
 8007fce:	ee77 7ac0 	vsub.f32	s15, s15, s0
 8007fd2:	ee76 7a67 	vsub.f32	s15, s12, s15
 8007fd6:	ee17 3a90 	vmov	r3, s15
 8007fda:	4419      	add	r1, r3
 8007fdc:	ee07 1a90 	vmov	s15, r1
 8007fe0:	ee37 0ac6 	vsub.f32	s0, s15, s12
 8007fe4:	4770      	bx	lr
 8007fe6:	2b16      	cmp	r3, #22
 8007fe8:	dc11      	bgt.n	800800e <expm1f+0x1f6>
 8007fea:	f04f 7280 	mov.w	r2, #16777216	@ 0x1000000
 8007fee:	fa42 f303 	asr.w	r3, r2, r3
 8007ff2:	f1c3 537e 	rsb	r3, r3, #1065353216	@ 0x3f800000
 8007ff6:	ee07 3a10 	vmov	s14, r3
 8007ffa:	ee77 7ac0 	vsub.f32	s15, s15, s0
 8007ffe:	ee77 7a67 	vsub.f32	s15, s14, s15
 8008002:	ee17 3a90 	vmov	r3, s15
 8008006:	440b      	add	r3, r1
 8008008:	ee00 3a10 	vmov	s0, r3
 800800c:	4770      	bx	lr
 800800e:	f1c3 037f 	rsb	r3, r3, #127	@ 0x7f
 8008012:	05db      	lsls	r3, r3, #23
 8008014:	ee07 3a10 	vmov	s14, r3
 8008018:	ee77 7a87 	vadd.f32	s15, s15, s14
 800801c:	ee70 7a67 	vsub.f32	s15, s0, s15
 8008020:	ee77 7a86 	vadd.f32	s15, s15, s12
 8008024:	ee17 3a90 	vmov	r3, s15
 8008028:	e7ed      	b.n	8008006 <expm1f+0x1ee>
 800802a:	bf00      	nop
 800802c:	4195b843 	.word	0x4195b843
 8008030:	42b17217 	.word	0x42b17217
 8008034:	0da24260 	.word	0x0da24260
 8008038:	3eb17218 	.word	0x3eb17218
 800803c:	3f851591 	.word	0x3f851591
 8008040:	3f317180 	.word	0x3f317180
 8008044:	3717f7d1 	.word	0x3717f7d1
 8008048:	b457edbb 	.word	0xb457edbb
 800804c:	36867e54 	.word	0x36867e54
 8008050:	bd088889 	.word	0xbd088889
 8008054:	b8a670cd 	.word	0xb8a670cd
 8008058:	3ad00d01 	.word	0x3ad00d01
 800805c:	b717f7d1 	.word	0xb717f7d1
 8008060:	3fb8aa3b 	.word	0x3fb8aa3b
 8008064:	7149f2ca 	.word	0x7149f2ca

08008068 <with_errnof>:
 8008068:	b510      	push	{r4, lr}
 800806a:	ed2d 8b02 	vpush	{d8}
 800806e:	eeb0 8a40 	vmov.f32	s16, s0
 8008072:	4604      	mov	r4, r0
 8008074:	f7ff fe3c 	bl	8007cf0 <__errno>
 8008078:	eeb0 0a48 	vmov.f32	s0, s16
 800807c:	ecbd 8b02 	vpop	{d8}
 8008080:	6004      	str	r4, [r0, #0]
 8008082:	bd10      	pop	{r4, pc}

08008084 <xflowf>:
 8008084:	b130      	cbz	r0, 8008094 <xflowf+0x10>
 8008086:	eef1 7a40 	vneg.f32	s15, s0
 800808a:	ee27 0a80 	vmul.f32	s0, s15, s0
 800808e:	2022      	movs	r0, #34	@ 0x22
 8008090:	f7ff bfea 	b.w	8008068 <with_errnof>
 8008094:	eef0 7a40 	vmov.f32	s15, s0
 8008098:	e7f7      	b.n	800808a <xflowf+0x6>
	...

0800809c <__math_oflowf>:
 800809c:	ed9f 0a01 	vldr	s0, [pc, #4]	@ 80080a4 <__math_oflowf+0x8>
 80080a0:	f7ff bff0 	b.w	8008084 <xflowf>
 80080a4:	70000000 	.word	0x70000000

080080a8 <fabsf>:
 80080a8:	ee10 3a10 	vmov	r3, s0
 80080ac:	f023 4300 	bic.w	r3, r3, #2147483648	@ 0x80000000
 80080b0:	ee00 3a10 	vmov	s0, r3
 80080b4:	4770      	bx	lr
	...

080080b8 <_init>:
 80080b8:	b5f8      	push	{r3, r4, r5, r6, r7, lr}
 80080ba:	bf00      	nop
 80080bc:	bcf8      	pop	{r3, r4, r5, r6, r7}
 80080be:	bc08      	pop	{r3}
 80080c0:	469e      	mov	lr, r3
 80080c2:	4770      	bx	lr

080080c4 <_fini>:
 80080c4:	b5f8      	push	{r3, r4, r5, r6, r7, lr}
 80080c6:	bf00      	nop
 80080c8:	bcf8      	pop	{r3, r4, r5, r6, r7}
 80080ca:	bc08      	pop	{r3}
 80080cc:	469e      	mov	lr, r3
 80080ce:	4770      	bx	lr
